 CourseworkBase2020

 Timestamp is 5f81a286 (Sat Oct 10 13:01:10 2020)

 Preferred load address is 00400000

 Start         Length     Name                   Class
 0001:00000000 00004da0H .text$di                CODE
 0001:00004da0 0002c820H .text$mn                CODE
 0001:000315c0 00003180H .text$x                 CODE
 0001:00034740 00001012H .text$yd                CODE
 0002:00000000 00000104H .CRT$XCA                DATA
 0002:00000104 00000104H .CRT$XCAA               DATA
 0002:00000208 00000104H .CRT$XCL                DATA
 0002:0000030c 00000104H .CRT$XCZ                DATA
 0002:00000410 00000104H .CRT$XIA                DATA
 0002:00000514 00000104H .CRT$XIAA               DATA
 0002:00000618 00000104H .CRT$XIAC               DATA
 0002:0000071c 00000104H .CRT$XIZ                DATA
 0002:00000820 00000104H .CRT$XPA                DATA
 0002:00000924 00000104H .CRT$XPZ                DATA
 0002:00000a28 00000104H .CRT$XTA                DATA
 0002:00000b2c 00000104H .CRT$XTZ                DATA
 0002:00000c30 00011170H .rdata                  DATA
 0002:00011da0 00001168H .rdata$r                DATA
 0002:00012f08 00000310H .rdata$sxdata           DATA
 0002:00013218 00000190H .rdata$zzzdbg           DATA
 0002:000133a8 00000104H .rtc$IAA                DATA
 0002:000134ac 00000104H .rtc$IZZ                DATA
 0002:000135b0 00000104H .rtc$TAA                DATA
 0002:000136b4 00000104H .rtc$TZZ                DATA
 0002:000137b8 00001e5cH .xdata$x                DATA
 0002:00015614 00000000H .edata                  DATA
 0003:00000000 00000130H .data                   DATA
 0003:00000130 00000808H .data$r                 DATA
 0003:00000938 00000458H .bss                    DATA
 0004:00000000 000004e4H .idata$5                DATA
 0004:000004e4 0000008cH .idata$2                DATA
 0004:00000570 00000014H .idata$3                DATA
 0004:00000584 000004e4H .idata$4                DATA
 0004:00000a68 00001c61H .idata$6                DATA
 0005:00000000 00000109H .00cfg                  DATA
 0006:00000000 00000170H .rsrc$01                DATA
 0006:00000170 000002ccH .rsrc$02                DATA

  Address         Publics by Value              Rva+Base       Lib:Object

 0000:00000000       ___guard_eh_cont_count     00000000     <absolute>
 0000:00000000       ___hybrid_auxiliary_iat    00000000     <absolute>
 0000:00000000       ___AbsoluteZero            00000000     <absolute>
 0000:00000000       ___arm64x_native_entrypoint 00000000     <absolute>
 0000:00000000       ___arm64x_redirection_metadata 00000000     <absolute>
 0000:00000000       ___guard_eh_cont_table     00000000     <absolute>
 0000:00000000       ___guard_fids_table        00000000     <absolute>
 0000:00000000       ___x64_code_ranges_to_entry_points 00000000     <absolute>
 0000:00000000       ___dynamic_value_reloc_table 00000000     <absolute>
 0000:00000000       ___guard_longjmp_count     00000000     <absolute>
 0000:00000000       ___guard_fids_count        00000000     <absolute>
 0000:00000000       ___guard_iat_table         00000000     <absolute>
 0000:00000000       ___enclave_config          00000000     <absolute>
 0000:00000000       ___hybrid_code_map         00000000     <absolute>
 0000:00000000       ___guard_longjmp_table     00000000     <absolute>
 0000:00000000       ___volatile_metadata       00000000     <absolute>
 0000:00000000       ___hybrid_code_map_count   00000000     <absolute>
 0000:00000000       ___guard_iat_count         00000000     <absolute>
 0000:0000006e       ___safe_se_handler_count   0000006e     <absolute>
 0000:00000100       ___guard_flags             00000100     <absolute>
 0000:00000000       ___ImageBase               00400000     <linker-defined>
 0001:00004da0       ??0AutomatedObject@@QAE@PAVGameEngine@@HHHH@Z 00405da0 f   AutomatedObject.obj
 0001:00004e30       ??1AutomatedObject@@UAE@XZ 00405e30 f   AutomatedObject.obj
 0001:00004e50       ?virtDraw@AutomatedObject@@UAEXXZ 00405e50 f   AutomatedObject.obj
 0001:00004ec0       ?virtDoUpdate@AutomatedObject@@UAEXH@Z 00405ec0 f   AutomatedObject.obj
 0001:00004f20       ??_GAutomatedObject@@UAEPAXI@Z 00405f20 f i AutomatedObject.obj
 0001:00004f20       ??_EAutomatedObject@@UAEPAXI@Z 00405f20 f i AutomatedObject.obj
 0001:00004f60       ?__empty_global_delete@@YAXPAX@Z 00405f60 f i AutomatedObject.obj
 0001:00004f70       ?__global_delete@@YAXPAXI@Z 00405f70 f i AutomatedObject.obj
 0001:00004f70       ?__empty_global_delete@@YAXPAXI@Z 00405f70 f i AutomatedObject.obj
 0001:00004f80       ?deleteOnRemoval@DisplayableObject@@UBE_NXZ 00405f80 f i AutomatedObject.obj
 0001:00004fa0       ?drawForegroundRectangle@BaseEngine@@QAEXHHHHI@Z 00405fa0 f i AutomatedObject.obj
 0001:00004fe0       ?getEngine@DisplayableObject@@QBEPAVBaseEngine@@XZ 00405fe0 f i AutomatedObject.obj
 0001:00005000       ?isVisible@DisplayableObject@@QBE_NXZ 00406000 f i AutomatedObject.obj
 0001:00005020       ?setPosition@DisplayableObject@@UAEXHH@Z 00406020 f i AutomatedObject.obj
 0001:00005060       ?setVisible@DisplayableObject@@QAEX_N@Z 00406060 f i AutomatedObject.obj
 0001:00005080       ?virtIsPositionWithinObject@DisplayableObject@@UAE_NHH@Z 00406080 f i AutomatedObject.obj
 0001:00005110       ?virtKeyDown@DisplayableObject@@UAEXH@Z 00406110 f i AutomatedObject.obj
 0001:00005120       ?virtKeyUp@DisplayableObject@@UAEXH@Z 00406120 f i AutomatedObject.obj
 0001:00005130       ?virtMouseDown@DisplayableObject@@UAEXHHH@Z 00406130 f i AutomatedObject.obj
 0001:00005140       ?virtMouseMoved@DisplayableObject@@UAEXHH@Z 00406140 f i AutomatedObject.obj
 0001:00005150       ?virtMouseUp@DisplayableObject@@UAEXHHH@Z 00406150 f i AutomatedObject.obj
 0001:00005160       ?virtNotify@DisplayableObject@@UAEJHHH@Z 00406160 f i AutomatedObject.obj
 0001:00005180       ?virtSingleItemMouseDown@DisplayableObject@@UAE_NHHH@Z 00406180 f i AutomatedObject.obj
 0001:000051a0       ??0Boss@@QAE@PAVGameEngine@@PAVAdvancedTileManager@@HHH@Z 004061a0 f   Boss.obj
 0001:000054c0       ??1Boss@@UAE@XZ            004064c0 f   Boss.obj
 0001:00005570       ?setMovement@Boss@@QAEXHHHHHHH@Z 00406570 f   Boss.obj
 0001:000055e0       ?virtDoUpdate@Boss@@UAEXH@Z 004065e0 f   Boss.obj
 0001:00005c20       ?virtDraw@Boss@@UAEXXZ     00406c20 f   Boss.obj
 0001:00005fa0       ?getHealth@Boss@@QAEHXZ    00406fa0 f   Boss.obj
 0001:00005fc0       ?setIsHit@Boss@@QAEX_N@Z   00406fc0 f   Boss.obj
 0001:00005fe0       ?bfs@Boss@@QAEXAAUPoint@1@U21@AAV?$vector@UPoint@Boss@@V?$allocator@UPoint@Boss@@@std@@@std@@@Z 00406fe0 f   Boss.obj
 0001:000063b0       ?in@Boss@@QAE_NHH@Z        004073b0 f   Boss.obj
 0001:000063e0       ?detectDoorOpen@Boss@@QAE_NXZ 004073e0 f   Boss.obj
 0001:00006420       ?randomWalk@Boss@@QAEXH@Z  00407420 f   Boss.obj
 0001:00006a70       ??$?0$$V@?$_Compressed_pair@V?$allocator@D@std@@V?$_String_val@U?$_Simple_types@D@std@@@2@$00@std@@QAE@U_Zero_then_variadic_args_t@1@@Z 00407a70 f i Boss.obj
 0001:00006aa0       ??$?0$$V@?$_Compressed_pair@V?$allocator@U?$_Tree_node@U?$pair@$$CBV?$basic_string@DU?$char_traits@D@std@@V?$allocator@D@2@@std@@V?$shared_ptr@VRawImageData@@@2@@std@@PAX@std@@@std@@V?$_Tree_val@U?$_Tree_simple_types@U?$pair@$$CBV?$basic_string@DU?$char_traits@D@std@@V?$allocator@D@2@@std@@V?$shared_ptr@VRawImageData@@@2@@std@@@std@@@2@$00@std@@QAE@U_Zero_then_variadic_args_t@1@@Z 00407aa0 f i Boss.obj
 0001:00006ad0       ??$?0$$V@?$_Compressed_pair@V?$allocator@U?$_Tree_node@U?$pair@$$CBV?$basic_string@DU?$char_traits@D@std@@V?$allocator@D@2@@std@@V?$weak_ptr@VRawImageData@@@2@@std@@PAX@std@@@std@@V?$_Tree_val@U?$_Tree_simple_types@U?$pair@$$CBV?$basic_string@DU?$char_traits@D@std@@V?$allocator@D@2@@std@@V?$weak_ptr@VRawImageData@@@2@@std@@@std@@@2@$00@std@@QAE@U_Zero_then_variadic_args_t@1@@Z 00407ad0 f i Boss.obj
 0001:00006b00       ??$?0$$V@?$_Compressed_pair@V?$allocator@UPoint@Boss@@@std@@V?$_Deque_val@U?$_Deque_simple_types@UPoint@Boss@@@std@@@2@$00@std@@QAE@U_Zero_then_variadic_args_t@1@@Z 00407b00 f i Boss.obj
 0001:00006b30       ??$?0$$V@?$_Compressed_pair@V?$allocator@UPoint@Boss@@@std@@V?$_Vector_val@U?$_Simple_types@UPoint@Boss@@@std@@@2@$00@std@@QAE@U_Zero_then_variadic_args_t@1@@Z 00407b30 f i Boss.obj
 0001:00006b60       ??$?0AAPAU?$_Tree_node@U?$pair@$$CBV?$basic_string@DU?$char_traits@D@std@@V?$allocator@D@2@@std@@V?$shared_ptr@VRawImageData@@@2@@std@@PAX@std@@_N$0A@@?$pair@PAU?$_Tree_node@U?$pair@$$CBV?$basic_string@DU?$char_traits@D@std@@V?$allocator@D@2@@std@@V?$shared_ptr@VRawImageData@@@2@@std@@PAX@std@@_N@std@@QAE@AAPAU?$_Tree_node@U?$pair@$$CBV?$basic_string@DU?$char_traits@D@std@@V?$allocator@D@2@@std@@V?$shared_ptr@VRawImageData@@@2@@std@@PAX@1@$$QA_N@Z 00407b60 f i Boss.obj
 0001:00006bb0       ??$?0AAPAU?$_Tree_node@U?$pair@$$CBV?$basic_string@DU?$char_traits@D@std@@V?$allocator@D@2@@std@@V?$weak_ptr@VRawImageData@@@2@@std@@PAX@std@@_N$0A@@?$pair@PAU?$_Tree_node@U?$pair@$$CBV?$basic_string@DU?$char_traits@D@std@@V?$allocator@D@2@@std@@V?$weak_ptr@VRawImageData@@@2@@std@@PAX@std@@_N@std@@QAE@AAPAU?$_Tree_node@U?$pair@$$CBV?$basic_string@DU?$char_traits@D@std@@V?$allocator@D@2@@std@@V?$weak_ptr@VRawImageData@@@2@@std@@PAX@1@$$QA_N@Z 00407bb0 f i Boss.obj
 0001:00006c00       ??$?0AAV?$basic_string@DU?$char_traits@D@std@@V?$allocator@D@2@@std@@AAV?$shared_ptr@VRawImageData@@@1@$0A@@?$pair@V?$basic_string@DU?$char_traits@D@std@@V?$allocator@D@2@@std@@V?$shared_ptr@VRawImageData@@@2@@std@@QAE@AAV?$basic_string@DU?$char_traits@D@std@@V?$allocator@D@2@@1@AAV?$shared_ptr@VRawImageData@@@1@@Z 00407c00 f i Boss.obj
 0001:00006c50       ??$?0AAV?$basic_string@DU?$char_traits@D@std@@V?$allocator@D@2@@std@@AAV?$weak_ptr@VRawImageData@@@1@$0A@@?$pair@V?$basic_string@DU?$char_traits@D@std@@V?$allocator@D@2@@std@@V?$weak_ptr@VRawImageData@@@2@@std@@QAE@AAV?$basic_string@DU?$char_traits@D@std@@V?$allocator@D@2@@1@AAV?$weak_ptr@VRawImageData@@@1@@Z 00407c50 f i Boss.obj
 0001:00006ca0       ??$?0ABU?$less@V?$basic_string@DU?$char_traits@D@std@@V?$allocator@D@2@@std@@@std@@U_Zero_then_variadic_args_t@1@@?$_Compressed_pair@U?$less@V?$basic_string@DU?$char_traits@D@std@@V?$allocator@D@2@@std@@@std@@V?$_Compressed_pair@V?$allocator@U?$_Tree_node@U?$pair@$$CBV?$basic_string@DU?$char_traits@D@std@@V?$allocator@D@2@@std@@V?$shared_ptr@VRawImageData@@@2@@std@@PAX@std@@@std@@V?$_Tree_val@U?$_Tree_simple_types@U?$pair@$$CBV?$basic_string@DU?$char_traits@D@std@@V?$allocator@D@2@@std@@V?$shared_ptr@VRawImageData@@@2@@std@@@std@@@2@$00@2@$00@std@@QAE@U_One_then_variadic_args_t@1@ABU?$less@V?$basic_string@DU?$char_traits@D@std@@V?$allocator@D@2@@std@@@1@$$QAU_Zero_then_variadic_args_t@1@@Z 00407ca0 f i Boss.obj
 0001:00006cf0       ??$?0ABU?$less@V?$basic_string@DU?$char_traits@D@std@@V?$allocator@D@2@@std@@@std@@U_Zero_then_variadic_args_t@1@@?$_Compressed_pair@U?$less@V?$basic_string@DU?$char_traits@D@std@@V?$allocator@D@2@@std@@@std@@V?$_Compressed_pair@V?$allocator@U?$_Tree_node@U?$pair@$$CBV?$basic_string@DU?$char_traits@D@std@@V?$allocator@D@2@@std@@V?$weak_ptr@VRawImageData@@@2@@std@@PAX@std@@@std@@V?$_Tree_val@U?$_Tree_simple_types@U?$pair@$$CBV?$basic_string@DU?$char_traits@D@std@@V?$allocator@D@2@@std@@V?$weak_ptr@VRawImageData@@@2@@std@@@std@@@2@$00@2@$00@std@@QAE@U_One_then_variadic_args_t@1@ABU?$less@V?$basic_string@DU?$char_traits@D@std@@V?$allocator@D@2@@std@@@1@$$QAU_Zero_then_variadic_args_t@1@@Z 00407cf0 f i Boss.obj
 0001:00006d40       ??$?0D@?$allocator@U_Container_proxy@std@@@std@@QAE@ABV?$allocator@D@1@@Z 00407d40 f i Boss.obj
 0001:00006d60       ??$?0PAU?$_Tree_node@U?$pair@$$CBV?$basic_string@DU?$char_traits@D@std@@V?$allocator@D@2@@std@@V?$shared_ptr@VRawImageData@@@2@@std@@PAX@std@@_N$0A@@?$pair@PAU?$_Tree_node@U?$pair@$$CBV?$basic_string@DU?$char_traits@D@std@@V?$allocator@D@2@@std@@V?$shared_ptr@VRawImageData@@@2@@std@@PAX@std@@_N@std@@QAE@$$QAPAU?$_Tree_node@U?$pair@$$CBV?$basic_string@DU?$char_traits@D@std@@V?$allocator@D@2@@std@@V?$shared_ptr@VRawImageData@@@2@@std@@PAX@1@$$QA_N@Z 00407d60 f i Boss.obj
 0001:00006db0       ??$?0PAU?$_Tree_node@U?$pair@$$CBV?$basic_string@DU?$char_traits@D@std@@V?$allocator@D@2@@std@@V?$weak_ptr@VRawImageData@@@2@@std@@PAX@std@@_N$0A@@?$pair@PAU?$_Tree_node@U?$pair@$$CBV?$basic_string@DU?$char_traits@D@std@@V?$allocator@D@2@@std@@V?$weak_ptr@VRawImageData@@@2@@std@@PAX@std@@_N@std@@QAE@$$QAPAU?$_Tree_node@U?$pair@$$CBV?$basic_string@DU?$char_traits@D@std@@V?$allocator@D@2@@std@@V?$weak_ptr@VRawImageData@@@2@@std@@PAX@1@$$QA_N@Z 00407db0 f i Boss.obj
 0001:00006e00       ??$?0U?$_Tree_node@U?$pair@$$CBV?$basic_string@DU?$char_traits@D@std@@V?$allocator@D@2@@std@@V?$shared_ptr@VRawImageData@@@2@@std@@PAX@std@@@?$allocator@U_Container_proxy@std@@@std@@QAE@ABV?$allocator@U?$_Tree_node@U?$pair@$$CBV?$basic_string@DU?$char_traits@D@std@@V?$allocator@D@2@@std@@V?$shared_ptr@VRawImageData@@@2@@std@@PAX@std@@@1@@Z 00407e00 f i Boss.obj
 0001:00006e20       ??$?0U?$_Tree_node@U?$pair@$$CBV?$basic_string@DU?$char_traits@D@std@@V?$allocator@D@2@@std@@V?$weak_ptr@VRawImageData@@@2@@std@@PAX@std@@@?$allocator@U_Container_proxy@std@@@std@@QAE@ABV?$allocator@U?$_Tree_node@U?$pair@$$CBV?$basic_string@DU?$char_traits@D@std@@V?$allocator@D@2@@std@@V?$weak_ptr@VRawImageData@@@2@@std@@PAX@std@@@1@@Z 00407e20 f i Boss.obj
 0001:00006e40       ??$?0U?$pair@V?$basic_string@DU?$char_traits@D@std@@V?$allocator@D@2@@std@@V?$shared_ptr@VRawImageData@@@2@@std@@@?$_Tree_temp_node@V?$allocator@U?$_Tree_node@U?$pair@$$CBV?$basic_string@DU?$char_traits@D@std@@V?$allocator@D@2@@std@@V?$shared_ptr@VRawImageData@@@2@@std@@PAX@std@@@std@@@std@@QAE@AAV?$allocator@U?$_Tree_node@U?$pair@$$CBV?$basic_string@DU?$char_traits@D@std@@V?$allocator@D@2@@std@@V?$shared_ptr@VRawImageData@@@2@@std@@PAX@std@@@1@PAU?$_Tree_node@U?$pair@$$CBV?$basic_string@DU?$char_traits@D@std@@V?$allocator@D@2@@std@@V?$shared_ptr@VRawImageData@@@2@@std@@PAX@1@$$QAU?$pair@V?$basic_string@DU?$char_traits@D@std@@V?$allocator@D@2@@std@@V?$shared_ptr@VRawImageData@@@2@@1@@Z 00407e40 f i Boss.obj
 0001:00006f50       ??$?0U?$pair@V?$basic_string@DU?$char_traits@D@std@@V?$allocator@D@2@@std@@V?$weak_ptr@VRawImageData@@@2@@std@@@?$_Tree_temp_node@V?$allocator@U?$_Tree_node@U?$pair@$$CBV?$basic_string@DU?$char_traits@D@std@@V?$allocator@D@2@@std@@V?$weak_ptr@VRawImageData@@@2@@std@@PAX@std@@@std@@@std@@QAE@AAV?$allocator@U?$_Tree_node@U?$pair@$$CBV?$basic_string@DU?$char_traits@D@std@@V?$allocator@D@2@@std@@V?$weak_ptr@VRawImageData@@@2@@std@@PAX@std@@@1@PAU?$_Tree_node@U?$pair@$$CBV?$basic_string@DU?$char_traits@D@std@@V?$allocator@D@2@@std@@V?$weak_ptr@VRawImageData@@@2@@std@@PAX@1@$$QAU?$pair@V?$basic_string@DU?$char_traits@D@std@@V?$allocator@D@2@@std@@V?$weak_ptr@VRawImageData@@@2@@1@@Z 00407f50 f i Boss.obj
 0001:00007060       ??$?0UPoint@Boss@@@?$allocator@PAUPoint@Boss@@@std@@QAE@ABV?$allocator@UPoint@Boss@@@1@@Z 00408060 f i Boss.obj
 0001:00007080       ??$?0UPoint@Boss@@@?$allocator@U_Container_proxy@std@@@std@@QAE@ABV?$allocator@UPoint@Boss@@@1@@Z 00408080 f i Boss.obj
 0001:000070a0       ??$?0V?$_Tree_iterator@V?$_Tree_val@U?$_Tree_simple_types@U?$pair@$$CBV?$basic_string@DU?$char_traits@D@std@@V?$allocator@D@2@@std@@V?$shared_ptr@VRawImageData@@@2@@std@@@std@@@std@@@std@@AB_N$0A@@?$pair@V?$_Tree_iterator@V?$_Tree_val@U?$_Tree_simple_types@U?$pair@$$CBV?$basic_string@DU?$char_traits@D@std@@V?$allocator@D@2@@std@@V?$shared_ptr@VRawImageData@@@2@@std@@@std@@@std@@@std@@_N@std@@QAE@$$QAV?$_Tree_iterator@V?$_Tree_val@U?$_Tree_simple_types@U?$pair@$$CBV?$basic_string@DU?$char_traits@D@std@@V?$allocator@D@2@@std@@V?$shared_ptr@VRawImageData@@@2@@std@@@std@@@std@@@1@AB_N@Z 004080a0 f i Boss.obj
 0001:000070f0       ??$?0V?$_Tree_iterator@V?$_Tree_val@U?$_Tree_simple_types@U?$pair@$$CBV?$basic_string@DU?$char_traits@D@std@@V?$allocator@D@2@@std@@V?$weak_ptr@VRawImageData@@@2@@std@@@std@@@std@@@std@@AB_N$0A@@?$pair@V?$_Tree_iterator@V?$_Tree_val@U?$_Tree_simple_types@U?$pair@$$CBV?$basic_string@DU?$char_traits@D@std@@V?$allocator@D@2@@std@@V?$weak_ptr@VRawImageData@@@2@@std@@@std@@@std@@@std@@_N@std@@QAE@$$QAV?$_Tree_iterator@V?$_Tree_val@U?$_Tree_simple_types@U?$pair@$$CBV?$basic_string@DU?$char_traits@D@std@@V?$allocator@D@2@@std@@V?$weak_ptr@VRawImageData@@@2@@std@@@std@@@std@@@1@AB_N@Z 004080f0 f i Boss.obj
 0001:00007140       ??$?0V?$allocator@D@std@@$$V@?$_Compressed_pair@V?$allocator@D@std@@V?$_String_val@U?$_Simple_types@D@std@@@2@$00@std@@QAE@U_One_then_variadic_args_t@1@$$QAV?$allocator@D@1@@Z 00408140 f i Boss.obj
 0001:00007170       ??$?0V?$basic_string@DU?$char_traits@D@std@@V?$allocator@D@2@@std@@V?$shared_ptr@VRawImageData@@@1@$0A@@?$pair@$$CBV?$basic_string@DU?$char_traits@D@std@@V?$allocator@D@2@@std@@V?$shared_ptr@VRawImageData@@@2@@std@@QAE@$$QAU?$pair@V?$basic_string@DU?$char_traits@D@std@@V?$allocator@D@2@@std@@V?$shared_ptr@VRawImageData@@@2@@1@@Z 00408170 f i Boss.obj
 0001:000071c0       ??$?0V?$basic_string@DU?$char_traits@D@std@@V?$allocator@D@2@@std@@V?$weak_ptr@VRawImageData@@@1@$0A@@?$pair@$$CBV?$basic_string@DU?$char_traits@D@std@@V?$allocator@D@2@@std@@V?$weak_ptr@VRawImageData@@@2@@std@@QAE@$$QAU?$pair@V?$basic_string@DU?$char_traits@D@std@@V?$allocator@D@2@@std@@V?$weak_ptr@VRawImageData@@@2@@1@@Z 004081c0 f i Boss.obj
 0001:00007210       ??$?0VRawImageData@@$0A@@?$shared_ptr@VRawImageData@@@std@@QAE@PAVRawImageData@@@Z 00408210 f i Boss.obj
 0001:00007300       ??$?0VRawImageData@@$0A@@?$weak_ptr@VRawImageData@@@std@@QAE@ABV?$shared_ptr@VRawImageData@@@1@@Z 00408300 f i Boss.obj
 0001:00007330       ??$?6DU?$char_traits@D@std@@V?$allocator@D@1@@std@@YAAAV?$basic_ostream@DU?$char_traits@D@std@@@0@AAV10@ABV?$basic_string@DU?$char_traits@D@std@@V?$allocator@D@2@@0@@Z 00408330 f i Boss.obj
 0001:00007360       ??$?6U?$char_traits@D@std@@@std@@YAAAV?$basic_ostream@DU?$char_traits@D@std@@@0@AAV10@PBD@Z 00408360 f i Boss.obj
 0001:00007760       ??$?9VRawImageData@@@std@@YA_NABV?$shared_ptr@VRawImageData@@@0@$$T@Z 00408760 f i Boss.obj
 0001:00007790       ??$?MDU?$char_traits@D@std@@V?$allocator@D@1@@std@@YA_NABV?$basic_string@DU?$char_traits@D@std@@V?$allocator@D@2@@0@0@Z 00408790 f i Boss.obj
 0001:000077d0       ??$_Adl_verify_range@PAPAUPoint@Boss@@PAPAU12@@std@@YAXABQAPAUPoint@Boss@@0@Z 004087d0 f i Boss.obj
 0001:000077f0       ??$_Adl_verify_range@PAUPoint@Boss@@PAU12@@std@@YAXABQAUPoint@Boss@@0@Z 004087f0 f i Boss.obj
 0001:00007810       ??$_Alloc_proxy@V?$allocator@U_Container_proxy@std@@@std@@@_Container_base12@std@@QAEX$$QAV?$allocator@U_Container_proxy@std@@@1@@Z 00408810 f i Boss.obj
 0001:00007870       ??$_Allocate@$07U_Default_allocate_traits@std@@$0A@@std@@YAPAXI@Z 00408870 f i Boss.obj
 0001:000078b0       ??$_Allocate_manually_vector_aligned@U_Default_allocate_traits@std@@@std@@YAPAXI@Z 004088b0 f i Boss.obj
 0001:00007990       ??$_Assign_range@PAUPoint@Boss@@@?$vector@UPoint@Boss@@V?$allocator@UPoint@Boss@@@std@@@std@@AAEXPAUPoint@Boss@@0Uforward_iterator_tag@1@@Z 00408990 f i Boss.obj
 0001:00007b00       ??$_Atomic_address_as@$$CBJ$$CCJ@std@@YAPDJACJ@Z 00408b00 f i Boss.obj
 0001:00007b10       ??$_Buyheadnode@V?$allocator@U?$_Tree_node@U?$pair@$$CBV?$basic_string@DU?$char_traits@D@std@@V?$allocator@D@2@@std@@V?$shared_ptr@VRawImageData@@@2@@std@@PAX@std@@@std@@@?$_Tree_node@U?$pair@$$CBV?$basic_string@DU?$char_traits@D@std@@V?$allocator@D@2@@std@@V?$shared_ptr@VRawImageData@@@2@@std@@PAX@std@@SAPAU01@AAV?$allocator@U?$_Tree_node@U?$pair@$$CBV?$basic_string@DU?$char_traits@D@std@@V?$allocator@D@2@@std@@V?$shared_ptr@VRawImageData@@@2@@std@@PAX@std@@@1@@Z 00408b10 f i Boss.obj
 0001:00007b90       ??$_Buyheadnode@V?$allocator@U?$_Tree_node@U?$pair@$$CBV?$basic_string@DU?$char_traits@D@std@@V?$allocator@D@2@@std@@V?$weak_ptr@VRawImageData@@@2@@std@@PAX@std@@@std@@@?$_Tree_node@U?$pair@$$CBV?$basic_string@DU?$char_traits@D@std@@V?$allocator@D@2@@std@@V?$weak_ptr@VRawImageData@@@2@@std@@PAX@std@@SAPAU01@AAV?$allocator@U?$_Tree_node@U?$pair@$$CBV?$basic_string@DU?$char_traits@D@std@@V?$allocator@D@2@@std@@V?$weak_ptr@VRawImageData@@@2@@std@@PAX@std@@@1@@Z 00408b90 f i Boss.obj
 0001:00007c10       ??$_Construct_from_weak@VRawImageData@@@?$_Ptr_base@VRawImageData@@@std@@IAE_NABV?$weak_ptr@VRawImageData@@@1@@Z 00408c10 f i Boss.obj
 0001:00007c70       ??$_Construct_in_place@PADABQAD@std@@YAXAAPADABQAD@Z 00408c70 f i Boss.obj
 0001:00007cc0       ??$_Construct_in_place@PAU?$_Tree_node@U?$pair@$$CBV?$basic_string@DU?$char_traits@D@std@@V?$allocator@D@2@@std@@V?$shared_ptr@VRawImageData@@@2@@std@@PAX@std@@AAPAU12@@std@@YAXAAPAU?$_Tree_node@U?$pair@$$CBV?$basic_string@DU?$char_traits@D@std@@V?$allocator@D@2@@std@@V?$shared_ptr@VRawImageData@@@2@@std@@PAX@0@0@Z 00408cc0 f i Boss.obj
 0001:00007d10       ??$_Construct_in_place@PAU?$_Tree_node@U?$pair@$$CBV?$basic_string@DU?$char_traits@D@std@@V?$allocator@D@2@@std@@V?$shared_ptr@VRawImageData@@@2@@std@@PAX@std@@ABQAU12@@std@@YAXAAPAU?$_Tree_node@U?$pair@$$CBV?$basic_string@DU?$char_traits@D@std@@V?$allocator@D@2@@std@@V?$shared_ptr@VRawImageData@@@2@@std@@PAX@0@ABQAU10@@Z 00408d10 f i Boss.obj
 0001:00007d60       ??$_Construct_in_place@PAU?$_Tree_node@U?$pair@$$CBV?$basic_string@DU?$char_traits@D@std@@V?$allocator@D@2@@std@@V?$weak_ptr@VRawImageData@@@2@@std@@PAX@std@@AAPAU12@@std@@YAXAAPAU?$_Tree_node@U?$pair@$$CBV?$basic_string@DU?$char_traits@D@std@@V?$allocator@D@2@@std@@V?$weak_ptr@VRawImageData@@@2@@std@@PAX@0@0@Z 00408d60 f i Boss.obj
 0001:00007db0       ??$_Construct_in_place@PAU?$_Tree_node@U?$pair@$$CBV?$basic_string@DU?$char_traits@D@std@@V?$allocator@D@2@@std@@V?$weak_ptr@VRawImageData@@@2@@std@@PAX@std@@ABQAU12@@std@@YAXAAPAU?$_Tree_node@U?$pair@$$CBV?$basic_string@DU?$char_traits@D@std@@V?$allocator@D@2@@std@@V?$weak_ptr@VRawImageData@@@2@@std@@PAX@0@ABQAU10@@Z 00408db0 f i Boss.obj
 0001:00007e00       ??$_Construct_in_place@U_Container_proxy@std@@PAU_Container_base12@2@@std@@YAXAAU_Container_proxy@0@$$QAPAU_Container_base12@0@@Z 00408e00 f i Boss.obj
 0001:00007e50       ??$_Convert_size@I@std@@YAII@Z 00408e50 f i Boss.obj
 0001:00007e60       ??$_Copy_construct_from@VRawImageData@@@?$_Ptr_base@VRawImageData@@@std@@IAEXABV?$shared_ptr@VRawImageData@@@1@@Z 00408e60 f i Boss.obj
 0001:00007eb0       ??$_Copy_memmove@PAPAUPoint@Boss@@PAPAU12@@std@@YAPAPAUPoint@Boss@@PAPAU12@00@Z 00408eb0 f i Boss.obj
 0001:00007f00       ??$_Copy_unchecked@PAUPoint@Boss@@PAU12@@std@@YAPAUPoint@Boss@@PAU12@00@Z 00408f00 f i Boss.obj
 0001:00007f40       ??$_Deallocate@$07$0A@@std@@YAXPAXI@Z 00408f40 f i Boss.obj
 0001:00007fc0       ??$_Deallocate_plain@V?$allocator@U_Container_proxy@std@@@std@@@std@@YAXAAV?$allocator@U_Container_proxy@std@@@0@QAU_Container_proxy@0@@Z 00408fc0 f i Boss.obj
 0001:00008020       ??$_Debug_lt_pred@ABU?$less@V?$basic_string@DU?$char_traits@D@std@@V?$allocator@D@2@@std@@@std@@ABV?$basic_string@DU?$char_traits@D@std@@V?$allocator@D@2@@2@ABV32@$0A@@std@@YA_NABU?$less@V?$basic_string@DU?$char_traits@D@std@@V?$allocator@D@2@@std@@@0@ABV?$basic_string@DU?$char_traits@D@std@@V?$allocator@D@2@@0@1@Z 00409020 f i Boss.obj
 0001:000080d0       ??$_Delete_plain_internal@V?$allocator@U_Container_proxy@std@@@std@@@std@@YAXAAV?$allocator@U_Container_proxy@std@@@0@QAU_Container_proxy@0@@Z 004090d0 f i Boss.obj
 0001:000080f0       ??$_Destroy_in_place@PAD@std@@YAXAAPAD@Z 004090f0 f i Boss.obj
 0001:00008100       ??$_Destroy_in_place@PAU?$_Tree_node@U?$pair@$$CBV?$basic_string@DU?$char_traits@D@std@@V?$allocator@D@2@@std@@V?$shared_ptr@VRawImageData@@@2@@std@@PAX@std@@@std@@YAXAAPAU?$_Tree_node@U?$pair@$$CBV?$basic_string@DU?$char_traits@D@std@@V?$allocator@D@2@@std@@V?$shared_ptr@VRawImageData@@@2@@std@@PAX@0@@Z 00409100 f i Boss.obj
 0001:00008110       ??$_Destroy_in_place@PAU?$_Tree_node@U?$pair@$$CBV?$basic_string@DU?$char_traits@D@std@@V?$allocator@D@2@@std@@V?$weak_ptr@VRawImageData@@@2@@std@@PAX@std@@@std@@YAXAAPAU?$_Tree_node@U?$pair@$$CBV?$basic_string@DU?$char_traits@D@std@@V?$allocator@D@2@@std@@V?$weak_ptr@VRawImageData@@@2@@std@@PAX@0@@Z 00409110 f i Boss.obj
 0001:00008120       ??$_Destroy_in_place@PAUPoint@Boss@@@std@@YAXAAPAUPoint@Boss@@@Z 00409120 f i Boss.obj
 0001:00008130       ??$_Destroy_range@PAPAUPoint@Boss@@@std@@YAXPAPAUPoint@Boss@@QAPAU12@@Z 00409130 f i Boss.obj
 0001:00008140       ??$_Destroy_range@V?$allocator@UPoint@Boss@@@std@@@std@@YAXPAUPoint@Boss@@QAU12@AAV?$allocator@UPoint@Boss@@@0@@Z 00409140 f i Boss.obj
 0001:00008150       ??$_Emplace@U?$pair@V?$basic_string@DU?$char_traits@D@std@@V?$allocator@D@2@@std@@V?$shared_ptr@VRawImageData@@@2@@std@@@?$_Tree@V?$_Tmap_traits@V?$basic_string@DU?$char_traits@D@std@@V?$allocator@D@2@@std@@V?$shared_ptr@VRawImageData@@@2@U?$less@V?$basic_string@DU?$char_traits@D@std@@V?$allocator@D@2@@std@@@2@V?$allocator@U?$pair@$$CBV?$basic_string@DU?$char_traits@D@std@@V?$allocator@D@2@@std@@V?$shared_ptr@VRawImageData@@@2@@std@@@2@$0A@@std@@@std@@IAE?AU?$pair@PAU?$_Tree_node@U?$pair@$$CBV?$basic_string@DU?$char_traits@D@std@@V?$allocator@D@2@@std@@V?$shared_ptr@VRawImageData@@@2@@std@@PAX@std@@_N@1@$$QAU?$pair@V?$basic_string@DU?$char_traits@D@std@@V?$allocator@D@2@@std@@V?$shared_ptr@VRawImageData@@@2@@1@@Z 00409150 f i Boss.obj
 0001:00008280       ??$_Emplace@U?$pair@V?$basic_string@DU?$char_traits@D@std@@V?$allocator@D@2@@std@@V?$weak_ptr@VRawImageData@@@2@@std@@@?$_Tree@V?$_Tmap_traits@V?$basic_string@DU?$char_traits@D@std@@V?$allocator@D@2@@std@@V?$weak_ptr@VRawImageData@@@2@U?$less@V?$basic_string@DU?$char_traits@D@std@@V?$allocator@D@2@@std@@@2@V?$allocator@U?$pair@$$CBV?$basic_string@DU?$char_traits@D@std@@V?$allocator@D@2@@std@@V?$weak_ptr@VRawImageData@@@2@@std@@@2@$0A@@std@@@std@@IAE?AU?$pair@PAU?$_Tree_node@U?$pair@$$CBV?$basic_string@DU?$char_traits@D@std@@V?$allocator@D@2@@std@@V?$weak_ptr@VRawImageData@@@2@@std@@PAX@std@@_N@1@$$QAU?$pair@V?$basic_string@DU?$char_traits@D@std@@V?$allocator@D@2@@std@@V?$weak_ptr@VRawImageData@@@2@@1@@Z 00409280 f i Boss.obj
 0001:000083b0       ??$_Emplace_back@AAUPoint@Boss@@@?$_Uninitialized_backout_al@V?$allocator@UPoint@Boss@@@std@@@std@@QAEXAAUPoint@Boss@@@Z 004093b0 f i Boss.obj
 0001:00008410       ??$_Emplace_back@UPoint@Boss@@@?$_Uninitialized_backout_al@V?$allocator@UPoint@Boss@@@std@@@std@@QAEX$$QAUPoint@Boss@@@Z 00409410 f i Boss.obj
 0001:00008470       ??$_Emplace_back_internal@ABUPoint@Boss@@@?$deque@UPoint@Boss@@V?$allocator@UPoint@Boss@@@std@@@std@@AAEXABUPoint@Boss@@@Z 00409470 f i Boss.obj
 0001:00008600       ??$_Emplace_back_internal@UPoint@Boss@@@?$deque@UPoint@Boss@@V?$allocator@UPoint@Boss@@@std@@@std@@AAEX$$QAUPoint@Boss@@@Z 00409600 f i Boss.obj
 0001:00008790       ??$_Emplace_back_with_unused_capacity@ABUPoint@Boss@@@?$vector@UPoint@Boss@@V?$allocator@UPoint@Boss@@@std@@@std@@AAE@ABUPoint@Boss@@@Z 00409790 f i Boss.obj
 0001:00008830       ??$_Emplace_reallocate@ABUPoint@Boss@@@?$vector@UPoint@Boss@@V?$allocator@UPoint@Boss@@@std@@@std@@QAEPAUPoint@Boss@@QAU23@ABU23@@Z 00409830 f i Boss.obj
 0001:00008a80       ??$_Erase_head@V?$allocator@U?$_Tree_node@U?$pair@$$CBV?$basic_string@DU?$char_traits@D@std@@V?$allocator@D@2@@std@@V?$shared_ptr@VRawImageData@@@2@@std@@PAX@std@@@std@@@?$_Tree_val@U?$_Tree_simple_types@U?$pair@$$CBV?$basic_string@DU?$char_traits@D@std@@V?$allocator@D@2@@std@@V?$shared_ptr@VRawImageData@@@2@@std@@@std@@@std@@QAEXAAV?$allocator@U?$_Tree_node@U?$pair@$$CBV?$basic_string@DU?$char_traits@D@std@@V?$allocator@D@2@@std@@V?$shared_ptr@VRawImageData@@@2@@std@@PAX@std@@@1@@Z 00409a80 f i Boss.obj
 0001:00008ad0       ??$_Erase_head@V?$allocator@U?$_Tree_node@U?$pair@$$CBV?$basic_string@DU?$char_traits@D@std@@V?$allocator@D@2@@std@@V?$weak_ptr@VRawImageData@@@2@@std@@PAX@std@@@std@@@?$_Tree_val@U?$_Tree_simple_types@U?$pair@$$CBV?$basic_string@DU?$char_traits@D@std@@V?$allocator@D@2@@std@@V?$weak_ptr@VRawImageData@@@2@@std@@@std@@@std@@QAEXAAV?$allocator@U?$_Tree_node@U?$pair@$$CBV?$basic_string@DU?$char_traits@D@std@@V?$allocator@D@2@@std@@V?$weak_ptr@VRawImageData@@@2@@std@@PAX@std@@@1@@Z 00409ad0 f i Boss.obj
 0001:00008b20       ??$_Erase_tree@V?$allocator@U?$_Tree_node@U?$pair@$$CBV?$basic_string@DU?$char_traits@D@std@@V?$allocator@D@2@@std@@V?$shared_ptr@VRawImageData@@@2@@std@@PAX@std@@@std@@@?$_Tree_val@U?$_Tree_simple_types@U?$pair@$$CBV?$basic_string@DU?$char_traits@D@std@@V?$allocator@D@2@@std@@V?$shared_ptr@VRawImageData@@@2@@std@@@std@@@std@@QAEXAAV?$allocator@U?$_Tree_node@U?$pair@$$CBV?$basic_string@DU?$char_traits@D@std@@V?$allocator@D@2@@std@@V?$shared_ptr@VRawImageData@@@2@@std@@PAX@std@@@1@PAU?$_Tree_node@U?$pair@$$CBV?$basic_string@DU?$char_traits@D@std@@V?$allocator@D@2@@std@@V?$shared_ptr@VRawImageData@@@2@@std@@PAX@1@@Z 00409b20 f i Boss.obj
 0001:00008b80       ??$_Erase_tree@V?$allocator@U?$_Tree_node@U?$pair@$$CBV?$basic_string@DU?$char_traits@D@std@@V?$allocator@D@2@@std@@V?$weak_ptr@VRawImageData@@@2@@std@@PAX@std@@@std@@@?$_Tree_val@U?$_Tree_simple_types@U?$pair@$$CBV?$basic_string@DU?$char_traits@D@std@@V?$allocator@D@2@@std@@V?$weak_ptr@VRawImageData@@@2@@std@@@std@@@std@@QAEXAAV?$allocator@U?$_Tree_node@U?$pair@$$CBV?$basic_string@DU?$char_traits@D@std@@V?$allocator@D@2@@std@@V?$weak_ptr@VRawImageData@@@2@@std@@PAX@std@@@1@PAU?$_Tree_node@U?$pair@$$CBV?$basic_string@DU?$char_traits@D@std@@V?$allocator@D@2@@std@@V?$weak_ptr@VRawImageData@@@2@@std@@PAX@1@@Z 00409b80 f i Boss.obj
 0001:00008be0       ??$_Find@V?$basic_string@DU?$char_traits@D@std@@V?$allocator@D@2@@std@@@?$_Tree@V?$_Tmap_traits@V?$basic_string@DU?$char_traits@D@std@@V?$allocator@D@2@@std@@V?$weak_ptr@VRawImageData@@@2@U?$less@V?$basic_string@DU?$char_traits@D@std@@V?$allocator@D@2@@std@@@2@V?$allocator@U?$pair@$$CBV?$basic_string@DU?$char_traits@D@std@@V?$allocator@D@2@@std@@V?$weak_ptr@VRawImageData@@@2@@std@@@2@$0A@@std@@@std@@ABEPAU?$_Tree_node@U?$pair@$$CBV?$basic_string@DU?$char_traits@D@std@@V?$allocator@D@2@@std@@V?$weak_ptr@VRawImageData@@@2@@std@@PAX@1@ABV?$basic_string@DU?$char_traits@D@std@@V?$allocator@D@2@@1@@Z 00409be0 f i Boss.obj
 0001:00008c40       ??$_Find_lower_bound@V?$basic_string@DU?$char_traits@D@std@@V?$allocator@D@2@@std@@@?$_Tree@V?$_Tmap_traits@V?$basic_string@DU?$char_traits@D@std@@V?$allocator@D@2@@std@@V?$shared_ptr@VRawImageData@@@2@U?$less@V?$basic_string@DU?$char_traits@D@std@@V?$allocator@D@2@@std@@@2@V?$allocator@U?$pair@$$CBV?$basic_string@DU?$char_traits@D@std@@V?$allocator@D@2@@std@@V?$shared_ptr@VRawImageData@@@2@@std@@@2@$0A@@std@@@std@@IBE?AU?$_Tree_find_result@PAU?$_Tree_node@U?$pair@$$CBV?$basic_string@DU?$char_traits@D@std@@V?$allocator@D@2@@std@@V?$shared_ptr@VRawImageData@@@2@@std@@PAX@std@@@1@ABV?$basic_string@DU?$char_traits@D@std@@V?$allocator@D@2@@1@@Z 00409c40 f i Boss.obj
 0001:00008d30       ??$_Find_lower_bound@V?$basic_string@DU?$char_traits@D@std@@V?$allocator@D@2@@std@@@?$_Tree@V?$_Tmap_traits@V?$basic_string@DU?$char_traits@D@std@@V?$allocator@D@2@@std@@V?$weak_ptr@VRawImageData@@@2@U?$less@V?$basic_string@DU?$char_traits@D@std@@V?$allocator@D@2@@std@@@2@V?$allocator@U?$pair@$$CBV?$basic_string@DU?$char_traits@D@std@@V?$allocator@D@2@@std@@V?$weak_ptr@VRawImageData@@@2@@std@@@2@$0A@@std@@@std@@IBE?AU?$_Tree_find_result@PAU?$_Tree_node@U?$pair@$$CBV?$basic_string@DU?$char_traits@D@std@@V?$allocator@D@2@@std@@V?$weak_ptr@VRawImageData@@@2@@std@@PAX@std@@@1@ABV?$basic_string@DU?$char_traits@D@std@@V?$allocator@D@2@@1@@Z 00409d30 f i Boss.obj
 0001:00008e20       ??$_Freenode0@V?$allocator@U?$_Tree_node@U?$pair@$$CBV?$basic_string@DU?$char_traits@D@std@@V?$allocator@D@2@@std@@V?$shared_ptr@VRawImageData@@@2@@std@@PAX@std@@@std@@@?$_Tree_node@U?$pair@$$CBV?$basic_string@DU?$char_traits@D@std@@V?$allocator@D@2@@std@@V?$shared_ptr@VRawImageData@@@2@@std@@PAX@std@@SAXAAV?$allocator@U?$_Tree_node@U?$pair@$$CBV?$basic_string@DU?$char_traits@D@std@@V?$allocator@D@2@@std@@V?$shared_ptr@VRawImageData@@@2@@std@@PAX@std@@@1@PAU01@@Z 00409e20 f i Boss.obj
 0001:00008eb0       ??$_Freenode0@V?$allocator@U?$_Tree_node@U?$pair@$$CBV?$basic_string@DU?$char_traits@D@std@@V?$allocator@D@2@@std@@V?$weak_ptr@VRawImageData@@@2@@std@@PAX@std@@@std@@@?$_Tree_node@U?$pair@$$CBV?$basic_string@DU?$char_traits@D@std@@V?$allocator@D@2@@std@@V?$weak_ptr@VRawImageData@@@2@@std@@PAX@std@@SAXAAV?$allocator@U?$_Tree_node@U?$pair@$$CBV?$basic_string@DU?$char_traits@D@std@@V?$allocator@D@2@@std@@V?$weak_ptr@VRawImageData@@@2@@std@@PAX@std@@@1@PAU01@@Z 00409eb0 f i Boss.obj
 0001:00008f40       ??$_Freenode@V?$allocator@U?$_Tree_node@U?$pair@$$CBV?$basic_string@DU?$char_traits@D@std@@V?$allocator@D@2@@std@@V?$shared_ptr@VRawImageData@@@2@@std@@PAX@std@@@std@@@?$_Tree_node@U?$pair@$$CBV?$basic_string@DU?$char_traits@D@std@@V?$allocator@D@2@@std@@V?$shared_ptr@VRawImageData@@@2@@std@@PAX@std@@SAXAAV?$allocator@U?$_Tree_node@U?$pair@$$CBV?$basic_string@DU?$char_traits@D@std@@V?$allocator@D@2@@std@@V?$shared_ptr@VRawImageData@@@2@@std@@PAX@std@@@1@PAU01@@Z 00409f40 f i Boss.obj
 0001:00008fc0       ??$_Freenode@V?$allocator@U?$_Tree_node@U?$pair@$$CBV?$basic_string@DU?$char_traits@D@std@@V?$allocator@D@2@@std@@V?$weak_ptr@VRawImageData@@@2@@std@@PAX@std@@@std@@@?$_Tree_node@U?$pair@$$CBV?$basic_string@DU?$char_traits@D@std@@V?$allocator@D@2@@std@@V?$weak_ptr@VRawImageData@@@2@@std@@PAX@std@@SAXAAV?$allocator@U?$_Tree_node@U?$pair@$$CBV?$basic_string@DU?$char_traits@D@std@@V?$allocator@D@2@@std@@V?$weak_ptr@VRawImageData@@@2@@std@@PAX@std@@@1@PAU01@@Z 00409fc0 f i Boss.obj
 0001:00009040       ??$_Get_size_of_n@$00@std@@YAII@Z 0040a040 f i Boss.obj
 0001:00009060       ??$_Get_size_of_n@$03@std@@YAII@Z 0040a060 f i Boss.obj
 0001:000090a0       ??$_Get_size_of_n@$07@std@@YAII@Z 0040a0a0 f i Boss.obj
 0001:000090e0       ??$_Get_size_of_n@$0DE@@std@@YAII@Z 0040a0e0 f i Boss.obj
 0001:00009110       ??$_Get_unwrapped@AAPAUPoint@Boss@@@std@@YA@AAPAUPoint@Boss@@@Z 0040a110 f i Boss.obj
 0001:00009120       ??$_Get_unwrapped@ABQAPAUPoint@Boss@@@std@@YA@ABQAPAUPoint@Boss@@@Z 0040a120 f i Boss.obj
 0001:00009130       ??$_Get_unwrapped@ABQAUPoint@Boss@@@std@@YA@ABQAUPoint@Boss@@@Z 0040a130 f i Boss.obj
 0001:00009140       ??$_Get_unwrapped_n@AAPAPAUPoint@Boss@@H@std@@YA@AAPAPAUPoint@Boss@@H@Z 0040a140 f i Boss.obj
 0001:00009150       ??$_Idl_distance@PAPAUPoint@Boss@@PAPAU12@@std@@YA@ABQAPAUPoint@Boss@@0@Z 0040a150 f i Boss.obj
 0001:00009170       ??$_Insert_string@DU?$char_traits@D@std@@I@std@@YAAAV?$basic_ostream@DU?$char_traits@D@std@@@0@AAV10@QBDI@Z 0040a170 f i Boss.obj
 0001:000094f0       ??$_Kfn@$$CBV?$basic_string@DU?$char_traits@D@std@@V?$allocator@D@2@@std@@V?$shared_ptr@VRawImageData@@@2@@?$_Tmap_traits@V?$basic_string@DU?$char_traits@D@std@@V?$allocator@D@2@@std@@V?$shared_ptr@VRawImageData@@@2@U?$less@V?$basic_string@DU?$char_traits@D@std@@V?$allocator@D@2@@std@@@2@V?$allocator@U?$pair@$$CBV?$basic_string@DU?$char_traits@D@std@@V?$allocator@D@2@@std@@V?$shared_ptr@VRawImageData@@@2@@std@@@2@$0A@@std@@SAABV?$basic_string@DU?$char_traits@D@std@@V?$allocator@D@2@@1@ABU?$pair@$$CBV?$basic_string@DU?$char_traits@D@std@@V?$allocator@D@2@@std@@V?$shared_ptr@VRawImageData@@@2@@1@@Z 0040a4f0 f i Boss.obj
 0001:00009500       ??$_Kfn@$$CBV?$basic_string@DU?$char_traits@D@std@@V?$allocator@D@2@@std@@V?$weak_ptr@VRawImageData@@@2@@?$_Tmap_traits@V?$basic_string@DU?$char_traits@D@std@@V?$allocator@D@2@@std@@V?$weak_ptr@VRawImageData@@@2@U?$less@V?$basic_string@DU?$char_traits@D@std@@V?$allocator@D@2@@std@@@2@V?$allocator@U?$pair@$$CBV?$basic_string@DU?$char_traits@D@std@@V?$allocator@D@2@@std@@V?$weak_ptr@VRawImageData@@@2@@std@@@2@$0A@@std@@SAABV?$basic_string@DU?$char_traits@D@std@@V?$allocator@D@2@@1@ABU?$pair@$$CBV?$basic_string@DU?$char_traits@D@std@@V?$allocator@D@2@@std@@V?$weak_ptr@VRawImageData@@@2@@1@@Z 0040a500 f i Boss.obj
 0001:00009510       ??$_Lower_bound_duplicate@V?$basic_string@DU?$char_traits@D@std@@V?$allocator@D@2@@std@@@?$_Tree@V?$_Tmap_traits@V?$basic_string@DU?$char_traits@D@std@@V?$allocator@D@2@@std@@V?$shared_ptr@VRawImageData@@@2@U?$less@V?$basic_string@DU?$char_traits@D@std@@V?$allocator@D@2@@std@@@2@V?$allocator@U?$pair@$$CBV?$basic_string@DU?$char_traits@D@std@@V?$allocator@D@2@@std@@V?$shared_ptr@VRawImageData@@@2@@std@@@2@$0A@@std@@@std@@IBE_NQAU?$_Tree_node@U?$pair@$$CBV?$basic_string@DU?$char_traits@D@std@@V?$allocator@D@2@@std@@V?$shared_ptr@VRawImageData@@@2@@std@@PAX@1@ABV?$basic_string@DU?$char_traits@D@std@@V?$allocator@D@2@@1@@Z 0040a510 f i Boss.obj
 0001:00009580       ??$_Lower_bound_duplicate@V?$basic_string@DU?$char_traits@D@std@@V?$allocator@D@2@@std@@@?$_Tree@V?$_Tmap_traits@V?$basic_string@DU?$char_traits@D@std@@V?$allocator@D@2@@std@@V?$weak_ptr@VRawImageData@@@2@U?$less@V?$basic_string@DU?$char_traits@D@std@@V?$allocator@D@2@@std@@@2@V?$allocator@U?$pair@$$CBV?$basic_string@DU?$char_traits@D@std@@V?$allocator@D@2@@std@@V?$weak_ptr@VRawImageData@@@2@@std@@@2@$0A@@std@@@std@@IBE_NQAU?$_Tree_node@U?$pair@$$CBV?$basic_string@DU?$char_traits@D@std@@V?$allocator@D@2@@std@@V?$weak_ptr@VRawImageData@@@2@@std@@PAX@1@ABV?$basic_string@DU?$char_traits@D@std@@V?$allocator@D@2@@1@@Z 0040a580 f i Boss.obj
 0001:000095f0       ??$_Max_value@I@std@@YAABIABI0@Z 0040a5f0 f i Boss.obj
 0001:00009630       ??$_Min_value@I@std@@YAABIABI0@Z 0040a630 f i Boss.obj
 0001:00009670       ??$_Move_construct_from@VRawImageData@@@?$_Ptr_base@VRawImageData@@@std@@IAEX$$QAV01@@Z 0040a670 f i Boss.obj
 0001:000096c0       ??$_Pocca@V?$allocator@UPoint@Boss@@@std@@@std@@YAXAAV?$allocator@UPoint@Boss@@@0@ABV10@@Z 0040a6c0 f i Boss.obj
 0001:000096d0       ??$_Reallocate_for@V<lambda_9366063389c5f42a00a5088cf24e69de>@@PBD@?$basic_string@DU?$char_traits@D@std@@V?$allocator@D@2@@std@@AAEAAV01@IV<lambda_9366063389c5f42a00a5088cf24e69de>@@PBD@Z 0040a6d0 f i Boss.obj
 0001:000097d0       ??$_Seek_wrapped@PAPAUPoint@Boss@@AAPAPAU12@@std@@YAXAAPAPAUPoint@Boss@@0@Z 0040a7d0 f i Boss.obj
 0001:000097f0       ??$_Set_ptr_rep_and_enable_shared@VRawImageData@@@?$shared_ptr@VRawImageData@@@std@@AAEXQAVRawImageData@@QAV_Ref_count_base@1@@Z 0040a7f0 f i Boss.obj
 0001:00009820       ??$_Traits_compare@U?$char_traits@D@std@@@std@@YAHQBDI0I@Z 0040a820 f i Boss.obj
 0001:00009890       ??$_Ucopy@PAUPoint@Boss@@@?$vector@UPoint@Boss@@V?$allocator@UPoint@Boss@@@std@@@std@@AAEPAUPoint@Boss@@PAU23@00@Z 0040a890 f i Boss.obj
 0001:000098d0       ??$_Unfancy@D@std@@YAPADPAD@Z 0040a8d0 f i Boss.obj
 0001:000098e0       ??$_Unfancy@UPoint@Boss@@@std@@YAPAUPoint@Boss@@PAU12@@Z 0040a8e0 f i Boss.obj
 0001:000098f0       ??$_Unfancy@U_Container_proxy@std@@@std@@YAPAU_Container_proxy@0@PAU10@@Z 0040a8f0 f i Boss.obj
 0001:00009900       ??$_Uninitialized_copy@PAUPoint@Boss@@V?$allocator@UPoint@Boss@@@std@@@std@@YAPAUPoint@Boss@@QAU12@0PAU12@AAV?$allocator@UPoint@Boss@@@0@@Z 0040a900 f i Boss.obj
 0001:000099d0       ??$_Uninitialized_move@PAUPoint@Boss@@V?$allocator@UPoint@Boss@@@std@@@std@@YAPAUPoint@Boss@@QAU12@0PAU12@AAV?$allocator@UPoint@Boss@@@0@@Z 0040a9d0 f i Boss.obj
 0001:00009ab0       ??$_Uninitialized_value_construct_n_unchecked1@PAPAUPoint@Boss@@I@std@@YAPAPAUPoint@Boss@@PAPAU12@I@Z 0040aab0 f i Boss.obj
 0001:00009ae0       ??$_Verify_range@PAUPoint@Boss@@@std@@YAXQBQAUPoint@Boss@@0@Z 0040aae0 f i Boss.obj
 0001:00009b60       ??$_Verify_range@UPoint@Boss@@@std@@YAXQBUPoint@Boss@@0@Z 0040ab60 f i Boss.obj
 0001:00009be0       ??$_Weakly_construct_from@VRawImageData@@@?$_Ptr_base@VRawImageData@@@std@@IAEXABV01@@Z 0040abe0 f i Boss.obj
 0001:00009c30       ??$_Zero_range@PAPAUPoint@Boss@@@std@@YAPAPAUPoint@Boss@@QAPAU12@0@Z 0040ac30 f i Boss.obj
 0001:00009c70       ??$addressof@$$CBV?$_String_val@U?$_Simple_types@D@std@@@std@@@std@@YAPBV?$_String_val@U?$_Simple_types@D@std@@@0@ABV10@@Z 0040ac70 f i Boss.obj
 0001:00009c80       ??$addressof@$$CBV?$_Tree_val@U?$_Tree_simple_types@U?$pair@$$CBV?$basic_string@DU?$char_traits@D@std@@V?$allocator@D@2@@std@@V?$shared_ptr@VRawImageData@@@2@@std@@@std@@@std@@@std@@YAPBV?$_Tree_val@U?$_Tree_simple_types@U?$pair@$$CBV?$basic_string@DU?$char_traits@D@std@@V?$allocator@D@2@@std@@V?$shared_ptr@VRawImageData@@@2@@std@@@std@@@0@ABV10@@Z 0040ac80 f i Boss.obj
 0001:00009c90       ??$addressof@$$CBV?$_Tree_val@U?$_Tree_simple_types@U?$pair@$$CBV?$basic_string@DU?$char_traits@D@std@@V?$allocator@D@2@@std@@V?$weak_ptr@VRawImageData@@@2@@std@@@std@@@std@@@std@@YAPBV?$_Tree_val@U?$_Tree_simple_types@U?$pair@$$CBV?$basic_string@DU?$char_traits@D@std@@V?$allocator@D@2@@std@@V?$weak_ptr@VRawImageData@@@2@@std@@@std@@@0@ABV10@@Z 0040ac90 f i Boss.obj
 0001:00009ca0       ??$addressof@$$CBV?$vector@UPoint@Boss@@V?$allocator@UPoint@Boss@@@std@@@std@@@std@@YAPBV?$vector@UPoint@Boss@@V?$allocator@UPoint@Boss@@@std@@@0@ABV10@@Z 0040aca0 f i Boss.obj
 0001:00009cb0       ??$addressof@PAD@std@@YAPAPADAAPAD@Z 0040acb0 f i Boss.obj
 0001:00009cc0       ??$addressof@PAU?$_Tree_node@U?$pair@$$CBV?$basic_string@DU?$char_traits@D@std@@V?$allocator@D@2@@std@@V?$shared_ptr@VRawImageData@@@2@@std@@PAX@std@@@std@@YAPAPAU?$_Tree_node@U?$pair@$$CBV?$basic_string@DU?$char_traits@D@std@@V?$allocator@D@2@@std@@V?$shared_ptr@VRawImageData@@@2@@std@@PAX@0@AAPAU10@@Z 0040acc0 f i Boss.obj
 0001:00009cd0       ??$addressof@PAU?$_Tree_node@U?$pair@$$CBV?$basic_string@DU?$char_traits@D@std@@V?$allocator@D@2@@std@@V?$weak_ptr@VRawImageData@@@2@@std@@PAX@std@@@std@@YAPAPAU?$_Tree_node@U?$pair@$$CBV?$basic_string@DU?$char_traits@D@std@@V?$allocator@D@2@@std@@V?$weak_ptr@VRawImageData@@@2@@std@@PAX@0@AAPAU10@@Z 0040acd0 f i Boss.obj
 0001:00009ce0       ??$addressof@U?$pair@$$CBV?$basic_string@DU?$char_traits@D@std@@V?$allocator@D@2@@std@@V?$shared_ptr@VRawImageData@@@2@@std@@@std@@YAPAU?$pair@$$CBV?$basic_string@DU?$char_traits@D@std@@V?$allocator@D@2@@std@@V?$shared_ptr@VRawImageData@@@2@@0@AAU10@@Z 0040ace0 f i Boss.obj
 0001:00009cf0       ??$addressof@U?$pair@$$CBV?$basic_string@DU?$char_traits@D@std@@V?$allocator@D@2@@std@@V?$weak_ptr@VRawImageData@@@2@@std@@@std@@YAPAU?$pair@$$CBV?$basic_string@DU?$char_traits@D@std@@V?$allocator@D@2@@std@@V?$weak_ptr@VRawImageData@@@2@@0@AAU10@@Z 0040acf0 f i Boss.obj
 0001:00009d00       ??$addressof@U_Container_base12@std@@@std@@YAPAU_Container_base12@0@AAU10@@Z 0040ad00 f i Boss.obj
 0001:00009d10       ??$addressof@U_Container_proxy@std@@@std@@YAPAU_Container_proxy@0@AAU10@@Z 0040ad10 f i Boss.obj
 0001:00009d20       ??$addressof@V?$_Deque_val@U?$_Deque_simple_types@UPoint@Boss@@@std@@@std@@@std@@YAPAV?$_Deque_val@U?$_Deque_simple_types@UPoint@Boss@@@std@@@0@AAV10@@Z 0040ad20 f i Boss.obj
 0001:00009d30       ??$addressof@V?$_String_val@U?$_Simple_types@D@std@@@std@@@std@@YAPAV?$_String_val@U?$_Simple_types@D@std@@@0@AAV10@@Z 0040ad30 f i Boss.obj
 0001:00009d40       ??$addressof@V?$_Tree_val@U?$_Tree_simple_types@U?$pair@$$CBV?$basic_string@DU?$char_traits@D@std@@V?$allocator@D@2@@std@@V?$shared_ptr@VRawImageData@@@2@@std@@@std@@@std@@@std@@YAPAV?$_Tree_val@U?$_Tree_simple_types@U?$pair@$$CBV?$basic_string@DU?$char_traits@D@std@@V?$allocator@D@2@@std@@V?$shared_ptr@VRawImageData@@@2@@std@@@std@@@0@AAV10@@Z 0040ad40 f i Boss.obj
 0001:00009d50       ??$addressof@V?$_Tree_val@U?$_Tree_simple_types@U?$pair@$$CBV?$basic_string@DU?$char_traits@D@std@@V?$allocator@D@2@@std@@V?$weak_ptr@VRawImageData@@@2@@std@@@std@@@std@@@std@@YAPAV?$_Tree_val@U?$_Tree_simple_types@U?$pair@$$CBV?$basic_string@DU?$char_traits@D@std@@V?$allocator@D@2@@std@@V?$weak_ptr@VRawImageData@@@2@@std@@@std@@@0@AAV10@@Z 0040ad50 f i Boss.obj
 0001:00009d60       ??$advance@PAUPoint@Boss@@H@std@@YAXAAPAUPoint@Boss@@H@Z 0040ad60 f i Boss.obj
 0001:00009d80       ??$assign@PAUPoint@Boss@@$0A@@?$vector@UPoint@Boss@@V?$allocator@UPoint@Boss@@@std@@@std@@QAEXPAUPoint@Boss@@0@Z 0040ad80 f i Boss.obj
 0001:00009de0       ??$construct@U?$pair@$$CBV?$basic_string@DU?$char_traits@D@std@@V?$allocator@D@2@@std@@V?$shared_ptr@VRawImageData@@@2@@std@@U?$pair@V?$basic_string@DU?$char_traits@D@std@@V?$allocator@D@2@@std@@V?$shared_ptr@VRawImageData@@@2@@2@@?$_Default_allocator_traits@V?$allocator@U?$_Tree_node@U?$pair@$$CBV?$basic_string@DU?$char_traits@D@std@@V?$allocator@D@2@@std@@V?$shared_ptr@VRawImageData@@@2@@std@@PAX@std@@@std@@@std@@SAXAAV?$allocator@U?$_Tree_node@U?$pair@$$CBV?$basic_string@DU?$char_traits@D@std@@V?$allocator@D@2@@std@@V?$shared_ptr@VRawImageData@@@2@@std@@PAX@std@@@1@QAU?$pair@$$CBV?$basic_string@DU?$char_traits@D@std@@V?$allocator@D@2@@std@@V?$shared_ptr@VRawImageData@@@2@@1@$$QAU?$pair@V?$basic_string@DU?$char_traits@D@std@@V?$allocator@D@2@@std@@V?$shared_ptr@VRawImageData@@@2@@1@@Z 0040ade0 f i Boss.obj
 0001:00009e20       ??$construct@U?$pair@$$CBV?$basic_string@DU?$char_traits@D@std@@V?$allocator@D@2@@std@@V?$weak_ptr@VRawImageData@@@2@@std@@U?$pair@V?$basic_string@DU?$char_traits@D@std@@V?$allocator@D@2@@std@@V?$weak_ptr@VRawImageData@@@2@@2@@?$_Default_allocator_traits@V?$allocator@U?$_Tree_node@U?$pair@$$CBV?$basic_string@DU?$char_traits@D@std@@V?$allocator@D@2@@std@@V?$weak_ptr@VRawImageData@@@2@@std@@PAX@std@@@std@@@std@@SAXAAV?$allocator@U?$_Tree_node@U?$pair@$$CBV?$basic_string@DU?$char_traits@D@std@@V?$allocator@D@2@@std@@V?$weak_ptr@VRawImageData@@@2@@std@@PAX@std@@@1@QAU?$pair@$$CBV?$basic_string@DU?$char_traits@D@std@@V?$allocator@D@2@@std@@V?$weak_ptr@VRawImageData@@@2@@1@$$QAU?$pair@V?$basic_string@DU?$char_traits@D@std@@V?$allocator@D@2@@std@@V?$weak_ptr@VRawImageData@@@2@@1@@Z 0040ae20 f i Boss.obj
 0001:00009e60       ??$construct@UPoint@Boss@@AAU12@@?$_Default_allocator_traits@V?$allocator@UPoint@Boss@@@std@@@std@@SAXAAV?$allocator@UPoint@Boss@@@1@QAUPoint@Boss@@AAU34@@Z 0040ae60 f i Boss.obj
 0001:00009ea0       ??$construct@UPoint@Boss@@ABU12@@?$_Default_allocator_traits@V?$allocator@UPoint@Boss@@@std@@@std@@SAXAAV?$allocator@UPoint@Boss@@@1@QAUPoint@Boss@@ABU34@@Z 0040aea0 f i Boss.obj
 0001:00009ee0       ??$construct@UPoint@Boss@@U12@@?$_Default_allocator_traits@V?$allocator@UPoint@Boss@@@std@@@std@@SAXAAV?$allocator@UPoint@Boss@@@1@QAUPoint@Boss@@$$QAU34@@Z 0040aee0 f i Boss.obj
 0001:00009f20       ??$destroy@U?$pair@$$CBV?$basic_string@DU?$char_traits@D@std@@V?$allocator@D@2@@std@@V?$shared_ptr@VRawImageData@@@2@@std@@@?$_Default_allocator_traits@V?$allocator@U?$_Tree_node@U?$pair@$$CBV?$basic_string@DU?$char_traits@D@std@@V?$allocator@D@2@@std@@V?$shared_ptr@VRawImageData@@@2@@std@@PAX@std@@@std@@@std@@SAXAAV?$allocator@U?$_Tree_node@U?$pair@$$CBV?$basic_string@DU?$char_traits@D@std@@V?$allocator@D@2@@std@@V?$shared_ptr@VRawImageData@@@2@@std@@PAX@std@@@1@QAU?$pair@$$CBV?$basic_string@DU?$char_traits@D@std@@V?$allocator@D@2@@std@@V?$shared_ptr@VRawImageData@@@2@@1@@Z 0040af20 f i Boss.obj
 0001:00009f40       ??$destroy@U?$pair@$$CBV?$basic_string@DU?$char_traits@D@std@@V?$allocator@D@2@@std@@V?$weak_ptr@VRawImageData@@@2@@std@@@?$_Default_allocator_traits@V?$allocator@U?$_Tree_node@U?$pair@$$CBV?$basic_string@DU?$char_traits@D@std@@V?$allocator@D@2@@std@@V?$weak_ptr@VRawImageData@@@2@@std@@PAX@std@@@std@@@std@@SAXAAV?$allocator@U?$_Tree_node@U?$pair@$$CBV?$basic_string@DU?$char_traits@D@std@@V?$allocator@D@2@@std@@V?$weak_ptr@VRawImageData@@@2@@std@@PAX@std@@@1@QAU?$pair@$$CBV?$basic_string@DU?$char_traits@D@std@@V?$allocator@D@2@@std@@V?$weak_ptr@VRawImageData@@@2@@1@@Z 0040af40 f i Boss.obj
 0001:00009f60       ??$destroy@UPoint@Boss@@@?$_Default_allocator_traits@V?$allocator@UPoint@Boss@@@std@@@std@@SAXAAV?$allocator@UPoint@Boss@@@1@QAUPoint@Boss@@@Z 0040af60 f i Boss.obj
 0001:00009f70       ??$distance@PAUPoint@Boss@@@std@@YAHPAUPoint@Boss@@0@Z 0040af70 f i Boss.obj
 0001:00009f90       ??$emplace@U?$pair@V?$basic_string@DU?$char_traits@D@std@@V?$allocator@D@2@@std@@V?$shared_ptr@VRawImageData@@@2@@std@@@?$_Tree@V?$_Tmap_traits@V?$basic_string@DU?$char_traits@D@std@@V?$allocator@D@2@@std@@V?$shared_ptr@VRawImageData@@@2@U?$less@V?$basic_string@DU?$char_traits@D@std@@V?$allocator@D@2@@std@@@2@V?$allocator@U?$pair@$$CBV?$basic_string@DU?$char_traits@D@std@@V?$allocator@D@2@@std@@V?$shared_ptr@VRawImageData@@@2@@std@@@2@$0A@@std@@@std@@QAE?AU?$pair@V?$_Tree_iterator@V?$_Tree_val@U?$_Tree_simple_types@U?$pair@$$CBV?$basic_string@DU?$char_traits@D@std@@V?$allocator@D@2@@std@@V?$shared_ptr@VRawImageData@@@2@@std@@@std@@@std@@@std@@_N@1@$$QAU?$pair@V?$basic_string@DU?$char_traits@D@std@@V?$allocator@D@2@@std@@V?$shared_ptr@VRawImageData@@@2@@1@@Z 0040af90 f i Boss.obj
 0001:0000a020       ??$emplace@U?$pair@V?$basic_string@DU?$char_traits@D@std@@V?$allocator@D@2@@std@@V?$weak_ptr@VRawImageData@@@2@@std@@@?$_Tree@V?$_Tmap_traits@V?$basic_string@DU?$char_traits@D@std@@V?$allocator@D@2@@std@@V?$weak_ptr@VRawImageData@@@2@U?$less@V?$basic_string@DU?$char_traits@D@std@@V?$allocator@D@2@@std@@@2@V?$allocator@U?$pair@$$CBV?$basic_string@DU?$char_traits@D@std@@V?$allocator@D@2@@std@@V?$weak_ptr@VRawImageData@@@2@@std@@@2@$0A@@std@@@std@@QAE?AU?$pair@V?$_Tree_iterator@V?$_Tree_val@U?$_Tree_simple_types@U?$pair@$$CBV?$basic_string@DU?$char_traits@D@std@@V?$allocator@D@2@@std@@V?$weak_ptr@VRawImageData@@@2@@std@@@std@@@std@@@std@@_N@1@$$QAU?$pair@V?$basic_string@DU?$char_traits@D@std@@V?$allocator@D@2@@std@@V?$weak_ptr@VRawImageData@@@2@@1@@Z 0040b020 f i Boss.obj
 0001:0000a0b0       ??$emplace_back@ABUPoint@Boss@@@?$vector@UPoint@Boss@@V?$allocator@UPoint@Boss@@@std@@@std@@QAE@ABUPoint@Boss@@@Z 0040b0b0 f i Boss.obj
 0001:0000a130       ??$endl@DU?$char_traits@D@std@@@std@@YAAAV?$basic_ostream@DU?$char_traits@D@std@@@0@AAV10@@Z 0040b130 f i Boss.obj
 0001:0000a170       ??$erase@V?$_Tree_iterator@V?$_Tree_val@U?$_Tree_simple_types@U?$pair@$$CBV?$basic_string@DU?$char_traits@D@std@@V?$allocator@D@2@@std@@V?$weak_ptr@VRawImageData@@@2@@std@@@std@@@std@@@std@@$0A@@?$_Tree@V?$_Tmap_traits@V?$basic_string@DU?$char_traits@D@std@@V?$allocator@D@2@@std@@V?$weak_ptr@VRawImageData@@@2@U?$less@V?$basic_string@DU?$char_traits@D@std@@V?$allocator@D@2@@std@@@2@V?$allocator@U?$pair@$$CBV?$basic_string@DU?$char_traits@D@std@@V?$allocator@D@2@@std@@V?$weak_ptr@VRawImageData@@@2@@std@@@2@$0A@@std@@@std@@QAE?AV?$_Tree_iterator@V?$_Tree_val@U?$_Tree_simple_types@U?$pair@$$CBV?$basic_string@DU?$char_traits@D@std@@V?$allocator@D@2@@std@@V?$weak_ptr@VRawImageData@@@2@@std@@@std@@@std@@@1@V21@@Z 0040b170 f i Boss.obj
 0001:0000a300       ??$exchange@PAU?$_Tree_node@U?$pair@$$CBV?$basic_string@DU?$char_traits@D@std@@V?$allocator@D@2@@std@@V?$shared_ptr@VRawImageData@@@2@@std@@PAX@std@@$$T@std@@YAPAU?$_Tree_node@U?$pair@$$CBV?$basic_string@DU?$char_traits@D@std@@V?$allocator@D@2@@std@@V?$shared_ptr@VRawImageData@@@2@@std@@PAX@0@AAPAU10@$$QA$$T@Z 0040b300 f i Boss.obj
 0001:0000a330       ??$exchange@PAU?$_Tree_node@U?$pair@$$CBV?$basic_string@DU?$char_traits@D@std@@V?$allocator@D@2@@std@@V?$shared_ptr@VRawImageData@@@2@@std@@PAX@std@@AAPAU12@@std@@YAPAU?$_Tree_node@U?$pair@$$CBV?$basic_string@DU?$char_traits@D@std@@V?$allocator@D@2@@std@@V?$shared_ptr@VRawImageData@@@2@@std@@PAX@0@AAPAU10@0@Z 0040b330 f i Boss.obj
 0001:0000a360       ??$exchange@PAU?$_Tree_node@U?$pair@$$CBV?$basic_string@DU?$char_traits@D@std@@V?$allocator@D@2@@std@@V?$weak_ptr@VRawImageData@@@2@@std@@PAX@std@@$$T@std@@YAPAU?$_Tree_node@U?$pair@$$CBV?$basic_string@DU?$char_traits@D@std@@V?$allocator@D@2@@std@@V?$weak_ptr@VRawImageData@@@2@@std@@PAX@0@AAPAU10@$$QA$$T@Z 0040b360 f i Boss.obj
 0001:0000a390       ??$exchange@PAU?$_Tree_node@U?$pair@$$CBV?$basic_string@DU?$char_traits@D@std@@V?$allocator@D@2@@std@@V?$weak_ptr@VRawImageData@@@2@@std@@PAX@std@@AAPAU12@@std@@YAPAU?$_Tree_node@U?$pair@$$CBV?$basic_string@DU?$char_traits@D@std@@V?$allocator@D@2@@std@@V?$weak_ptr@VRawImageData@@@2@@std@@PAX@0@AAPAU10@0@Z 0040b390 f i Boss.obj
 0001:0000a3c0       ??$exchange@PAU_Container_proxy@std@@$$T@std@@YAPAU_Container_proxy@0@AAPAU10@$$QA$$T@Z 0040b3c0 f i Boss.obj
 0001:0000a3f0       ??$forward@AAPAU?$_Tree_node@U?$pair@$$CBV?$basic_string@DU?$char_traits@D@std@@V?$allocator@D@2@@std@@V?$shared_ptr@VRawImageData@@@2@@std@@PAX@std@@@std@@YAAAPAU?$_Tree_node@U?$pair@$$CBV?$basic_string@DU?$char_traits@D@std@@V?$allocator@D@2@@std@@V?$shared_ptr@VRawImageData@@@2@@std@@PAX@0@AAPAU10@@Z 0040b3f0 f i Boss.obj
 0001:0000a400       ??$forward@AAPAU?$_Tree_node@U?$pair@$$CBV?$basic_string@DU?$char_traits@D@std@@V?$allocator@D@2@@std@@V?$weak_ptr@VRawImageData@@@2@@std@@PAX@std@@@std@@YAAAPAU?$_Tree_node@U?$pair@$$CBV?$basic_string@DU?$char_traits@D@std@@V?$allocator@D@2@@std@@V?$weak_ptr@VRawImageData@@@2@@std@@PAX@0@AAPAU10@@Z 0040b400 f i Boss.obj
 0001:0000a410       ??$forward@AAUPoint@Boss@@@std@@YAAAUPoint@Boss@@AAU12@@Z 0040b410 f i Boss.obj
 0001:0000a420       ??$forward@AAV?$basic_string@DU?$char_traits@D@std@@V?$allocator@D@2@@std@@@std@@YAAAV?$basic_string@DU?$char_traits@D@std@@V?$allocator@D@2@@0@AAV10@@Z 0040b420 f i Boss.obj
 0001:0000a430       ??$forward@AAV?$shared_ptr@VRawImageData@@@std@@@std@@YAAAV?$shared_ptr@VRawImageData@@@0@AAV10@@Z 0040b430 f i Boss.obj
 0001:0000a440       ??$forward@AAV?$weak_ptr@VRawImageData@@@std@@@std@@YAAAV?$weak_ptr@VRawImageData@@@0@AAV10@@Z 0040b440 f i Boss.obj
 0001:0000a450       ??$forward@ABQAD@std@@YAABQADABQAD@Z 0040b450 f i Boss.obj
 0001:0000a460       ??$forward@ABQAU?$_Tree_node@U?$pair@$$CBV?$basic_string@DU?$char_traits@D@std@@V?$allocator@D@2@@std@@V?$shared_ptr@VRawImageData@@@2@@std@@PAX@std@@@std@@YAABQAU?$_Tree_node@U?$pair@$$CBV?$basic_string@DU?$char_traits@D@std@@V?$allocator@D@2@@std@@V?$shared_ptr@VRawImageData@@@2@@std@@PAX@0@ABQAU10@@Z 0040b460 f i Boss.obj
 0001:0000a470       ??$forward@ABQAU?$_Tree_node@U?$pair@$$CBV?$basic_string@DU?$char_traits@D@std@@V?$allocator@D@2@@std@@V?$weak_ptr@VRawImageData@@@2@@std@@PAX@std@@@std@@YAABQAU?$_Tree_node@U?$pair@$$CBV?$basic_string@DU?$char_traits@D@std@@V?$allocator@D@2@@std@@V?$weak_ptr@VRawImageData@@@2@@std@@PAX@0@ABQAU10@@Z 0040b470 f i Boss.obj
 0001:0000a480       ??$forward@ABU?$less@V?$basic_string@DU?$char_traits@D@std@@V?$allocator@D@2@@std@@@std@@@std@@YAABU?$less@V?$basic_string@DU?$char_traits@D@std@@V?$allocator@D@2@@std@@@0@ABU10@@Z 0040b480 f i Boss.obj
 0001:0000a490       ??$forward@ABUPoint@Boss@@@std@@YAABUPoint@Boss@@ABU12@@Z 0040b490 f i Boss.obj
 0001:0000a4a0       ??$forward@AB_N@std@@YAAB_NAB_N@Z 0040b4a0 f i Boss.obj
 0001:0000a4b0       ??$forward@PAU?$_Tree_node@U?$pair@$$CBV?$basic_string@DU?$char_traits@D@std@@V?$allocator@D@2@@std@@V?$shared_ptr@VRawImageData@@@2@@std@@PAX@std@@@std@@YA$$QAPAU?$_Tree_node@U?$pair@$$CBV?$basic_string@DU?$char_traits@D@std@@V?$allocator@D@2@@std@@V?$shared_ptr@VRawImageData@@@2@@std@@PAX@0@AAPAU10@@Z 0040b4b0 f i Boss.obj
 0001:0000a4c0       ??$forward@PAU?$_Tree_node@U?$pair@$$CBV?$basic_string@DU?$char_traits@D@std@@V?$allocator@D@2@@std@@V?$weak_ptr@VRawImageData@@@2@@std@@PAX@std@@@std@@YA$$QAPAU?$_Tree_node@U?$pair@$$CBV?$basic_string@DU?$char_traits@D@std@@V?$allocator@D@2@@std@@V?$weak_ptr@VRawImageData@@@2@@std@@PAX@0@AAPAU10@@Z 0040b4c0 f i Boss.obj
 0001:0000a4d0       ??$forward@PAU_Container_base12@std@@@std@@YA$$QAPAU_Container_base12@0@AAPAU10@@Z 0040b4d0 f i Boss.obj
 0001:0000a4e0       ??$forward@U?$pair@V?$basic_string@DU?$char_traits@D@std@@V?$allocator@D@2@@std@@V?$shared_ptr@VRawImageData@@@2@@std@@@std@@YA$$QAU?$pair@V?$basic_string@DU?$char_traits@D@std@@V?$allocator@D@2@@std@@V?$shared_ptr@VRawImageData@@@2@@0@AAU10@@Z 0040b4e0 f i Boss.obj
 0001:0000a4f0       ??$forward@U?$pair@V?$basic_string@DU?$char_traits@D@std@@V?$allocator@D@2@@std@@V?$weak_ptr@VRawImageData@@@2@@std@@@std@@YA$$QAU?$pair@V?$basic_string@DU?$char_traits@D@std@@V?$allocator@D@2@@std@@V?$weak_ptr@VRawImageData@@@2@@0@AAU10@@Z 0040b4f0 f i Boss.obj
 0001:0000a500       ??$forward@UPoint@Boss@@@std@@YA$$QAUPoint@Boss@@AAU12@@Z 0040b500 f i Boss.obj
 0001:0000a510       ??$forward@U_Zero_then_variadic_args_t@std@@@std@@YA$$QAU_Zero_then_variadic_args_t@0@AAU10@@Z 0040b510 f i Boss.obj
 0001:0000a520       ??$forward@V?$_Tree_iterator@V?$_Tree_val@U?$_Tree_simple_types@U?$pair@$$CBV?$basic_string@DU?$char_traits@D@std@@V?$allocator@D@2@@std@@V?$shared_ptr@VRawImageData@@@2@@std@@@std@@@std@@@std@@@std@@YA$$QAV?$_Tree_iterator@V?$_Tree_val@U?$_Tree_simple_types@U?$pair@$$CBV?$basic_string@DU?$char_traits@D@std@@V?$allocator@D@2@@std@@V?$shared_ptr@VRawImageData@@@2@@std@@@std@@@std@@@0@AAV10@@Z 0040b520 f i Boss.obj
 0001:0000a530       ??$forward@V?$_Tree_iterator@V?$_Tree_val@U?$_Tree_simple_types@U?$pair@$$CBV?$basic_string@DU?$char_traits@D@std@@V?$allocator@D@2@@std@@V?$weak_ptr@VRawImageData@@@2@@std@@@std@@@std@@@std@@@std@@YA$$QAV?$_Tree_iterator@V?$_Tree_val@U?$_Tree_simple_types@U?$pair@$$CBV?$basic_string@DU?$char_traits@D@std@@V?$allocator@D@2@@std@@V?$weak_ptr@VRawImageData@@@2@@std@@@std@@@std@@@0@AAV10@@Z 0040b530 f i Boss.obj
 0001:0000a540       ??$forward@V?$allocator@D@std@@@std@@YA$$QAV?$allocator@D@0@AAV10@@Z 0040b540 f i Boss.obj
 0001:0000a550       ??$forward@V?$basic_string@DU?$char_traits@D@std@@V?$allocator@D@2@@std@@@std@@YA$$QAV?$basic_string@DU?$char_traits@D@std@@V?$allocator@D@2@@0@AAV10@@Z 0040b550 f i Boss.obj
 0001:0000a560       ??$forward@V?$shared_ptr@VRawImageData@@@std@@@std@@YA$$QAV?$shared_ptr@VRawImageData@@@0@AAV10@@Z 0040b560 f i Boss.obj
 0001:0000a570       ??$forward@V?$weak_ptr@VRawImageData@@@std@@@std@@YA$$QAV?$weak_ptr@VRawImageData@@@0@AAV10@@Z 0040b570 f i Boss.obj
 0001:0000a580       ??$forward@_N@std@@YA$$QA_NAA_N@Z 0040b580 f i Boss.obj
 0001:0000a590       ??$insert@U?$pair@V?$basic_string@DU?$char_traits@D@std@@V?$allocator@D@2@@std@@V?$shared_ptr@VRawImageData@@@2@@std@@$0A@@?$map@V?$basic_string@DU?$char_traits@D@std@@V?$allocator@D@2@@std@@V?$shared_ptr@VRawImageData@@@2@U?$less@V?$basic_string@DU?$char_traits@D@std@@V?$allocator@D@2@@std@@@2@V?$allocator@U?$pair@$$CBV?$basic_string@DU?$char_traits@D@std@@V?$allocator@D@2@@std@@V?$shared_ptr@VRawImageData@@@2@@std@@@2@@std@@QAE?AU?$pair@V?$_Tree_iterator@V?$_Tree_val@U?$_Tree_simple_types@U?$pair@$$CBV?$basic_string@DU?$char_traits@D@std@@V?$allocator@D@2@@std@@V?$shared_ptr@VRawImageData@@@2@@std@@@std@@@std@@@std@@_N@1@$$QAU?$pair@V?$basic_string@DU?$char_traits@D@std@@V?$allocator@D@2@@std@@V?$shared_ptr@VRawImageData@@@2@@1@@Z 0040b590 f i Boss.obj
 0001:0000a5e0       ??$insert@U?$pair@V?$basic_string@DU?$char_traits@D@std@@V?$allocator@D@2@@std@@V?$weak_ptr@VRawImageData@@@2@@std@@$0A@@?$map@V?$basic_string@DU?$char_traits@D@std@@V?$allocator@D@2@@std@@V?$weak_ptr@VRawImageData@@@2@U?$less@V?$basic_string@DU?$char_traits@D@std@@V?$allocator@D@2@@std@@@2@V?$allocator@U?$pair@$$CBV?$basic_string@DU?$char_traits@D@std@@V?$allocator@D@2@@std@@V?$weak_ptr@VRawImageData@@@2@@std@@@2@@std@@QAE?AU?$pair@V?$_Tree_iterator@V?$_Tree_val@U?$_Tree_simple_types@U?$pair@$$CBV?$basic_string@DU?$char_traits@D@std@@V?$allocator@D@2@@std@@V?$weak_ptr@VRawImageData@@@2@@std@@@std@@@std@@@std@@_N@1@$$QAU?$pair@V?$basic_string@DU?$char_traits@D@std@@V?$allocator@D@2@@std@@V?$weak_ptr@VRawImageData@@@2@@1@@Z 0040b5e0 f i Boss.obj
 0001:0000a630       ??$move@AAD@std@@YA$$QADAAD@Z 0040b630 f i Boss.obj
 0001:0000a640       ??$move@AAUPoint@Boss@@@std@@YA$$QAUPoint@Boss@@AAU12@@Z 0040b640 f i Boss.obj
 0001:0000a650       ??$move@AAV?$allocator@D@std@@@std@@YA$$QAV?$allocator@D@0@AAV10@@Z 0040b650 f i Boss.obj
 0001:0000a660       ??$move@AAV?$shared_ptr@VRawImageData@@@std@@@std@@YA$$QAV?$shared_ptr@VRawImageData@@@0@AAV10@@Z 0040b660 f i Boss.obj
 0001:0000a670       ??$move@AAV?$weak_ptr@VRawImageData@@@std@@@std@@YA$$QAV?$weak_ptr@VRawImageData@@@0@AAV10@@Z 0040b670 f i Boss.obj
 0001:0000a680       ??$next@PAUPoint@Boss@@@std@@YAPAUPoint@Boss@@PAU12@H@Z 0040b680 f i Boss.obj
 0001:0000a6a0       ??$swap@D$0A@@std@@YAXAAD0@Z 0040b6a0 f i Boss.obj
 0001:0000a6f0       ??$uninitialized_copy@PAPAUPoint@Boss@@PAPAU12@@std@@YAPAPAUPoint@Boss@@QAPAU12@0PAPAU12@@Z 0040b6f0 f i Boss.obj
 0001:0000a7a0       ??0?$_Alloc_construct_ptr@V?$allocator@U?$_Tree_node@U?$pair@$$CBV?$basic_string@DU?$char_traits@D@std@@V?$allocator@D@2@@std@@V?$shared_ptr@VRawImageData@@@2@@std@@PAX@std@@@std@@@std@@QAE@AAV?$allocator@U?$_Tree_node@U?$pair@$$CBV?$basic_string@DU?$char_traits@D@std@@V?$allocator@D@2@@std@@V?$shared_ptr@VRawImageData@@@2@@std@@PAX@std@@@1@@Z 0040b7a0 f i Boss.obj
 0001:0000a7d0       ??0?$_Alloc_construct_ptr@V?$allocator@U?$_Tree_node@U?$pair@$$CBV?$basic_string@DU?$char_traits@D@std@@V?$allocator@D@2@@std@@V?$weak_ptr@VRawImageData@@@2@@std@@PAX@std@@@std@@@std@@QAE@AAV?$allocator@U?$_Tree_node@U?$pair@$$CBV?$basic_string@DU?$char_traits@D@std@@V?$allocator@D@2@@std@@V?$weak_ptr@VRawImageData@@@2@@std@@PAX@std@@@1@@Z 0040b7d0 f i Boss.obj
 0001:0000a800       ??0?$_Container_proxy_ptr12@V?$allocator@U_Container_proxy@std@@@std@@@std@@QAE@AAV?$allocator@U_Container_proxy@std@@@1@AAU_Container_base12@1@@Z 0040b800 f i Boss.obj
 0001:0000a880       ??0?$_Deque_unchecked_const_iterator@V?$_Deque_val@U?$_Deque_simple_types@UPoint@Boss@@@std@@@std@@@std@@QAE@IPBU_Container_base12@1@@Z 0040b880 f i Boss.obj
 0001:0000a8b0       ??0?$_Deque_unchecked_iterator@V?$_Deque_val@U?$_Deque_simple_types@UPoint@Boss@@@std@@@std@@@std@@QAE@IPBU_Container_base12@1@@Z 0040b8b0 f i Boss.obj
 0001:0000a8e0       ??0?$_Deque_val@U?$_Deque_simple_types@UPoint@Boss@@@std@@@std@@QAE@XZ 0040b8e0 f i Boss.obj
 0001:0000a930       ??0?$_Ptr_base@VRawImageData@@@std@@IAE@XZ 0040b930 f i Boss.obj
 0001:0000a960       ??0?$_Ref_count@VRawImageData@@@std@@QAE@PAVRawImageData@@@Z 0040b960 f i Boss.obj
 0001:0000a9b0       ??0?$_String_val@U?$_Simple_types@D@std@@@std@@QAE@XZ 0040b9b0 f i Boss.obj
 0001:0000aa00       ??0?$_Temporary_owner@VRawImageData@@@std@@QAE@QAVRawImageData@@@Z 0040ba00 f i Boss.obj
 0001:0000aa20       ??0?$_Tree@V?$_Tmap_traits@V?$basic_string@DU?$char_traits@D@std@@V?$allocator@D@2@@std@@V?$shared_ptr@VRawImageData@@@2@U?$less@V?$basic_string@DU?$char_traits@D@std@@V?$allocator@D@2@@std@@@2@V?$allocator@U?$pair@$$CBV?$basic_string@DU?$char_traits@D@std@@V?$allocator@D@2@@std@@V?$shared_ptr@VRawImageData@@@2@@std@@@2@$0A@@std@@@std@@QAE@ABU?$less@V?$basic_string@DU?$char_traits@D@std@@V?$allocator@D@2@@std@@@1@@Z 0040ba20 f i Boss.obj
 0001:0000aa60       ??0?$_Tree@V?$_Tmap_traits@V?$basic_string@DU?$char_traits@D@std@@V?$allocator@D@2@@std@@V?$weak_ptr@VRawImageData@@@2@U?$less@V?$basic_string@DU?$char_traits@D@std@@V?$allocator@D@2@@std@@@2@V?$allocator@U?$pair@$$CBV?$basic_string@DU?$char_traits@D@std@@V?$allocator@D@2@@std@@V?$weak_ptr@VRawImageData@@@2@@std@@@2@$0A@@std@@@std@@QAE@ABU?$less@V?$basic_string@DU?$char_traits@D@std@@V?$allocator@D@2@@std@@@1@@Z 0040ba60 f i Boss.obj
 0001:0000aaa0       ??0?$_Tree_const_iterator@V?$_Tree_val@U?$_Tree_simple_types@U?$pair@$$CBV?$basic_string@DU?$char_traits@D@std@@V?$allocator@D@2@@std@@V?$shared_ptr@VRawImageData@@@2@@std@@@std@@@std@@@std@@QAE@$$QAV01@@Z 0040baa0 f i Boss.obj
 0001:0000aad0       ??0?$_Tree_const_iterator@V?$_Tree_val@U?$_Tree_simple_types@U?$pair@$$CBV?$basic_string@DU?$char_traits@D@std@@V?$allocator@D@2@@std@@V?$shared_ptr@VRawImageData@@@2@@std@@@std@@@std@@@std@@QAE@PAU?$_Tree_node@U?$pair@$$CBV?$basic_string@DU?$char_traits@D@std@@V?$allocator@D@2@@std@@V?$shared_ptr@VRawImageData@@@2@@std@@PAX@1@PBV?$_Tree_val@U?$_Tree_simple_types@U?$pair@$$CBV?$basic_string@DU?$char_traits@D@std@@V?$allocator@D@2@@std@@V?$shared_ptr@VRawImageData@@@2@@std@@@std@@@1@@Z 0040bad0 f i Boss.obj
 0001:0000ab00       ??0?$_Tree_const_iterator@V?$_Tree_val@U?$_Tree_simple_types@U?$pair@$$CBV?$basic_string@DU?$char_traits@D@std@@V?$allocator@D@2@@std@@V?$weak_ptr@VRawImageData@@@2@@std@@@std@@@std@@@std@@QAE@$$QAV01@@Z 0040bb00 f i Boss.obj
 0001:0000ab30       ??0?$_Tree_const_iterator@V?$_Tree_val@U?$_Tree_simple_types@U?$pair@$$CBV?$basic_string@DU?$char_traits@D@std@@V?$allocator@D@2@@std@@V?$weak_ptr@VRawImageData@@@2@@std@@@std@@@std@@@std@@QAE@ABV01@@Z 0040bb30 f i Boss.obj
 0001:0000ab60       ??0?$_Tree_const_iterator@V?$_Tree_val@U?$_Tree_simple_types@U?$pair@$$CBV?$basic_string@DU?$char_traits@D@std@@V?$allocator@D@2@@std@@V?$weak_ptr@VRawImageData@@@2@@std@@@std@@@std@@@std@@QAE@PAU?$_Tree_node@U?$pair@$$CBV?$basic_string@DU?$char_traits@D@std@@V?$allocator@D@2@@std@@V?$weak_ptr@VRawImageData@@@2@@std@@PAX@1@PBV?$_Tree_val@U?$_Tree_simple_types@U?$pair@$$CBV?$basic_string@DU?$char_traits@D@std@@V?$allocator@D@2@@std@@V?$weak_ptr@VRawImageData@@@2@@std@@@std@@@1@@Z 0040bb60 f i Boss.obj
 0001:0000ab90       ??0?$_Tree_iterator@V?$_Tree_val@U?$_Tree_simple_types@U?$pair@$$CBV?$basic_string@DU?$char_traits@D@std@@V?$allocator@D@2@@std@@V?$shared_ptr@VRawImageData@@@2@@std@@@std@@@std@@@std@@QAE@$$QAV01@@Z 0040bb90 f i Boss.obj
 0001:0000abc0       ??0?$_Tree_iterator@V?$_Tree_val@U?$_Tree_simple_types@U?$pair@$$CBV?$basic_string@DU?$char_traits@D@std@@V?$allocator@D@2@@std@@V?$shared_ptr@VRawImageData@@@2@@std@@@std@@@std@@@std@@QAE@PAU?$_Tree_node@U?$pair@$$CBV?$basic_string@DU?$char_traits@D@std@@V?$allocator@D@2@@std@@V?$shared_ptr@VRawImageData@@@2@@std@@PAX@1@PBV?$_Tree_val@U?$_Tree_simple_types@U?$pair@$$CBV?$basic_string@DU?$char_traits@D@std@@V?$allocator@D@2@@std@@V?$shared_ptr@VRawImageData@@@2@@std@@@std@@@1@@Z 0040bbc0 f i Boss.obj
 0001:0000abf0       ??0?$_Tree_iterator@V?$_Tree_val@U?$_Tree_simple_types@U?$pair@$$CBV?$basic_string@DU?$char_traits@D@std@@V?$allocator@D@2@@std@@V?$weak_ptr@VRawImageData@@@2@@std@@@std@@@std@@@std@@QAE@$$QAV01@@Z 0040bbf0 f i Boss.obj
 0001:0000ac20       ??0?$_Tree_iterator@V?$_Tree_val@U?$_Tree_simple_types@U?$pair@$$CBV?$basic_string@DU?$char_traits@D@std@@V?$allocator@D@2@@std@@V?$weak_ptr@VRawImageData@@@2@@std@@@std@@@std@@@std@@QAE@ABV01@@Z 0040bc20 f i Boss.obj
 0001:0000ac50       ??0?$_Tree_iterator@V?$_Tree_val@U?$_Tree_simple_types@U?$pair@$$CBV?$basic_string@DU?$char_traits@D@std@@V?$allocator@D@2@@std@@V?$weak_ptr@VRawImageData@@@2@@std@@@std@@@std@@@std@@QAE@PAU?$_Tree_node@U?$pair@$$CBV?$basic_string@DU?$char_traits@D@std@@V?$allocator@D@2@@std@@V?$weak_ptr@VRawImageData@@@2@@std@@PAX@1@PBV?$_Tree_val@U?$_Tree_simple_types@U?$pair@$$CBV?$basic_string@DU?$char_traits@D@std@@V?$allocator@D@2@@std@@V?$weak_ptr@VRawImageData@@@2@@std@@@std@@@1@@Z 0040bc50 f i Boss.obj
 0001:0000ac80       ??0?$_Tree_temp_node_alloc@V?$allocator@U?$_Tree_node@U?$pair@$$CBV?$basic_string@DU?$char_traits@D@std@@V?$allocator@D@2@@std@@V?$shared_ptr@VRawImageData@@@2@@std@@PAX@std@@@std@@@std@@QAE@AAV?$allocator@U?$_Tree_node@U?$pair@$$CBV?$basic_string@DU?$char_traits@D@std@@V?$allocator@D@2@@std@@V?$shared_ptr@VRawImageData@@@2@@std@@PAX@std@@@1@@Z 0040bc80 f i Boss.obj
 0001:0000ad00       ??0?$_Tree_temp_node_alloc@V?$allocator@U?$_Tree_node@U?$pair@$$CBV?$basic_string@DU?$char_traits@D@std@@V?$allocator@D@2@@std@@V?$weak_ptr@VRawImageData@@@2@@std@@PAX@std@@@std@@@std@@QAE@AAV?$allocator@U?$_Tree_node@U?$pair@$$CBV?$basic_string@DU?$char_traits@D@std@@V?$allocator@D@2@@std@@V?$weak_ptr@VRawImageData@@@2@@std@@PAX@std@@@1@@Z 0040bd00 f i Boss.obj
 0001:0000ad80       ??0?$_Tree_unchecked_const_iterator@V?$_Tree_val@U?$_Tree_simple_types@U?$pair@$$CBV?$basic_string@DU?$char_traits@D@std@@V?$allocator@D@2@@std@@V?$shared_ptr@VRawImageData@@@2@@std@@@std@@@std@@U_Iterator_base12@2@@std@@QAE@$$QAV01@@Z 0040bd80 f i Boss.obj
 0001:0000adc0       ??0?$_Tree_unchecked_const_iterator@V?$_Tree_val@U?$_Tree_simple_types@U?$pair@$$CBV?$basic_string@DU?$char_traits@D@std@@V?$allocator@D@2@@std@@V?$shared_ptr@VRawImageData@@@2@@std@@@std@@@std@@U_Iterator_base12@2@@std@@QAE@PAU?$_Tree_node@U?$pair@$$CBV?$basic_string@DU?$char_traits@D@std@@V?$allocator@D@2@@std@@V?$shared_ptr@VRawImageData@@@2@@std@@PAX@1@PBV?$_Tree_val@U?$_Tree_simple_types@U?$pair@$$CBV?$basic_string@DU?$char_traits@D@std@@V?$allocator@D@2@@std@@V?$shared_ptr@VRawImageData@@@2@@std@@@std@@@1@@Z 0040bdc0 f i Boss.obj
 0001:0000ae00       ??0?$_Tree_unchecked_const_iterator@V?$_Tree_val@U?$_Tree_simple_types@U?$pair@$$CBV?$basic_string@DU?$char_traits@D@std@@V?$allocator@D@2@@std@@V?$weak_ptr@VRawImageData@@@2@@std@@@std@@@std@@U_Iterator_base0@2@@std@@QAE@PAU?$_Tree_node@U?$pair@$$CBV?$basic_string@DU?$char_traits@D@std@@V?$allocator@D@2@@std@@V?$weak_ptr@VRawImageData@@@2@@std@@PAX@1@PBV?$_Tree_val@U?$_Tree_simple_types@U?$pair@$$CBV?$basic_string@DU?$char_traits@D@std@@V?$allocator@D@2@@std@@V?$weak_ptr@VRawImageData@@@2@@std@@@std@@@1@@Z 0040be00 f i Boss.obj
 0001:0000ae30       ??0?$_Tree_unchecked_const_iterator@V?$_Tree_val@U?$_Tree_simple_types@U?$pair@$$CBV?$basic_string@DU?$char_traits@D@std@@V?$allocator@D@2@@std@@V?$weak_ptr@VRawImageData@@@2@@std@@@std@@@std@@U_Iterator_base12@2@@std@@QAE@$$QAV01@@Z 0040be30 f i Boss.obj
 0001:0000ae70       ??0?$_Tree_unchecked_const_iterator@V?$_Tree_val@U?$_Tree_simple_types@U?$pair@$$CBV?$basic_string@DU?$char_traits@D@std@@V?$allocator@D@2@@std@@V?$weak_ptr@VRawImageData@@@2@@std@@@std@@@std@@U_Iterator_base12@2@@std@@QAE@ABV01@@Z 0040be70 f i Boss.obj
 0001:0000aeb0       ??0?$_Tree_unchecked_const_iterator@V?$_Tree_val@U?$_Tree_simple_types@U?$pair@$$CBV?$basic_string@DU?$char_traits@D@std@@V?$allocator@D@2@@std@@V?$weak_ptr@VRawImageData@@@2@@std@@@std@@@std@@U_Iterator_base12@2@@std@@QAE@PAU?$_Tree_node@U?$pair@$$CBV?$basic_string@DU?$char_traits@D@std@@V?$allocator@D@2@@std@@V?$weak_ptr@VRawImageData@@@2@@std@@PAX@1@PBV?$_Tree_val@U?$_Tree_simple_types@U?$pair@$$CBV?$basic_string@DU?$char_traits@D@std@@V?$allocator@D@2@@std@@V?$weak_ptr@VRawImageData@@@2@@std@@@std@@@1@@Z 0040beb0 f i Boss.obj
 0001:0000aef0       ??0?$_Tree_unchecked_iterator@V?$_Tree_val@U?$_Tree_simple_types@U?$pair@$$CBV?$basic_string@DU?$char_traits@D@std@@V?$allocator@D@2@@std@@V?$weak_ptr@VRawImageData@@@2@@std@@@std@@@std@@@std@@QAE@PAU?$_Tree_node@U?$pair@$$CBV?$basic_string@DU?$char_traits@D@std@@V?$allocator@D@2@@std@@V?$weak_ptr@VRawImageData@@@2@@std@@PAX@1@PBV?$_Tree_val@U?$_Tree_simple_types@U?$pair@$$CBV?$basic_string@DU?$char_traits@D@std@@V?$allocator@D@2@@std@@V?$weak_ptr@VRawImageData@@@2@@std@@@std@@@1@@Z 0040bef0 f i Boss.obj
 0001:0000af20       ??0?$_Tree_val@U?$_Tree_simple_types@U?$pair@$$CBV?$basic_string@DU?$char_traits@D@std@@V?$allocator@D@2@@std@@V?$shared_ptr@VRawImageData@@@2@@std@@@std@@@std@@QAE@XZ 0040bf20 f i Boss.obj
 0001:0000af60       ??0?$_Tree_val@U?$_Tree_simple_types@U?$pair@$$CBV?$basic_string@DU?$char_traits@D@std@@V?$allocator@D@2@@std@@V?$weak_ptr@VRawImageData@@@2@@std@@@std@@@std@@QAE@XZ 0040bf60 f i Boss.obj
 0001:0000afa0       ??0?$_Uninitialized_backout_al@V?$allocator@UPoint@Boss@@@std@@@std@@QAE@PAUPoint@Boss@@AAV?$allocator@UPoint@Boss@@@1@@Z 0040bfa0 f i Boss.obj
 0001:0000afe0       ??0?$_Vector_val@U?$_Simple_types@UPoint@Boss@@@std@@@std@@QAE@XZ 0040bfe0 f i Boss.obj
 0001:0000b030       ??0?$allocator@D@std@@QAE@XZ 0040c030 f i Boss.obj
 0001:0000b050       ??0?$allocator@U?$_Tree_node@U?$pair@$$CBV?$basic_string@DU?$char_traits@D@std@@V?$allocator@D@2@@std@@V?$shared_ptr@VRawImageData@@@2@@std@@PAX@std@@@std@@QAE@XZ 0040c050 f i Boss.obj
 0001:0000b070       ??0?$allocator@U?$_Tree_node@U?$pair@$$CBV?$basic_string@DU?$char_traits@D@std@@V?$allocator@D@2@@std@@V?$weak_ptr@VRawImageData@@@2@@std@@PAX@std@@@std@@QAE@XZ 0040c070 f i Boss.obj
 0001:0000b090       ??0?$allocator@UPoint@Boss@@@std@@QAE@XZ 0040c090 f i Boss.obj
 0001:0000b0b0       ??0?$basic_string@DU?$char_traits@D@std@@V?$allocator@D@2@@std@@QAE@$$QAV01@@Z 0040c0b0 f i Boss.obj
 0001:0000b170       ??0?$basic_string@DU?$char_traits@D@std@@V?$allocator@D@2@@std@@QAE@ABV01@@Z 0040c170 f i Boss.obj
 0001:0000b260       ??0?$basic_string@DU?$char_traits@D@std@@V?$allocator@D@2@@std@@QAE@QBD@Z 0040c260 f i Boss.obj
 0001:0000b340       ??0?$deque@UPoint@Boss@@V?$allocator@UPoint@Boss@@@std@@@std@@QAE@XZ 0040c340 f i Boss.obj
 0001:0000b390       ??0?$map@V?$basic_string@DU?$char_traits@D@std@@V?$allocator@D@2@@std@@V?$shared_ptr@VRawImageData@@@2@U?$less@V?$basic_string@DU?$char_traits@D@std@@V?$allocator@D@2@@std@@@2@V?$allocator@U?$pair@$$CBV?$basic_string@DU?$char_traits@D@std@@V?$allocator@D@2@@std@@V?$shared_ptr@VRawImageData@@@2@@std@@@2@@std@@QAE@XZ 0040c390 f i Boss.obj
 0001:0000b3c0       ??0?$map@V?$basic_string@DU?$char_traits@D@std@@V?$allocator@D@2@@std@@V?$weak_ptr@VRawImageData@@@2@U?$less@V?$basic_string@DU?$char_traits@D@std@@V?$allocator@D@2@@std@@@2@V?$allocator@U?$pair@$$CBV?$basic_string@DU?$char_traits@D@std@@V?$allocator@D@2@@std@@V?$weak_ptr@VRawImageData@@@2@@std@@@2@@std@@QAE@XZ 0040c3c0 f i Boss.obj
 0001:0000b3f0       ??0?$queue@UPoint@Boss@@V?$deque@UPoint@Boss@@V?$allocator@UPoint@Boss@@@std@@@std@@@std@@QAE@XZ 0040c3f0 f i Boss.obj
 0001:0000b450       ??0?$shared_ptr@VRawImageData@@@std@@QAE@$$QAV01@@Z 0040c450 f i Boss.obj
 0001:0000b490       ??0?$shared_ptr@VRawImageData@@@std@@QAE@$$T@Z 0040c490 f i Boss.obj
 0001:0000b4b0       ??0?$shared_ptr@VRawImageData@@@std@@QAE@ABV01@@Z 0040c4b0 f i Boss.obj
 0001:0000b4e0       ??0?$shared_ptr@VRawImageData@@@std@@QAE@XZ 0040c4e0 f i Boss.obj
 0001:0000b500       ??0?$vector@UPoint@Boss@@V?$allocator@UPoint@Boss@@@std@@@std@@QAE@XZ 0040c500 f i Boss.obj
 0001:0000b580       ??0?$weak_ptr@VRawImageData@@@std@@QAE@$$QAV01@@Z 0040c580 f i Boss.obj
 0001:0000b5c0       ??0?$weak_ptr@VRawImageData@@@std@@QAE@ABV01@@Z 0040c5c0 f i Boss.obj
 0001:0000b5f0       ??0ImageManager@@QAE@XZ    0040c5f0 f i Boss.obj
 0001:0000b670       ??0MovementPosition@@QAE@XZ 0040c670 f i Boss.obj
 0001:0000b6f0       ??0Point@Boss@@QAE@HH@Z    0040c6f0 f i Boss.obj
 0001:0000b720       ??0RawImageData@@QAE@V?$basic_string@DU?$char_traits@D@std@@V?$allocator@D@2@@std@@@Z 0040c720 f i Boss.obj
 0001:0000b7d0       ??0_Bxty@?$_String_val@U?$_Simple_types@D@std@@@std@@QAE@XZ 0040c7d0 f i Boss.obj
 0001:0000b7f0       ??0_Container_base12@std@@QAE@XZ 0040c7f0 f i Boss.obj
 0001:0000b810       ??0_Container_proxy@std@@QAE@PAU_Container_base12@1@@Z 0040c810 f i Boss.obj
 0001:0000b840       ??0_Iterator_base12@std@@QAE@ABU01@@Z 0040c840 f i Boss.obj
 0001:0000b880       ??0_Iterator_base12@std@@QAE@XZ 0040c880 f i Boss.obj
 0001:0000b8b0       ??0_Ref_count_base@std@@IAE@XZ 0040c8b0 f i Boss.obj
 0001:0000b8e0       ??0_Sentry_base@?$basic_ostream@DU?$char_traits@D@std@@@std@@QAE@AAV12@@Z 0040c8e0 f i Boss.obj
 0001:0000b940       ??0bad_alloc@std@@AAE@QBD@Z 0040c940 f i Boss.obj
 0001:0000b970       ??0bad_alloc@std@@QAE@ABV01@@Z 0040c970 f i Boss.obj
 0001:0000b9a0       ??0bad_array_new_length@std@@QAE@ABV01@@Z 0040c9a0 f i Boss.obj
 0001:0000b9d0       ??0bad_array_new_length@std@@QAE@XZ 0040c9d0 f i Boss.obj
 0001:0000ba00       ??0exception@std@@QAE@ABV01@@Z 0040ca00 f i Boss.obj
 0001:0000ba50       ??0exception@std@@QAE@QBDH@Z 0040ca50 f i Boss.obj
 0001:0000ba90       ??0sentry@?$basic_ostream@DU?$char_traits@D@std@@@std@@QAE@AAV12@@Z 0040ca90 f i Boss.obj
 0001:0000bb90       ??1?$_Alloc_construct_ptr@V?$allocator@U?$_Tree_node@U?$pair@$$CBV?$basic_string@DU?$char_traits@D@std@@V?$allocator@D@2@@std@@V?$shared_ptr@VRawImageData@@@2@@std@@PAX@std@@@std@@@std@@QAE@XZ 0040cb90 f i Boss.obj
 0001:0000bc00       ??1?$_Alloc_construct_ptr@V?$allocator@U?$_Tree_node@U?$pair@$$CBV?$basic_string@DU?$char_traits@D@std@@V?$allocator@D@2@@std@@V?$weak_ptr@VRawImageData@@@2@@std@@PAX@std@@@std@@@std@@QAE@XZ 0040cc00 f i Boss.obj
 0001:0000bc70       ??1?$_Compressed_pair@V?$allocator@D@std@@V?$_String_val@U?$_Simple_types@D@std@@@2@$00@std@@QAE@XZ 0040cc70 f i Boss.obj
 0001:0000bc90       ??1?$_Container_proxy_ptr12@V?$allocator@U_Container_proxy@std@@@std@@@std@@QAE@XZ 0040cc90 f i Boss.obj
 0001:0000bcd0       ??1?$_Ref_count@VRawImageData@@@std@@UAE@XZ 0040ccd0 f i Boss.obj
 0001:0000bcf0       ??1?$_String_val@U?$_Simple_types@D@std@@@std@@QAE@XZ 0040ccf0 f i Boss.obj
 0001:0000bd10       ??1?$_Temporary_owner@VRawImageData@@@std@@QAE@XZ 0040cd10 f i Boss.obj
 0001:0000bd50       ??1?$_Tree@V?$_Tmap_traits@V?$basic_string@DU?$char_traits@D@std@@V?$allocator@D@2@@std@@V?$shared_ptr@VRawImageData@@@2@U?$less@V?$basic_string@DU?$char_traits@D@std@@V?$allocator@D@2@@std@@@2@V?$allocator@U?$pair@$$CBV?$basic_string@DU?$char_traits@D@std@@V?$allocator@D@2@@std@@V?$shared_ptr@VRawImageData@@@2@@std@@@2@$0A@@std@@@std@@QAE@XZ 0040cd50 f i Boss.obj
 0001:0000bdc0       ??1?$_Tree@V?$_Tmap_traits@V?$basic_string@DU?$char_traits@D@std@@V?$allocator@D@2@@std@@V?$weak_ptr@VRawImageData@@@2@U?$less@V?$basic_string@DU?$char_traits@D@std@@V?$allocator@D@2@@std@@@2@V?$allocator@U?$pair@$$CBV?$basic_string@DU?$char_traits@D@std@@V?$allocator@D@2@@std@@V?$weak_ptr@VRawImageData@@@2@@std@@@2@$0A@@std@@@std@@QAE@XZ 0040cdc0 f i Boss.obj
 0001:0000be30       ??1?$_Tree_const_iterator@V?$_Tree_val@U?$_Tree_simple_types@U?$pair@$$CBV?$basic_string@DU?$char_traits@D@std@@V?$allocator@D@2@@std@@V?$shared_ptr@VRawImageData@@@2@@std@@@std@@@std@@@std@@QAE@XZ 0040ce30 f i Boss.obj
 0001:0000be50       ??1?$_Tree_const_iterator@V?$_Tree_val@U?$_Tree_simple_types@U?$pair@$$CBV?$basic_string@DU?$char_traits@D@std@@V?$allocator@D@2@@std@@V?$weak_ptr@VRawImageData@@@2@@std@@@std@@@std@@@std@@QAE@XZ 0040ce50 f i Boss.obj
 0001:0000be70       ??1?$_Tree_iterator@V?$_Tree_val@U?$_Tree_simple_types@U?$pair@$$CBV?$basic_string@DU?$char_traits@D@std@@V?$allocator@D@2@@std@@V?$shared_ptr@VRawImageData@@@2@@std@@@std@@@std@@@std@@QAE@XZ 0040ce70 f i Boss.obj
 0001:0000be90       ??1?$_Tree_iterator@V?$_Tree_val@U?$_Tree_simple_types@U?$pair@$$CBV?$basic_string@DU?$char_traits@D@std@@V?$allocator@D@2@@std@@V?$weak_ptr@VRawImageData@@@2@@std@@@std@@@std@@@std@@QAE@XZ 0040ce90 f i Boss.obj
 0001:0000beb0       ??1?$_Tree_temp_node@V?$allocator@U?$_Tree_node@U?$pair@$$CBV?$basic_string@DU?$char_traits@D@std@@V?$allocator@D@2@@std@@V?$shared_ptr@VRawImageData@@@2@@std@@PAX@std@@@std@@@std@@QAE@XZ 0040ceb0 f i Boss.obj
 0001:0000bf80       ??1?$_Tree_temp_node@V?$allocator@U?$_Tree_node@U?$pair@$$CBV?$basic_string@DU?$char_traits@D@std@@V?$allocator@D@2@@std@@V?$weak_ptr@VRawImageData@@@2@@std@@PAX@std@@@std@@@std@@QAE@XZ 0040cf80 f i Boss.obj
 0001:0000c050       ??1?$_Tree_temp_node_alloc@V?$allocator@U?$_Tree_node@U?$pair@$$CBV?$basic_string@DU?$char_traits@D@std@@V?$allocator@D@2@@std@@V?$shared_ptr@VRawImageData@@@2@@std@@PAX@std@@@std@@@std@@QAE@XZ 0040d050 f i Boss.obj
 0001:0000c070       ??1?$_Tree_temp_node_alloc@V?$allocator@U?$_Tree_node@U?$pair@$$CBV?$basic_string@DU?$char_traits@D@std@@V?$allocator@D@2@@std@@V?$weak_ptr@VRawImageData@@@2@@std@@PAX@std@@@std@@@std@@QAE@XZ 0040d070 f i Boss.obj
 0001:0000c090       ??1?$_Tree_unchecked_const_iterator@V?$_Tree_val@U?$_Tree_simple_types@U?$pair@$$CBV?$basic_string@DU?$char_traits@D@std@@V?$allocator@D@2@@std@@V?$shared_ptr@VRawImageData@@@2@@std@@@std@@@std@@U_Iterator_base12@2@@std@@QAE@XZ 0040d090 f i Boss.obj
 0001:0000c0b0       ??1?$_Tree_unchecked_const_iterator@V?$_Tree_val@U?$_Tree_simple_types@U?$pair@$$CBV?$basic_string@DU?$char_traits@D@std@@V?$allocator@D@2@@std@@V?$weak_ptr@VRawImageData@@@2@@std@@@std@@@std@@U_Iterator_base12@2@@std@@QAE@XZ 0040d0b0 f i Boss.obj
 0001:0000c0d0       ??1?$_Uninitialized_backout_al@V?$allocator@UPoint@Boss@@@std@@@std@@QAE@XZ 0040d0d0 f i Boss.obj
 0001:0000c100       ??1?$basic_string@DU?$char_traits@D@std@@V?$allocator@D@2@@std@@QAE@XZ 0040d100 f i Boss.obj
 0001:0000c170       ??1?$deque@UPoint@Boss@@V?$allocator@UPoint@Boss@@@std@@@std@@QAE@XZ 0040d170 f i Boss.obj
 0001:0000c1e0       ??1?$map@V?$basic_string@DU?$char_traits@D@std@@V?$allocator@D@2@@std@@V?$shared_ptr@VRawImageData@@@2@U?$less@V?$basic_string@DU?$char_traits@D@std@@V?$allocator@D@2@@std@@@2@V?$allocator@U?$pair@$$CBV?$basic_string@DU?$char_traits@D@std@@V?$allocator@D@2@@std@@V?$shared_ptr@VRawImageData@@@2@@std@@@2@@std@@QAE@XZ 0040d1e0 f i Boss.obj
 0001:0000c200       ??1?$map@V?$basic_string@DU?$char_traits@D@std@@V?$allocator@D@2@@std@@V?$weak_ptr@VRawImageData@@@2@U?$less@V?$basic_string@DU?$char_traits@D@std@@V?$allocator@D@2@@std@@@2@V?$allocator@U?$pair@$$CBV?$basic_string@DU?$char_traits@D@std@@V?$allocator@D@2@@std@@V?$weak_ptr@VRawImageData@@@2@@std@@@2@@std@@QAE@XZ 0040d200 f i Boss.obj
 0001:0000c220       ??1?$pair@$$CBV?$basic_string@DU?$char_traits@D@std@@V?$allocator@D@2@@std@@V?$shared_ptr@VRawImageData@@@2@@std@@QAE@XZ 0040d220 f i Boss.obj
 0001:0000c250       ??1?$pair@$$CBV?$basic_string@DU?$char_traits@D@std@@V?$allocator@D@2@@std@@V?$weak_ptr@VRawImageData@@@2@@std@@QAE@XZ 0040d250 f i Boss.obj
 0001:0000c280       ??1?$pair@V?$_Tree_iterator@V?$_Tree_val@U?$_Tree_simple_types@U?$pair@$$CBV?$basic_string@DU?$char_traits@D@std@@V?$allocator@D@2@@std@@V?$shared_ptr@VRawImageData@@@2@@std@@@std@@@std@@@std@@_N@std@@QAE@XZ 0040d280 f i Boss.obj
 0001:0000c2a0       ??1?$pair@V?$_Tree_iterator@V?$_Tree_val@U?$_Tree_simple_types@U?$pair@$$CBV?$basic_string@DU?$char_traits@D@std@@V?$allocator@D@2@@std@@V?$weak_ptr@VRawImageData@@@2@@std@@@std@@@std@@@std@@_N@std@@QAE@XZ 0040d2a0 f i Boss.obj
 0001:0000c2c0       ??1?$pair@V?$basic_string@DU?$char_traits@D@std@@V?$allocator@D@2@@std@@V?$shared_ptr@VRawImageData@@@2@@std@@QAE@XZ 0040d2c0 f i Boss.obj
 0001:0000c2f0       ??1?$pair@V?$basic_string@DU?$char_traits@D@std@@V?$allocator@D@2@@std@@V?$weak_ptr@VRawImageData@@@2@@std@@QAE@XZ 0040d2f0 f i Boss.obj
 0001:0000c320       ??1?$queue@UPoint@Boss@@V?$deque@UPoint@Boss@@V?$allocator@UPoint@Boss@@@std@@@std@@@std@@QAE@XZ 0040d320 f i Boss.obj
 0001:0000c340       ??1?$shared_ptr@VRawImageData@@@std@@QAE@XZ 0040d340 f i Boss.obj
 0001:0000c360       ??1?$vector@UPoint@Boss@@V?$allocator@UPoint@Boss@@@std@@@std@@QAE@XZ 0040d360 f i Boss.obj
 0001:0000c3d0       ??1?$weak_ptr@VRawImageData@@@std@@QAE@XZ 0040d3d0 f i Boss.obj
 0001:0000c3f0       ??1RawImageData@@QAE@XZ    0040d3f0 f i Boss.obj
 0001:0000c450       ??1SimpleImage@@QAE@XZ     0040d450 f i Boss.obj
 0001:0000c4a0       ??1_Bxty@?$_String_val@U?$_Simple_types@D@std@@@std@@QAE@XZ 0040d4a0 f i Boss.obj
 0001:0000c4b0       ??1_Iterator_base12@std@@QAE@XZ 0040d4b0 f i Boss.obj
 0001:0000c4f0       ??1_Ref_count_base@std@@UAE@XZ 0040d4f0 f i Boss.obj
 0001:0000c500       ??1_Sentry_base@?$basic_ostream@DU?$char_traits@D@std@@@std@@QAE@XZ 0040d500 f i Boss.obj
 0001:0000c590       ??1bad_alloc@std@@UAE@XZ   0040d590 f i Boss.obj
 0001:0000c5b0       ??1bad_array_new_length@std@@UAE@XZ 0040d5b0 f i Boss.obj
 0001:0000c5d0       ??1exception@std@@UAE@XZ   0040d5d0 f i Boss.obj
 0001:0000c600       ??1sentry@?$basic_ostream@DU?$char_traits@D@std@@@std@@QAE@XZ 0040d600 f i Boss.obj
 0001:0000c690       ??2@YAPAXIPAX@Z            0040d690 f i Boss.obj
 0001:0000c6a0       ??4?$vector@UPoint@Boss@@V?$allocator@UPoint@Boss@@@std@@@std@@QAEAAV01@ABV01@@Z 0040d6a0 f i Boss.obj
 0001:0000c6f0       ??4Point@Boss@@QAEAAU01@ABU01@@Z 0040d6f0 f i Boss.obj
 0001:0000c720       ??4_Iterator_base12@std@@QAEAAU01@ABU01@@Z 0040d720 f i Boss.obj
 0001:0000c790       ??8?$_Tree_const_iterator@V?$_Tree_val@U?$_Tree_simple_types@U?$pair@$$CBV?$basic_string@DU?$char_traits@D@std@@V?$allocator@D@2@@std@@V?$weak_ptr@VRawImageData@@@2@@std@@@std@@@std@@@std@@QBE_NABV01@@Z 0040d790 f i Boss.obj
 0001:0000c850       ??8Point@Boss@@QBE_NABU01@@Z 0040d850 f i Boss.obj
 0001:0000c8a0       ??9?$_Tree_const_iterator@V?$_Tree_val@U?$_Tree_simple_types@U?$pair@$$CBV?$basic_string@DU?$char_traits@D@std@@V?$allocator@D@2@@std@@V?$weak_ptr@VRawImageData@@@2@@std@@@std@@@std@@@std@@QBE_NABV01@@Z 0040d8a0 f i Boss.obj
 0001:0000c8f0       ??A?$vector@PAVDisplayableObject@@V?$allocator@PAVDisplayableObject@@@std@@@std@@QBEABQAVDisplayableObject@@I@Z 0040d8f0 f i Boss.obj
 0001:0000c9a0       ??A?$vector@UPoint@Boss@@V?$allocator@UPoint@Boss@@@std@@@std@@QAEAAUPoint@Boss@@I@Z 0040d9a0 f i Boss.obj
 0001:0000ca50       ??Bsentry@?$basic_ostream@DU?$char_traits@D@std@@@std@@QBE_NXZ 0040da50 f i Boss.obj
 0001:0000ca70       ??C?$_Tree_iterator@V?$_Tree_val@U?$_Tree_simple_types@U?$pair@$$CBV?$basic_string@DU?$char_traits@D@std@@V?$allocator@D@2@@std@@V?$weak_ptr@VRawImageData@@@2@@std@@@std@@@std@@@std@@QBEPAU?$pair@$$CBV?$basic_string@DU?$char_traits@D@std@@V?$allocator@D@2@@std@@V?$weak_ptr@VRawImageData@@@2@@1@XZ 0040da70 f i Boss.obj
 0001:0000caa0       ??D?$_Deque_unchecked_const_iterator@V?$_Deque_val@U?$_Deque_simple_types@UPoint@Boss@@@std@@@std@@@std@@QBEABUPoint@Boss@@XZ 0040daa0 f i Boss.obj
 0001:0000cb00       ??D?$_Deque_unchecked_iterator@V?$_Deque_val@U?$_Deque_simple_types@UPoint@Boss@@@std@@@std@@@std@@QBEAAUPoint@Boss@@XZ 0040db00 f i Boss.obj
 0001:0000cb20       ??D?$_Tree_const_iterator@V?$_Tree_val@U?$_Tree_simple_types@U?$pair@$$CBV?$basic_string@DU?$char_traits@D@std@@V?$allocator@D@2@@std@@V?$weak_ptr@VRawImageData@@@2@@std@@@std@@@std@@@std@@QBEABU?$pair@$$CBV?$basic_string@DU?$char_traits@D@std@@V?$allocator@D@2@@std@@V?$weak_ptr@VRawImageData@@@2@@1@XZ 0040db20 f i Boss.obj
 0001:0000cc30       ??D?$_Tree_iterator@V?$_Tree_val@U?$_Tree_simple_types@U?$pair@$$CBV?$basic_string@DU?$char_traits@D@std@@V?$allocator@D@2@@std@@V?$weak_ptr@VRawImageData@@@2@@std@@@std@@@std@@@std@@QBEAAU?$pair@$$CBV?$basic_string@DU?$char_traits@D@std@@V?$allocator@D@2@@std@@V?$weak_ptr@VRawImageData@@@2@@1@XZ 0040dc30 f i Boss.obj
 0001:0000cc50       ??E?$_Tree_unchecked_const_iterator@V?$_Tree_val@U?$_Tree_simple_types@U?$pair@$$CBV?$basic_string@DU?$char_traits@D@std@@V?$allocator@D@2@@std@@V?$weak_ptr@VRawImageData@@@2@@std@@@std@@@std@@U_Iterator_base0@2@@std@@QAEAAV01@XZ 0040dc50 f i Boss.obj
 0001:0000cce0       ??R<lambda_9366063389c5f42a00a5088cf24e69de>@@QBE@QADIQBD@Z 0040dce0 f i Boss.obj
 0001:0000cd30       ??R?$less@V?$basic_string@DU?$char_traits@D@std@@V?$allocator@D@2@@std@@@std@@QBE_NABV?$basic_string@DU?$char_traits@D@std@@V?$allocator@D@2@@1@0@Z 0040dd30 f i Boss.obj
 0001:0000cd60       ??_FPoint@Boss@@QAEXXZ     0040dd60 f i Boss.obj
 0001:0000cd80       ??_E?$_Ref_count@VRawImageData@@@std@@UAEPAXI@Z 0040dd80 f i Boss.obj
 0001:0000cd80       ??_G?$_Ref_count@VRawImageData@@@std@@UAEPAXI@Z 0040dd80 f i Boss.obj
 0001:0000cdc0       ??_G?$pair@$$CBV?$basic_string@DU?$char_traits@D@std@@V?$allocator@D@2@@std@@V?$shared_ptr@VRawImageData@@@2@@std@@QAEPAXI@Z 0040ddc0 f i Boss.obj
 0001:0000ce00       ??_G?$pair@$$CBV?$basic_string@DU?$char_traits@D@std@@V?$allocator@D@2@@std@@V?$weak_ptr@VRawImageData@@@2@@std@@QAEPAXI@Z 0040de00 f i Boss.obj
 0001:0000ce40       ??_EBoss@@UAEPAXI@Z        0040de40 f i Boss.obj
 0001:0000ce40       ??_GBoss@@UAEPAXI@Z        0040de40 f i Boss.obj
 0001:0000ce80       ??_GRawImageData@@QAEPAXI@Z 0040de80 f i Boss.obj
 0001:0000cec0       ??_Ebad_alloc@std@@UAEPAXI@Z 0040dec0 f i Boss.obj
 0001:0000cec0       ??_Gbad_alloc@std@@UAEPAXI@Z 0040dec0 f i Boss.obj
 0001:0000cf00       ??_Gbad_array_new_length@std@@UAEPAXI@Z 0040df00 f i Boss.obj
 0001:0000cf00       ??_Ebad_array_new_length@std@@UAEPAXI@Z 0040df00 f i Boss.obj
 0001:0000cf40       ??_Eexception@std@@UAEPAXI@Z 0040df40 f i Boss.obj
 0001:0000cf40       ??_Gexception@std@@UAEPAXI@Z 0040df40 f i Boss.obj
 0001:0000cf80       ??_H@YGXPAXIIP6EPAX0@Z@Z   0040df80 f i Boss.obj
 0001:0000cfc0       ?_Adjust_manually_vector_aligned@std@@YAXAAPAXAAI@Z 0040dfc0 f i Boss.obj
 0001:0000d100       ?_Adopt@_Iterator_base0@std@@QAEXPBX@Z 0040e100 f i Boss.obj
 0001:0000d110       ?_Adopt@_Iterator_base12@std@@QAEXPBU_Container_base12@2@@Z 0040e110 f i Boss.obj
 0001:0000d1b0       ?_Alloc_sentinel_and_proxy@?$_Tree@V?$_Tmap_traits@V?$basic_string@DU?$char_traits@D@std@@V?$allocator@D@2@@std@@V?$shared_ptr@VRawImageData@@@2@U?$less@V?$basic_string@DU?$char_traits@D@std@@V?$allocator@D@2@@std@@@2@V?$allocator@U?$pair@$$CBV?$basic_string@DU?$char_traits@D@std@@V?$allocator@D@2@@std@@V?$shared_ptr@VRawImageData@@@2@@std@@@2@$0A@@std@@@std@@IAEXXZ 0040e1b0 f i Boss.obj
 0001:0000d280       ?_Alloc_sentinel_and_proxy@?$_Tree@V?$_Tmap_traits@V?$basic_string@DU?$char_traits@D@std@@V?$allocator@D@2@@std@@V?$weak_ptr@VRawImageData@@@2@U?$less@V?$basic_string@DU?$char_traits@D@std@@V?$allocator@D@2@@std@@@2@V?$allocator@U?$pair@$$CBV?$basic_string@DU?$char_traits@D@std@@V?$allocator@D@2@@std@@V?$weak_ptr@VRawImageData@@@2@@std@@@2@$0A@@std@@@std@@IAEXXZ 0040e280 f i Boss.obj
 0001:0000d350       ?_Allocate@?$_Alloc_construct_ptr@V?$allocator@U?$_Tree_node@U?$pair@$$CBV?$basic_string@DU?$char_traits@D@std@@V?$allocator@D@2@@std@@V?$shared_ptr@VRawImageData@@@2@@std@@PAX@std@@@std@@@std@@QAEXXZ 0040e350 f i Boss.obj
 0001:0000d380       ?_Allocate@?$_Alloc_construct_ptr@V?$allocator@U?$_Tree_node@U?$pair@$$CBV?$basic_string@DU?$char_traits@D@std@@V?$allocator@D@2@@std@@V?$weak_ptr@VRawImageData@@@2@@std@@PAX@std@@@std@@@std@@QAEXXZ 0040e380 f i Boss.obj
 0001:0000d3b0       ?_Allocate@_Default_allocate_traits@std@@SAPAXI@Z 0040e3b0 f i Boss.obj
 0001:0000d3d0       ?_Buy_raw@?$vector@UPoint@Boss@@V?$allocator@UPoint@Boss@@@std@@@std@@AAEXI@Z 0040e3d0 f i Boss.obj
 0001:0000d450       ?_Calculate_growth@?$basic_string@DU?$char_traits@D@std@@V?$allocator@D@2@@std@@ABEII@Z 0040e450 f i Boss.obj
 0001:0000d490       ?_Calculate_growth@?$basic_string@DU?$char_traits@D@std@@V?$allocator@D@2@@std@@CAIIII@Z 0040e490 f i Boss.obj
 0001:0000d500       ?_Calculate_growth@?$vector@UPoint@Boss@@V?$allocator@UPoint@Boss@@@std@@@std@@ABEII@Z 0040e500 f i Boss.obj
 0001:0000d570       ?_Change_array@?$vector@UPoint@Boss@@V?$allocator@UPoint@Boss@@@std@@@std@@AAEXQAUPoint@Boss@@II@Z 0040e570 f i Boss.obj
 0001:0000d640       ?_Check_grow_by_1@?$_Tree@V?$_Tmap_traits@V?$basic_string@DU?$char_traits@D@std@@V?$allocator@D@2@@std@@V?$shared_ptr@VRawImageData@@@2@U?$less@V?$basic_string@DU?$char_traits@D@std@@V?$allocator@D@2@@std@@@2@V?$allocator@U?$pair@$$CBV?$basic_string@DU?$char_traits@D@std@@V?$allocator@D@2@@std@@V?$shared_ptr@VRawImageData@@@2@@std@@@2@$0A@@std@@@std@@IAEXXZ 0040e640 f i Boss.obj
 0001:0000d680       ?_Check_grow_by_1@?$_Tree@V?$_Tmap_traits@V?$basic_string@DU?$char_traits@D@std@@V?$allocator@D@2@@std@@V?$weak_ptr@VRawImageData@@@2@U?$less@V?$basic_string@DU?$char_traits@D@std@@V?$allocator@D@2@@std@@@2@V?$allocator@U?$pair@$$CBV?$basic_string@DU?$char_traits@D@std@@V?$allocator@D@2@@std@@V?$weak_ptr@VRawImageData@@@2@@std@@@2@$0A@@std@@@std@@IAEXXZ 0040e680 f i Boss.obj
 0001:0000d6c0       ?_Clear_and_reserve_geometric@?$vector@UPoint@Boss@@V?$allocator@UPoint@Boss@@@std@@@std@@AAEXI@Z 0040e6c0 f i Boss.obj
 0001:0000d7b0       ?_Construct_lv_contents@?$basic_string@DU?$char_traits@D@std@@V?$allocator@D@2@@std@@AAEXABV12@@Z 0040e7b0 f i Boss.obj
 0001:0000d8e0       ?_Copy_assign@?$vector@UPoint@Boss@@V?$allocator@UPoint@Boss@@@std@@@std@@AAEXABV12@U?$integral_constant@_N$0A@@2@@Z 0040e8e0 f i Boss.obj
 0001:0000d940       ?_Decref@?$_Ptr_base@VRawImageData@@@std@@IAEXXZ 0040e940 f i Boss.obj
 0001:0000d970       ?_Decref@_Ref_count_base@std@@QAEXXZ 0040e970 f i Boss.obj
 0001:0000d9b0       ?_Decwref@?$_Ptr_base@VRawImageData@@@std@@IAEXXZ 0040e9b0 f i Boss.obj
 0001:0000d9e0       ?_Decwref@_Ref_count_base@std@@QAEXXZ 0040e9e0 f i Boss.obj
 0001:0000da20       ?_Delete_this@?$_Ref_count@VRawImageData@@@std@@EAEXXZ 0040ea20 f i Boss.obj
 0001:0000da70       ?_Destroy@?$_Ref_count@VRawImageData@@@std@@EAEXXZ 0040ea70 f i Boss.obj
 0001:0000dab0       ?_Destroy@?$vector@UPoint@Boss@@V?$allocator@UPoint@Boss@@@std@@@std@@AAEXPAUPoint@Boss@@0@Z 0040eab0 f i Boss.obj
 0001:0000dae0       ?_Erase_unchecked@?$_Tree@V?$_Tmap_traits@V?$basic_string@DU?$char_traits@D@std@@V?$allocator@D@2@@std@@V?$weak_ptr@VRawImageData@@@2@U?$less@V?$basic_string@DU?$char_traits@D@std@@V?$allocator@D@2@@std@@@2@V?$allocator@U?$pair@$$CBV?$basic_string@DU?$char_traits@D@std@@V?$allocator@D@2@@std@@V?$weak_ptr@VRawImageData@@@2@@std@@@2@$0A@@std@@@std@@AAEPAU?$_Tree_node@U?$pair@$$CBV?$basic_string@DU?$char_traits@D@std@@V?$allocator@D@2@@std@@V?$weak_ptr@VRawImageData@@@2@@std@@PAX@2@V?$_Tree_unchecked_const_iterator@V?$_Tree_val@U?$_Tree_simple_types@U?$pair@$$CBV?$basic_string@DU?$char_traits@D@std@@V?$allocator@D@2@@std@@V?$weak_ptr@VRawImageData@@@2@@std@@@std@@@std@@U_Iterator_base0@2@@2@@Z 0040eae0 f i Boss.obj
 0001:0000db90       ?_Extract@?$_In_place_key_extract_map@V?$basic_string@DU?$char_traits@D@std@@V?$allocator@D@2@@std@@U?$pair@V?$basic_string@DU?$char_traits@D@std@@V?$allocator@D@2@@std@@V?$shared_ptr@VRawImageData@@@2@@2@@std@@SAABV?$basic_string@DU?$char_traits@D@std@@V?$allocator@D@2@@2@ABU?$pair@V?$basic_string@DU?$char_traits@D@std@@V?$allocator@D@2@@std@@V?$shared_ptr@VRawImageData@@@2@@2@@Z 0040eb90 f i Boss.obj
 0001:0000dba0       ?_Extract@?$_In_place_key_extract_map@V?$basic_string@DU?$char_traits@D@std@@V?$allocator@D@2@@std@@U?$pair@V?$basic_string@DU?$char_traits@D@std@@V?$allocator@D@2@@std@@V?$weak_ptr@VRawImageData@@@2@@2@@std@@SAABV?$basic_string@DU?$char_traits@D@std@@V?$allocator@D@2@@2@ABU?$pair@V?$basic_string@DU?$char_traits@D@std@@V?$allocator@D@2@@std@@V?$weak_ptr@VRawImageData@@@2@@2@@Z 0040eba0 f i Boss.obj
 0001:0000dbb0       ?_Extract@?$_Tree_val@U?$_Tree_simple_types@U?$pair@$$CBV?$basic_string@DU?$char_traits@D@std@@V?$allocator@D@2@@std@@V?$weak_ptr@VRawImageData@@@2@@std@@@std@@@std@@QAEPAU?$_Tree_node@U?$pair@$$CBV?$basic_string@DU?$char_traits@D@std@@V?$allocator@D@2@@std@@V?$weak_ptr@VRawImageData@@@2@@std@@PAX@2@V?$_Tree_unchecked_const_iterator@V?$_Tree_val@U?$_Tree_simple_types@U?$pair@$$CBV?$basic_string@DU?$char_traits@D@std@@V?$allocator@D@2@@std@@V?$weak_ptr@VRawImageData@@@2@@std@@@std@@@std@@U_Iterator_base0@2@@2@@Z 0040ebb0 f i Boss.obj
 0001:0000e130       ?_Get_data@?$deque@UPoint@Boss@@V?$allocator@UPoint@Boss@@@std@@@std@@AAEAAV?$_Deque_val@U?$_Deque_simple_types@UPoint@Boss@@@std@@@2@XZ 0040f130 f i Boss.obj
 0001:0000e150       ?_Get_data@?$deque@UPoint@Boss@@V?$allocator@UPoint@Boss@@@std@@@std@@ABEABV?$_Deque_val@U?$_Deque_simple_types@UPoint@Boss@@@std@@@2@XZ 0040f150 f i Boss.obj
 0001:0000e170       ?_Get_deleter@_Ref_count_base@std@@UBEPAXABVtype_info@@@Z 0040f170 f i Boss.obj
 0001:0000e190       ?_Get_first@?$_Compressed_pair@U?$less@V?$basic_string@DU?$char_traits@D@std@@V?$allocator@D@2@@std@@@std@@V?$_Compressed_pair@V?$allocator@U?$_Tree_node@U?$pair@$$CBV?$basic_string@DU?$char_traits@D@std@@V?$allocator@D@2@@std@@V?$shared_ptr@VRawImageData@@@2@@std@@PAX@std@@@std@@V?$_Tree_val@U?$_Tree_simple_types@U?$pair@$$CBV?$basic_string@DU?$char_traits@D@std@@V?$allocator@D@2@@std@@V?$shared_ptr@VRawImageData@@@2@@std@@@std@@@2@$00@2@$00@std@@QBEABU?$less@V?$basic_string@DU?$char_traits@D@std@@V?$allocator@D@2@@std@@@2@XZ 0040f190 f i Boss.obj
 0001:0000e1b0       ?_Get_first@?$_Compressed_pair@U?$less@V?$basic_string@DU?$char_traits@D@std@@V?$allocator@D@2@@std@@@std@@V?$_Compressed_pair@V?$allocator@U?$_Tree_node@U?$pair@$$CBV?$basic_string@DU?$char_traits@D@std@@V?$allocator@D@2@@std@@V?$weak_ptr@VRawImageData@@@2@@std@@PAX@std@@@std@@V?$_Tree_val@U?$_Tree_simple_types@U?$pair@$$CBV?$basic_string@DU?$char_traits@D@std@@V?$allocator@D@2@@std@@V?$weak_ptr@VRawImageData@@@2@@std@@@std@@@2@$00@2@$00@std@@QBEABU?$less@V?$basic_string@DU?$char_traits@D@std@@V?$allocator@D@2@@std@@@2@XZ 0040f1b0 f i Boss.obj
 0001:0000e1d0       ?_Get_first@?$_Compressed_pair@V?$allocator@D@std@@V?$_String_val@U?$_Simple_types@D@std@@@2@$00@std@@QAEAAV?$allocator@D@2@XZ 0040f1d0 f i Boss.obj
 0001:0000e1f0       ?_Get_first@?$_Compressed_pair@V?$allocator@D@std@@V?$_String_val@U?$_Simple_types@D@std@@@2@$00@std@@QBEABV?$allocator@D@2@XZ 0040f1f0 f i Boss.obj
 0001:0000e210       ?_Get_first@?$_Compressed_pair@V?$allocator@U?$_Tree_node@U?$pair@$$CBV?$basic_string@DU?$char_traits@D@std@@V?$allocator@D@2@@std@@V?$shared_ptr@VRawImageData@@@2@@std@@PAX@std@@@std@@V?$_Tree_val@U?$_Tree_simple_types@U?$pair@$$CBV?$basic_string@DU?$char_traits@D@std@@V?$allocator@D@2@@std@@V?$shared_ptr@VRawImageData@@@2@@std@@@std@@@2@$00@std@@QAEAAV?$allocator@U?$_Tree_node@U?$pair@$$CBV?$basic_string@DU?$char_traits@D@std@@V?$allocator@D@2@@std@@V?$shared_ptr@VRawImageData@@@2@@std@@PAX@std@@@2@XZ 0040f210 f i Boss.obj
 0001:0000e230       ?_Get_first@?$_Compressed_pair@V?$allocator@U?$_Tree_node@U?$pair@$$CBV?$basic_string@DU?$char_traits@D@std@@V?$allocator@D@2@@std@@V?$shared_ptr@VRawImageData@@@2@@std@@PAX@std@@@std@@V?$_Tree_val@U?$_Tree_simple_types@U?$pair@$$CBV?$basic_string@DU?$char_traits@D@std@@V?$allocator@D@2@@std@@V?$shared_ptr@VRawImageData@@@2@@std@@@std@@@2@$00@std@@QBEABV?$allocator@U?$_Tree_node@U?$pair@$$CBV?$basic_string@DU?$char_traits@D@std@@V?$allocator@D@2@@std@@V?$shared_ptr@VRawImageData@@@2@@std@@PAX@std@@@2@XZ 0040f230 f i Boss.obj
 0001:0000e250       ?_Get_first@?$_Compressed_pair@V?$allocator@U?$_Tree_node@U?$pair@$$CBV?$basic_string@DU?$char_traits@D@std@@V?$allocator@D@2@@std@@V?$weak_ptr@VRawImageData@@@2@@std@@PAX@std@@@std@@V?$_Tree_val@U?$_Tree_simple_types@U?$pair@$$CBV?$basic_string@DU?$char_traits@D@std@@V?$allocator@D@2@@std@@V?$weak_ptr@VRawImageData@@@2@@std@@@std@@@2@$00@std@@QAEAAV?$allocator@U?$_Tree_node@U?$pair@$$CBV?$basic_string@DU?$char_traits@D@std@@V?$allocator@D@2@@std@@V?$weak_ptr@VRawImageData@@@2@@std@@PAX@std@@@2@XZ 0040f250 f i Boss.obj
 0001:0000e270       ?_Get_first@?$_Compressed_pair@V?$allocator@U?$_Tree_node@U?$pair@$$CBV?$basic_string@DU?$char_traits@D@std@@V?$allocator@D@2@@std@@V?$weak_ptr@VRawImageData@@@2@@std@@PAX@std@@@std@@V?$_Tree_val@U?$_Tree_simple_types@U?$pair@$$CBV?$basic_string@DU?$char_traits@D@std@@V?$allocator@D@2@@std@@V?$weak_ptr@VRawImageData@@@2@@std@@@std@@@2@$00@std@@QBEABV?$allocator@U?$_Tree_node@U?$pair@$$CBV?$basic_string@DU?$char_traits@D@std@@V?$allocator@D@2@@std@@V?$weak_ptr@VRawImageData@@@2@@std@@PAX@std@@@2@XZ 0040f270 f i Boss.obj
 0001:0000e290       ?_Get_first@?$_Compressed_pair@V?$allocator@UPoint@Boss@@@std@@V?$_Deque_val@U?$_Deque_simple_types@UPoint@Boss@@@std@@@2@$00@std@@QAEAAV?$allocator@UPoint@Boss@@@2@XZ 0040f290 f i Boss.obj
 0001:0000e2b0       ?_Get_first@?$_Compressed_pair@V?$allocator@UPoint@Boss@@@std@@V?$_Deque_val@U?$_Deque_simple_types@UPoint@Boss@@@std@@@2@$00@std@@QBEABV?$allocator@UPoint@Boss@@@2@XZ 0040f2b0 f i Boss.obj
 0001:0000e2d0       ?_Get_first@?$_Compressed_pair@V?$allocator@UPoint@Boss@@@std@@V?$_Vector_val@U?$_Simple_types@UPoint@Boss@@@std@@@2@$00@std@@QAEAAV?$allocator@UPoint@Boss@@@2@XZ 0040f2d0 f i Boss.obj
 0001:0000e2f0       ?_Get_first@?$_Compressed_pair@V?$allocator@UPoint@Boss@@@std@@V?$_Vector_val@U?$_Simple_types@UPoint@Boss@@@std@@@2@$00@std@@QBEABV?$allocator@UPoint@Boss@@@2@XZ 0040f2f0 f i Boss.obj
 0001:0000e310       ?_Get_scary@?$_Tree@V?$_Tmap_traits@V?$basic_string@DU?$char_traits@D@std@@V?$allocator@D@2@@std@@V?$shared_ptr@VRawImageData@@@2@U?$less@V?$basic_string@DU?$char_traits@D@std@@V?$allocator@D@2@@std@@@2@V?$allocator@U?$pair@$$CBV?$basic_string@DU?$char_traits@D@std@@V?$allocator@D@2@@std@@V?$shared_ptr@VRawImageData@@@2@@std@@@2@$0A@@std@@@std@@IAEPAV?$_Tree_val@U?$_Tree_simple_types@U?$pair@$$CBV?$basic_string@DU?$char_traits@D@std@@V?$allocator@D@2@@std@@V?$shared_ptr@VRawImageData@@@2@@std@@@std@@@2@XZ 0040f310 f i Boss.obj
 0001:0000e330       ?_Get_scary@?$_Tree@V?$_Tmap_traits@V?$basic_string@DU?$char_traits@D@std@@V?$allocator@D@2@@std@@V?$shared_ptr@VRawImageData@@@2@U?$less@V?$basic_string@DU?$char_traits@D@std@@V?$allocator@D@2@@std@@@2@V?$allocator@U?$pair@$$CBV?$basic_string@DU?$char_traits@D@std@@V?$allocator@D@2@@std@@V?$shared_ptr@VRawImageData@@@2@@std@@@2@$0A@@std@@@std@@IBEPBV?$_Tree_val@U?$_Tree_simple_types@U?$pair@$$CBV?$basic_string@DU?$char_traits@D@std@@V?$allocator@D@2@@std@@V?$shared_ptr@VRawImageData@@@2@@std@@@std@@@2@XZ 0040f330 f i Boss.obj
 0001:0000e350       ?_Get_scary@?$_Tree@V?$_Tmap_traits@V?$basic_string@DU?$char_traits@D@std@@V?$allocator@D@2@@std@@V?$weak_ptr@VRawImageData@@@2@U?$less@V?$basic_string@DU?$char_traits@D@std@@V?$allocator@D@2@@std@@@2@V?$allocator@U?$pair@$$CBV?$basic_string@DU?$char_traits@D@std@@V?$allocator@D@2@@std@@V?$weak_ptr@VRawImageData@@@2@@std@@@2@$0A@@std@@@std@@IAEPAV?$_Tree_val@U?$_Tree_simple_types@U?$pair@$$CBV?$basic_string@DU?$char_traits@D@std@@V?$allocator@D@2@@std@@V?$weak_ptr@VRawImageData@@@2@@std@@@std@@@2@XZ 0040f350 f i Boss.obj
 0001:0000e370       ?_Get_scary@?$_Tree@V?$_Tmap_traits@V?$basic_string@DU?$char_traits@D@std@@V?$allocator@D@2@@std@@V?$weak_ptr@VRawImageData@@@2@U?$less@V?$basic_string@DU?$char_traits@D@std@@V?$allocator@D@2@@std@@@2@V?$allocator@U?$pair@$$CBV?$basic_string@DU?$char_traits@D@std@@V?$allocator@D@2@@std@@V?$weak_ptr@VRawImageData@@@2@@std@@@2@$0A@@std@@@std@@IBEPBV?$_Tree_val@U?$_Tree_simple_types@U?$pair@$$CBV?$basic_string@DU?$char_traits@D@std@@V?$allocator@D@2@@std@@V?$weak_ptr@VRawImageData@@@2@@std@@@std@@@2@XZ 0040f370 f i Boss.obj
 0001:0000e390       ?_Getal@?$_Tree@V?$_Tmap_traits@V?$basic_string@DU?$char_traits@D@std@@V?$allocator@D@2@@std@@V?$shared_ptr@VRawImageData@@@2@U?$less@V?$basic_string@DU?$char_traits@D@std@@V?$allocator@D@2@@std@@@2@V?$allocator@U?$pair@$$CBV?$basic_string@DU?$char_traits@D@std@@V?$allocator@D@2@@std@@V?$shared_ptr@VRawImageData@@@2@@std@@@2@$0A@@std@@@std@@IAEAAV?$allocator@U?$_Tree_node@U?$pair@$$CBV?$basic_string@DU?$char_traits@D@std@@V?$allocator@D@2@@std@@V?$shared_ptr@VRawImageData@@@2@@std@@PAX@std@@@2@XZ 0040f390 f i Boss.obj
 0001:0000e3b0       ?_Getal@?$_Tree@V?$_Tmap_traits@V?$basic_string@DU?$char_traits@D@std@@V?$allocator@D@2@@std@@V?$shared_ptr@VRawImageData@@@2@U?$less@V?$basic_string@DU?$char_traits@D@std@@V?$allocator@D@2@@std@@@2@V?$allocator@U?$pair@$$CBV?$basic_string@DU?$char_traits@D@std@@V?$allocator@D@2@@std@@V?$shared_ptr@VRawImageData@@@2@@std@@@2@$0A@@std@@@std@@IBEABV?$allocator@U?$_Tree_node@U?$pair@$$CBV?$basic_string@DU?$char_traits@D@std@@V?$allocator@D@2@@std@@V?$shared_ptr@VRawImageData@@@2@@std@@PAX@std@@@2@XZ 0040f3b0 f i Boss.obj
 0001:0000e3d0       ?_Getal@?$_Tree@V?$_Tmap_traits@V?$basic_string@DU?$char_traits@D@std@@V?$allocator@D@2@@std@@V?$weak_ptr@VRawImageData@@@2@U?$less@V?$basic_string@DU?$char_traits@D@std@@V?$allocator@D@2@@std@@@2@V?$allocator@U?$pair@$$CBV?$basic_string@DU?$char_traits@D@std@@V?$allocator@D@2@@std@@V?$weak_ptr@VRawImageData@@@2@@std@@@2@$0A@@std@@@std@@IAEAAV?$allocator@U?$_Tree_node@U?$pair@$$CBV?$basic_string@DU?$char_traits@D@std@@V?$allocator@D@2@@std@@V?$weak_ptr@VRawImageData@@@2@@std@@PAX@std@@@2@XZ 0040f3d0 f i Boss.obj
 0001:0000e3f0       ?_Getal@?$_Tree@V?$_Tmap_traits@V?$basic_string@DU?$char_traits@D@std@@V?$allocator@D@2@@std@@V?$weak_ptr@VRawImageData@@@2@U?$less@V?$basic_string@DU?$char_traits@D@std@@V?$allocator@D@2@@std@@@2@V?$allocator@U?$pair@$$CBV?$basic_string@DU?$char_traits@D@std@@V?$allocator@D@2@@std@@V?$weak_ptr@VRawImageData@@@2@@std@@@2@$0A@@std@@@std@@IBEABV?$allocator@U?$_Tree_node@U?$pair@$$CBV?$basic_string@DU?$char_traits@D@std@@V?$allocator@D@2@@std@@V?$weak_ptr@VRawImageData@@@2@@std@@PAX@std@@@2@XZ 0040f3f0 f i Boss.obj
 0001:0000e410       ?_Getal@?$basic_string@DU?$char_traits@D@std@@V?$allocator@D@2@@std@@AAEAAV?$allocator@D@2@XZ 0040f410 f i Boss.obj
 0001:0000e430       ?_Getal@?$basic_string@DU?$char_traits@D@std@@V?$allocator@D@2@@std@@ABEABV?$allocator@D@2@XZ 0040f430 f i Boss.obj
 0001:0000e450       ?_Getal@?$deque@UPoint@Boss@@V?$allocator@UPoint@Boss@@@std@@@std@@AAEAAV?$allocator@UPoint@Boss@@@2@XZ 0040f450 f i Boss.obj
 0001:0000e470       ?_Getal@?$deque@UPoint@Boss@@V?$allocator@UPoint@Boss@@@std@@@std@@ABEABV?$allocator@UPoint@Boss@@@2@XZ 0040f470 f i Boss.obj
 0001:0000e490       ?_Getal@?$vector@UPoint@Boss@@V?$allocator@UPoint@Boss@@@std@@@std@@AAEAAV?$allocator@UPoint@Boss@@@2@XZ 0040f490 f i Boss.obj
 0001:0000e4b0       ?_Getal@?$vector@UPoint@Boss@@V?$allocator@UPoint@Boss@@@std@@@std@@ABEABV?$allocator@UPoint@Boss@@@2@XZ 0040f4b0 f i Boss.obj
 0001:0000e4d0       ?_Getblock@?$_Deque_val@U?$_Deque_simple_types@UPoint@Boss@@@std@@@std@@QBEII@Z 0040f4d0 f i Boss.obj
 0001:0000e500       ?_Getblock@?$deque@UPoint@Boss@@V?$allocator@UPoint@Boss@@@std@@@std@@ABEII@Z 0040f500 f i Boss.obj
 0001:0000e530       ?_Getcomp@?$_Tree@V?$_Tmap_traits@V?$basic_string@DU?$char_traits@D@std@@V?$allocator@D@2@@std@@V?$shared_ptr@VRawImageData@@@2@U?$less@V?$basic_string@DU?$char_traits@D@std@@V?$allocator@D@2@@std@@@2@V?$allocator@U?$pair@$$CBV?$basic_string@DU?$char_traits@D@std@@V?$allocator@D@2@@std@@V?$shared_ptr@VRawImageData@@@2@@std@@@2@$0A@@std@@@std@@IBEABU?$less@V?$basic_string@DU?$char_traits@D@std@@V?$allocator@D@2@@std@@@2@XZ 0040f530 f i Boss.obj
 0001:0000e550       ?_Getcomp@?$_Tree@V?$_Tmap_traits@V?$basic_string@DU?$char_traits@D@std@@V?$allocator@D@2@@std@@V?$weak_ptr@VRawImageData@@@2@U?$less@V?$basic_string@DU?$char_traits@D@std@@V?$allocator@D@2@@std@@@2@V?$allocator@U?$pair@$$CBV?$basic_string@DU?$char_traits@D@std@@V?$allocator@D@2@@std@@V?$weak_ptr@VRawImageData@@@2@@std@@@2@$0A@@std@@@std@@IBEABU?$less@V?$basic_string@DU?$char_traits@D@std@@V?$allocator@D@2@@std@@@2@XZ 0040f550 f i Boss.obj
 0001:0000e570       ?_Getcont@_Iterator_base12@std@@QBEPBU_Container_base12@2@XZ 0040f570 f i Boss.obj
 0001:0000e5b0       ?_Growmap@?$deque@UPoint@Boss@@V?$allocator@UPoint@Boss@@@std@@@std@@AAEXI@Z 0040f5b0 f i Boss.obj
 0001:0000e890       ?_Incref@_Ref_count_base@std@@QAEXXZ 0040f890 f i Boss.obj
 0001:0000e8b0       ?_Incref_nz@_Ref_count_base@std@@QAE_NXZ 0040f8b0 f i Boss.obj
 0001:0000e920       ?_Incwref@_Ref_count_base@std@@QAEXXZ 0040f920 f i Boss.obj
 0001:0000e940       ?_Insert_node@?$_Tree_val@U?$_Tree_simple_types@U?$pair@$$CBV?$basic_string@DU?$char_traits@D@std@@V?$allocator@D@2@@std@@V?$shared_ptr@VRawImageData@@@2@@std@@@std@@@std@@QAEPAU?$_Tree_node@U?$pair@$$CBV?$basic_string@DU?$char_traits@D@std@@V?$allocator@D@2@@std@@V?$shared_ptr@VRawImageData@@@2@@std@@PAX@2@U?$_Tree_id@PAU?$_Tree_node@U?$pair@$$CBV?$basic_string@DU?$char_traits@D@std@@V?$allocator@D@2@@std@@V?$shared_ptr@VRawImageData@@@2@@std@@PAX@std@@@2@QAU32@@Z 0040f940 f i Boss.obj
 0001:0000ebd0       ?_Insert_node@?$_Tree_val@U?$_Tree_simple_types@U?$pair@$$CBV?$basic_string@DU?$char_traits@D@std@@V?$allocator@D@2@@std@@V?$weak_ptr@VRawImageData@@@2@@std@@@std@@@std@@QAEPAU?$_Tree_node@U?$pair@$$CBV?$basic_string@DU?$char_traits@D@std@@V?$allocator@D@2@@std@@V?$weak_ptr@VRawImageData@@@2@@std@@PAX@2@U?$_Tree_id@PAU?$_Tree_node@U?$pair@$$CBV?$basic_string@DU?$char_traits@D@std@@V?$allocator@D@2@@std@@V?$weak_ptr@VRawImageData@@@2@@std@@PAX@std@@@2@QAU32@@Z 0040fbd0 f i Boss.obj
 0001:0000ee60       ?_Large_string_engaged@?$_String_val@U?$_Simple_types@D@std@@@std@@QBE_NXZ 0040fe60 f i Boss.obj
 0001:0000eea0       ?_Lrotate@?$_Tree_val@U?$_Tree_simple_types@U?$pair@$$CBV?$basic_string@DU?$char_traits@D@std@@V?$allocator@D@2@@std@@V?$shared_ptr@VRawImageData@@@2@@std@@@std@@@std@@QAEXPAU?$_Tree_node@U?$pair@$$CBV?$basic_string@DU?$char_traits@D@std@@V?$allocator@D@2@@std@@V?$shared_ptr@VRawImageData@@@2@@std@@PAX@2@@Z 0040fea0 f i Boss.obj
 0001:0000ef60       ?_Lrotate@?$_Tree_val@U?$_Tree_simple_types@U?$pair@$$CBV?$basic_string@DU?$char_traits@D@std@@V?$allocator@D@2@@std@@V?$weak_ptr@VRawImageData@@@2@@std@@@std@@@std@@QAEXPAU?$_Tree_node@U?$pair@$$CBV?$basic_string@DU?$char_traits@D@std@@V?$allocator@D@2@@std@@V?$weak_ptr@VRawImageData@@@2@@std@@PAX@2@@Z 0040ff60 f i Boss.obj
 0001:0000f020       ?_Map@?$deque@UPoint@Boss@@V?$allocator@UPoint@Boss@@@std@@@std@@AAEAAPAPAUPoint@Boss@@XZ 00410020 f i Boss.obj
 0001:0000f040       ?_Mapsize@?$deque@UPoint@Boss@@V?$allocator@UPoint@Boss@@@std@@@std@@AAEAAIXZ 00410040 f i Boss.obj
 0001:0000f060       ?_Max@?$_Tree_val@U?$_Tree_simple_types@U?$pair@$$CBV?$basic_string@DU?$char_traits@D@std@@V?$allocator@D@2@@std@@V?$weak_ptr@VRawImageData@@@2@@std@@@std@@@std@@SAPAU?$_Tree_node@U?$pair@$$CBV?$basic_string@DU?$char_traits@D@std@@V?$allocator@D@2@@std@@V?$weak_ptr@VRawImageData@@@2@@std@@PAX@2@PAU32@@Z 00410060 f i Boss.obj
 0001:0000f090       ?_Memcpy_val_from@?$basic_string@DU?$char_traits@D@std@@V?$allocator@D@2@@std@@AAEXABV12@@Z 00410090 f i Boss.obj
 0001:0000f0f0       ?_Min@?$_Tree_val@U?$_Tree_simple_types@U?$pair@$$CBV?$basic_string@DU?$char_traits@D@std@@V?$allocator@D@2@@std@@V?$weak_ptr@VRawImageData@@@2@@std@@@std@@@std@@SAPAU?$_Tree_node@U?$pair@$$CBV?$basic_string@DU?$char_traits@D@std@@V?$allocator@D@2@@std@@V?$weak_ptr@VRawImageData@@@2@@std@@PAX@2@PAU32@@Z 004100f0 f i Boss.obj
 0001:0000f120       ?_Myoff@?$deque@UPoint@Boss@@V?$allocator@UPoint@Boss@@@std@@@std@@AAEAAIXZ 00410120 f i Boss.obj
 0001:0000f140       ?_Myoff@?$deque@UPoint@Boss@@V?$allocator@UPoint@Boss@@@std@@@std@@ABEABIXZ 00410140 f i Boss.obj
 0001:0000f160       ?_Myptr@?$_String_val@U?$_Simple_types@D@std@@@std@@QAEPADXZ 00410160 f i Boss.obj
 0001:0000f1b0       ?_Myptr@?$_String_val@U?$_Simple_types@D@std@@@std@@QBEPBDXZ 004101b0 f i Boss.obj
 0001:0000f200       ?_Mysize@?$deque@UPoint@Boss@@V?$allocator@UPoint@Boss@@@std@@@std@@AAEAAIXZ 00410200 f i Boss.obj
 0001:0000f220       ?_Mysize@?$deque@UPoint@Boss@@V?$allocator@UPoint@Boss@@@std@@@std@@ABEABIXZ 00410220 f i Boss.obj
 0001:0000f240       ?_Orphan_all@?$deque@UPoint@Boss@@V?$allocator@UPoint@Boss@@@std@@@std@@AAEXXZ 00410240 f i Boss.obj
 0001:0000f260       ?_Orphan_all@_Container_base12@std@@QAEXXZ 00410260 f i Boss.obj
 0001:0000f2e0       ?_Orphan_me@_Iterator_base12@std@@QAEXXZ 004102e0 f i Boss.obj
 0001:0000f3c0       ?_Orphan_off@?$deque@UPoint@Boss@@V?$allocator@UPoint@Boss@@@std@@@std@@ABEXI@Z 004103c0 f i Boss.obj
 0001:0000f4c0       ?_Orphan_ptr@?$_Tree_val@U?$_Tree_simple_types@U?$pair@$$CBV?$basic_string@DU?$char_traits@D@std@@V?$allocator@D@2@@std@@V?$weak_ptr@VRawImageData@@@2@@std@@@std@@@std@@QAEXQAU?$_Tree_node@U?$pair@$$CBV?$basic_string@DU?$char_traits@D@std@@V?$allocator@D@2@@std@@V?$weak_ptr@VRawImageData@@@2@@std@@PAX@2@@Z 004104c0 f i Boss.obj
 0001:0000f570       ?_Orphan_range@?$vector@UPoint@Boss@@V?$allocator@UPoint@Boss@@@std@@@std@@ABEXPAUPoint@Boss@@0@Z 00410570 f i Boss.obj
 0001:0000f610       ?_Release@?$_Alloc_construct_ptr@V?$allocator@U?$_Tree_node@U?$pair@$$CBV?$basic_string@DU?$char_traits@D@std@@V?$allocator@D@2@@std@@V?$shared_ptr@VRawImageData@@@2@@std@@PAX@std@@@std@@@std@@QAEPAU?$_Tree_node@U?$pair@$$CBV?$basic_string@DU?$char_traits@D@std@@V?$allocator@D@2@@std@@V?$shared_ptr@VRawImageData@@@2@@std@@PAX@2@XZ 00410610 f i Boss.obj
 0001:0000f640       ?_Release@?$_Alloc_construct_ptr@V?$allocator@U?$_Tree_node@U?$pair@$$CBV?$basic_string@DU?$char_traits@D@std@@V?$allocator@D@2@@std@@V?$weak_ptr@VRawImageData@@@2@@std@@PAX@std@@@std@@@std@@QAEPAU?$_Tree_node@U?$pair@$$CBV?$basic_string@DU?$char_traits@D@std@@V?$allocator@D@2@@std@@V?$weak_ptr@VRawImageData@@@2@@std@@PAX@2@XZ 00410640 f i Boss.obj
 0001:0000f670       ?_Release@?$_Uninitialized_backout_al@V?$allocator@UPoint@Boss@@@std@@@std@@QAEPAUPoint@Boss@@XZ 00410670 f i Boss.obj
 0001:0000f6a0       ?_Release@_Basic_container_proxy_ptr12@std@@QAEXXZ 004106a0 f i Boss.obj
 0001:0000f6c0       ?_Rrotate@?$_Tree_val@U?$_Tree_simple_types@U?$pair@$$CBV?$basic_string@DU?$char_traits@D@std@@V?$allocator@D@2@@std@@V?$shared_ptr@VRawImageData@@@2@@std@@@std@@@std@@QAEXPAU?$_Tree_node@U?$pair@$$CBV?$basic_string@DU?$char_traits@D@std@@V?$allocator@D@2@@std@@V?$shared_ptr@VRawImageData@@@2@@std@@PAX@2@@Z 004106c0 f i Boss.obj
 0001:0000f790       ?_Rrotate@?$_Tree_val@U?$_Tree_simple_types@U?$pair@$$CBV?$basic_string@DU?$char_traits@D@std@@V?$allocator@D@2@@std@@V?$weak_ptr@VRawImageData@@@2@@std@@@std@@@std@@QAEXPAU?$_Tree_node@U?$pair@$$CBV?$basic_string@DU?$char_traits@D@std@@V?$allocator@D@2@@std@@V?$weak_ptr@VRawImageData@@@2@@std@@PAX@2@@Z 00410790 f i Boss.obj
 0001:0000f860       ?_Swap_proxy_and_iterators@?$basic_string@DU?$char_traits@D@std@@V?$allocator@D@2@@std@@AAEXAAV12@@Z 00410860 f i Boss.obj
 0001:0000f880       ?_Swap_proxy_and_iterators@_Container_base12@std@@QAEXAAU12@@Z 00410880 f i Boss.obj
 0001:0000f900       ?_Take_contents@?$basic_string@DU?$char_traits@D@std@@V?$allocator@D@2@@std@@AAEXAAV12@U?$integral_constant@_N$00@2@@Z 00410900 f i Boss.obj
 0001:0000f9a0       ?_Throw_bad_array_new_length@std@@YAXXZ 004109a0 f i Boss.obj
 0001:0000f9d0       ?_Throw_tree_length_error@std@@YAXXZ 004109d0 f i Boss.obj
 0001:0000f9f0       ?_Tidy@?$deque@UPoint@Boss@@V?$allocator@UPoint@Boss@@@std@@@std@@AAEXXZ 004109f0 f i Boss.obj
 0001:0000fb60       ?_Tidy@?$vector@UPoint@Boss@@V?$allocator@UPoint@Boss@@@std@@@std@@AAEXXZ 00410b60 f i Boss.obj
 0001:0000fc50       ?_Tidy_deallocate@?$basic_string@DU?$char_traits@D@std@@V?$allocator@D@2@@std@@AAEXXZ 00410c50 f i Boss.obj
 0001:0000fd40       ?_Tidy_init@?$basic_string@DU?$char_traits@D@std@@V?$allocator@D@2@@std@@AAEXXZ 00410d40 f i Boss.obj
 0001:0000fda0       ?_Umove@?$vector@UPoint@Boss@@V?$allocator@UPoint@Boss@@@std@@@std@@AAEPAUPoint@Boss@@PAU34@00@Z 00410da0 f i Boss.obj
 0001:0000fde0       ?_Umove_if_noexcept1@?$vector@UPoint@Boss@@V?$allocator@UPoint@Boss@@@std@@@std@@AAEXPAUPoint@Boss@@00U?$integral_constant@_N$00@2@@Z 00410de0 f i Boss.obj
 0001:0000fe20       ?_Umove_if_noexcept@?$vector@UPoint@Boss@@V?$allocator@UPoint@Boss@@@std@@@std@@AAEXPAUPoint@Boss@@00@Z 00410e20 f i Boss.obj
 0001:0000fe60       ?_Unchecked_begin@?$deque@UPoint@Boss@@V?$allocator@UPoint@Boss@@@std@@@std@@QAE?AV?$_Deque_unchecked_iterator@V?$_Deque_val@U?$_Deque_simple_types@UPoint@Boss@@@std@@@std@@@2@XZ 00410e60 f i Boss.obj
 0001:0000feb0       ?_Unwrapped@?$_Tree_iterator@V?$_Tree_val@U?$_Tree_simple_types@U?$pair@$$CBV?$basic_string@DU?$char_traits@D@std@@V?$allocator@D@2@@std@@V?$weak_ptr@VRawImageData@@@2@@std@@@std@@@std@@@std@@QBE?AV?$_Tree_unchecked_iterator@V?$_Tree_val@U?$_Tree_simple_types@U?$pair@$$CBV?$basic_string@DU?$char_traits@D@std@@V?$allocator@D@2@@std@@V?$weak_ptr@VRawImageData@@@2@@std@@@std@@@std@@@2@XZ 00410eb0 f i Boss.obj
 0001:0000fef0       ?_Use_count@_Ref_count_base@std@@QBEJXZ 00410ef0 f i Boss.obj
 0001:0000ff10       ?_Xlen@?$deque@UPoint@Boss@@V?$allocator@UPoint@Boss@@@std@@@std@@ABEXXZ 00410f10 f i Boss.obj
 0001:0000ff30       ?_Xlen_string@std@@YAXXZ   00410f30 f i Boss.obj
 0001:0000ff50       ?_Xlength@?$vector@UPoint@Boss@@V?$allocator@UPoint@Boss@@@std@@@std@@CAXXZ 00410f50 f i Boss.obj
 0001:0000ff70       ?allocate@?$allocator@D@std@@QAEPADI@Z 00410f70 f i Boss.obj
 0001:0000ffa0       ?allocate@?$allocator@PAUPoint@Boss@@@std@@QAEPAPAUPoint@Boss@@I@Z 00410fa0 f i Boss.obj
 0001:0000ffd0       ?allocate@?$allocator@U?$_Tree_node@U?$pair@$$CBV?$basic_string@DU?$char_traits@D@std@@V?$allocator@D@2@@std@@V?$shared_ptr@VRawImageData@@@2@@std@@PAX@std@@@std@@QAEPAU?$_Tree_node@U?$pair@$$CBV?$basic_string@DU?$char_traits@D@std@@V?$allocator@D@2@@std@@V?$shared_ptr@VRawImageData@@@2@@std@@PAX@2@I@Z 00410fd0 f i Boss.obj
 0001:00010000       ?allocate@?$allocator@U?$_Tree_node@U?$pair@$$CBV?$basic_string@DU?$char_traits@D@std@@V?$allocator@D@2@@std@@V?$weak_ptr@VRawImageData@@@2@@std@@PAX@std@@@std@@QAEPAU?$_Tree_node@U?$pair@$$CBV?$basic_string@DU?$char_traits@D@std@@V?$allocator@D@2@@std@@V?$weak_ptr@VRawImageData@@@2@@std@@PAX@2@I@Z 00411000 f i Boss.obj
 0001:00010030       ?allocate@?$allocator@UPoint@Boss@@@std@@QAEPAUPoint@Boss@@I@Z 00411030 f i Boss.obj
 0001:00010060       ?allocate@?$allocator@U_Container_proxy@std@@@std@@QAEPAU_Container_proxy@2@I@Z 00411060 f i Boss.obj
 0001:00010090       ?assign@?$_Narrow_char_traits@DH@std@@SAXAADABD@Z 00411090 f i Boss.obj
 0001:000100b0       ?assign@?$basic_string@DU?$char_traits@D@std@@V?$allocator@D@2@@std@@QAEAAV12@QBD@Z 004110b0 f i Boss.obj
 0001:000100f0       ?assign@?$basic_string@DU?$char_traits@D@std@@V?$allocator@D@2@@std@@QAEAAV12@QBDI@Z 004110f0 f i Boss.obj
 0001:00010190       ?c_str@?$basic_string@DU?$char_traits@D@std@@V?$allocator@D@2@@std@@QBEPBDXZ 00411190 f i Boss.obj
 0001:000101b0       ?calculate@MovementPosition@@QAEXH@Z 004111b0 f i Boss.obj
 0001:000102a0       ?capacity@?$vector@UPoint@Boss@@V?$allocator@UPoint@Boss@@@std@@@std@@QBEIXZ 004112a0 f i Boss.obj
 0001:000102d0       ?clear@?$vector@UPoint@Boss@@V?$allocator@UPoint@Boss@@@std@@@std@@QAEXXZ 004112d0 f i Boss.obj
 0001:00010370       ?compare@?$_Narrow_char_traits@DH@std@@SAHQBD0I@Z 00411370 f i Boss.obj
 0001:00010390       ?compare@?$basic_string@DU?$char_traits@D@std@@V?$allocator@D@2@@std@@QBEHABV12@@Z 00411390 f i Boss.obj
 0001:000103e0       ?copy@?$_Narrow_char_traits@DH@std@@SAPADQADQBDI@Z 004113e0 f i Boss.obj
 0001:00010400       ?data@?$basic_string@DU?$char_traits@D@std@@V?$allocator@D@2@@std@@QBEPBDXZ 00411400 f i Boss.obj
 0001:00010420       ?deallocate@?$_Default_allocator_traits@V?$allocator@U?$_Tree_node@U?$pair@$$CBV?$basic_string@DU?$char_traits@D@std@@V?$allocator@D@2@@std@@V?$shared_ptr@VRawImageData@@@2@@std@@PAX@std@@@std@@@std@@SAXAAV?$allocator@U?$_Tree_node@U?$pair@$$CBV?$basic_string@DU?$char_traits@D@std@@V?$allocator@D@2@@std@@V?$shared_ptr@VRawImageData@@@2@@std@@PAX@std@@@2@QAU?$_Tree_node@U?$pair@$$CBV?$basic_string@DU?$char_traits@D@std@@V?$allocator@D@2@@std@@V?$shared_ptr@VRawImageData@@@2@@std@@PAX@2@I@Z 00411420 f i Boss.obj
 0001:00010440       ?deallocate@?$_Default_allocator_traits@V?$allocator@U?$_Tree_node@U?$pair@$$CBV?$basic_string@DU?$char_traits@D@std@@V?$allocator@D@2@@std@@V?$weak_ptr@VRawImageData@@@2@@std@@PAX@std@@@std@@@std@@SAXAAV?$allocator@U?$_Tree_node@U?$pair@$$CBV?$basic_string@DU?$char_traits@D@std@@V?$allocator@D@2@@std@@V?$weak_ptr@VRawImageData@@@2@@std@@PAX@std@@@2@QAU?$_Tree_node@U?$pair@$$CBV?$basic_string@DU?$char_traits@D@std@@V?$allocator@D@2@@std@@V?$weak_ptr@VRawImageData@@@2@@std@@PAX@2@I@Z 00411440 f i Boss.obj
 0001:00010460       ?deallocate@?$_Default_allocator_traits@V?$allocator@U_Container_proxy@std@@@std@@@std@@SAXAAV?$allocator@U_Container_proxy@std@@@2@QAU_Container_proxy@2@I@Z 00411460 f i Boss.obj
 0001:00010480       ?deallocate@?$allocator@D@std@@QAEXQADI@Z 00411480 f i Boss.obj
 0001:000104b0       ?deallocate@?$allocator@PAUPoint@Boss@@@std@@QAEXQAPAUPoint@Boss@@I@Z 004114b0 f i Boss.obj
 0001:000104e0       ?deallocate@?$allocator@U?$_Tree_node@U?$pair@$$CBV?$basic_string@DU?$char_traits@D@std@@V?$allocator@D@2@@std@@V?$shared_ptr@VRawImageData@@@2@@std@@PAX@std@@@std@@QAEXQAU?$_Tree_node@U?$pair@$$CBV?$basic_string@DU?$char_traits@D@std@@V?$allocator@D@2@@std@@V?$shared_ptr@VRawImageData@@@2@@std@@PAX@2@I@Z 004114e0 f i Boss.obj
 0001:00010510       ?deallocate@?$allocator@U?$_Tree_node@U?$pair@$$CBV?$basic_string@DU?$char_traits@D@std@@V?$allocator@D@2@@std@@V?$weak_ptr@VRawImageData@@@2@@std@@PAX@std@@@std@@QAEXQAU?$_Tree_node@U?$pair@$$CBV?$basic_string@DU?$char_traits@D@std@@V?$allocator@D@2@@std@@V?$weak_ptr@VRawImageData@@@2@@std@@PAX@2@I@Z 00411510 f i Boss.obj
 0001:00010540       ?deallocate@?$allocator@UPoint@Boss@@@std@@QAEXQAUPoint@Boss@@I@Z 00411540 f i Boss.obj
 0001:00010570       ?empty@?$deque@UPoint@Boss@@V?$allocator@UPoint@Boss@@@std@@@std@@QBE_NXZ 00411570 f i Boss.obj
 0001:000105b0       ?empty@?$queue@UPoint@Boss@@V?$deque@UPoint@Boss@@V?$allocator@UPoint@Boss@@@std@@@std@@@std@@QBE_NXZ 004115b0 f i Boss.obj
 0001:000105d0       ?end@?$_Tree@V?$_Tmap_traits@V?$basic_string@DU?$char_traits@D@std@@V?$allocator@D@2@@std@@V?$weak_ptr@VRawImageData@@@2@U?$less@V?$basic_string@DU?$char_traits@D@std@@V?$allocator@D@2@@std@@@2@V?$allocator@U?$pair@$$CBV?$basic_string@DU?$char_traits@D@std@@V?$allocator@D@2@@std@@V?$weak_ptr@VRawImageData@@@2@@std@@@2@$0A@@std@@@std@@QAE?AV?$_Tree_iterator@V?$_Tree_val@U?$_Tree_simple_types@U?$pair@$$CBV?$basic_string@DU?$char_traits@D@std@@V?$allocator@D@2@@std@@V?$weak_ptr@VRawImageData@@@2@@std@@@std@@@std@@@2@XZ 004115d0 f i Boss.obj
 0001:00010610       ?eof@?$_Narrow_char_traits@DH@std@@SAHXZ 00411610 f i Boss.obj
 0001:00010620       ?eq_int_type@?$_Narrow_char_traits@DH@std@@SA_NABH0@Z 00411620 f i Boss.obj
 0001:00010650       ?expired@?$weak_ptr@VRawImageData@@@std@@QBE_NXZ 00411650 f i Boss.obj
 0001:00010690       ?find@?$_Tree@V?$_Tmap_traits@V?$basic_string@DU?$char_traits@D@std@@V?$allocator@D@2@@std@@V?$weak_ptr@VRawImageData@@@2@U?$less@V?$basic_string@DU?$char_traits@D@std@@V?$allocator@D@2@@std@@@2@V?$allocator@U?$pair@$$CBV?$basic_string@DU?$char_traits@D@std@@V?$allocator@D@2@@std@@V?$weak_ptr@VRawImageData@@@2@@std@@@2@$0A@@std@@@std@@QAE?AV?$_Tree_iterator@V?$_Tree_val@U?$_Tree_simple_types@U?$pair@$$CBV?$basic_string@DU?$char_traits@D@std@@V?$allocator@D@2@@std@@V?$weak_ptr@VRawImageData@@@2@@std@@@std@@@std@@@2@ABV?$basic_string@DU?$char_traits@D@std@@V?$allocator@D@2@@2@@Z 00411690 f i Boss.obj
 0001:000106e0       ?freeSurface@RawImageData@@QAEXXZ 004116e0 f i Boss.obj
 0001:00010720       ?front@?$deque@UPoint@Boss@@V?$allocator@UPoint@Boss@@@std@@@std@@QAEAAUPoint@Boss@@XZ 00411720 f i Boss.obj
 0001:00010800       ?front@?$queue@UPoint@Boss@@V?$deque@UPoint@Boss@@V?$allocator@UPoint@Boss@@@std@@@std@@@std@@QAEAAUPoint@Boss@@XZ 00411800 f i Boss.obj
 0001:00010820       ?get@?$_Ptr_base@VRawImageData@@@std@@IBEPAVRawImageData@@XZ 00411820 f i Boss.obj
 0001:00010840       ?get@ImageManager@@SAPAV1@XZ 00411840 f i Boss.obj
 0001:000108f0       ?getDisplayableObject@DisplayableObjectContainer@@QBEPAVDisplayableObject@@H@Z 004118f0 f i Boss.obj
 0001:00010930       ?getForegroundSurface@BaseEngine@@QAEPAVDrawingSurface@@XZ 00411930 f i Boss.obj
 0001:00010950       ?getImagePtrbyURL@ImageManager@@QAE?AV?$shared_ptr@VRawImageData@@@std@@V?$basic_string@DU?$char_traits@D@std@@V?$allocator@D@2@@3@_N1@Z 00411950 f i Boss.obj
 0001:00010da0       ?getImagebyURL@ImageManager@@QAE?AVSimpleImage@@V?$basic_string@DU?$char_traits@D@std@@V?$allocator@D@2@@std@@_N1@Z 00411da0 f i Boss.obj
 0001:00010e70       ?getMapHeight@TileManager@@QBEHXZ 00411e70 f i Boss.obj
 0001:00010e90       ?getMapValue@TileManager@@QBEHHH@Z 00411e90 f i Boss.obj
 0001:00010ec0       ?getMapWidth@TileManager@@QBEHXZ 00411ec0 f i Boss.obj
 0001:00010ee0       ?getMapXForScreenX@TileManager@@QBEHH@Z 00411ee0 f i Boss.obj
 0001:00010f10       ?getMapYForScreenY@TileManager@@QBEHH@Z 00411f10 f i Boss.obj
 0001:00010f40       ?getTileHeight@TileManager@@QBEHXZ 00411f40 f i Boss.obj
 0001:00010f60       ?getTileWidth@TileManager@@QBEHXZ 00411f60 f i Boss.obj
 0001:00010f80       ?getX@MovementPosition@@QBEHXZ 00411f80 f i Boss.obj
 0001:00010fa0       ?getXDiffForDirection@Boss@@QAEHH@Z 00411fa0 f i Boss.obj
 0001:00011010       ?getXForRotationAndCrop@RawImageData@@SAHHHHHHH@Z 00412010 f i Boss.obj
 0001:00011080       ?getY@MovementPosition@@QBEHXZ 00412080 f i Boss.obj
 0001:000110a0       ?getYDiffForDirection@Boss@@QAEHH@Z 004120a0 f i Boss.obj
 0001:00011110       ?getYForRotationAndCrop@RawImageData@@SAHHHHHHH@Z 00412110 f i Boss.obj
 0001:00011180       ?hasMovementFinished@MovementPosition@@QBE_NH@Z 00412180 f i Boss.obj
 0001:000111c0       ?isPaused@BaseEngine@@QAE_NXZ 004121c0 f i Boss.obj
 0001:00011200       ?length@?$_Narrow_char_traits@DH@std@@SAIQBD@Z 00412200 f i Boss.obj
 0001:00011220       ?loadAsNew@ImageManager@@QAE?AV?$shared_ptr@VRawImageData@@@std@@V?$basic_string@DU?$char_traits@D@std@@V?$allocator@D@2@@3@@Z 00412220 f i Boss.obj
 0001:000113e0       ?loadImage@ImageManager@@SA?AVSimpleImage@@V?$basic_string@DU?$char_traits@D@std@@V?$allocator@D@2@@std@@_N@Z 004123e0 f i Boss.obj
 0001:000114a0       ?loadImage@RawImageData@@QAE_NV?$basic_string@DU?$char_traits@D@std@@V?$allocator@D@2@@std@@HHHHH_N@Z 004124a0 f i Boss.obj
 0001:000117b0       ?lock@?$weak_ptr@VRawImageData@@@std@@QBE?AV?$shared_ptr@VRawImageData@@@2@XZ 004127b0 f i Boss.obj
 0001:00011800       ?max@?$numeric_limits@H@std@@SAHXZ 00412800 f i Boss.obj
 0001:00011810       ?max_size@?$_Default_allocator_traits@V?$allocator@D@std@@@std@@SAIABV?$allocator@D@2@@Z 00412810 f i Boss.obj
 0001:00011820       ?max_size@?$_Default_allocator_traits@V?$allocator@U?$_Tree_node@U?$pair@$$CBV?$basic_string@DU?$char_traits@D@std@@V?$allocator@D@2@@std@@V?$shared_ptr@VRawImageData@@@2@@std@@PAX@std@@@std@@@std@@SAIABV?$allocator@U?$_Tree_node@U?$pair@$$CBV?$basic_string@DU?$char_traits@D@std@@V?$allocator@D@2@@std@@V?$shared_ptr@VRawImageData@@@2@@std@@PAX@std@@@2@@Z 00412820 f i Boss.obj
 0001:00011830       ?max_size@?$_Default_allocator_traits@V?$allocator@U?$_Tree_node@U?$pair@$$CBV?$basic_string@DU?$char_traits@D@std@@V?$allocator@D@2@@std@@V?$weak_ptr@VRawImageData@@@2@@std@@PAX@std@@@std@@@std@@SAIABV?$allocator@U?$_Tree_node@U?$pair@$$CBV?$basic_string@DU?$char_traits@D@std@@V?$allocator@D@2@@std@@V?$weak_ptr@VRawImageData@@@2@@std@@PAX@std@@@2@@Z 00412830 f i Boss.obj
 0001:00011840       ?max_size@?$_Default_allocator_traits@V?$allocator@UPoint@Boss@@@std@@@std@@SAIABV?$allocator@UPoint@Boss@@@2@@Z 00412840 f i Boss.obj
 0001:00011850       ?max_size@?$_Tree@V?$_Tmap_traits@V?$basic_string@DU?$char_traits@D@std@@V?$allocator@D@2@@std@@V?$shared_ptr@VRawImageData@@@2@U?$less@V?$basic_string@DU?$char_traits@D@std@@V?$allocator@D@2@@std@@@2@V?$allocator@U?$pair@$$CBV?$basic_string@DU?$char_traits@D@std@@V?$allocator@D@2@@std@@V?$shared_ptr@VRawImageData@@@2@@std@@@2@$0A@@std@@@std@@QBEIXZ 00412850 f i Boss.obj
 0001:000118a0       ?max_size@?$_Tree@V?$_Tmap_traits@V?$basic_string@DU?$char_traits@D@std@@V?$allocator@D@2@@std@@V?$weak_ptr@VRawImageData@@@2@U?$less@V?$basic_string@DU?$char_traits@D@std@@V?$allocator@D@2@@std@@@2@V?$allocator@U?$pair@$$CBV?$basic_string@DU?$char_traits@D@std@@V?$allocator@D@2@@std@@V?$weak_ptr@VRawImageData@@@2@@std@@@2@$0A@@std@@@std@@QBEIXZ 004128a0 f i Boss.obj
 0001:000118f0       ?max_size@?$basic_string@DU?$char_traits@D@std@@V?$allocator@D@2@@std@@QBEIXZ 004128f0 f i Boss.obj
 0001:00011970       ?max_size@?$deque@UPoint@Boss@@V?$allocator@UPoint@Boss@@@std@@@std@@QBEIXZ 00412970 f i Boss.obj
 0001:000119c0       ?max_size@?$vector@UPoint@Boss@@V?$allocator@UPoint@Boss@@@std@@@std@@QBEIXZ 004129c0 f i Boss.obj
 0001:00011a10       ?move@?$_Narrow_char_traits@DH@std@@SAPADQADQBDI@Z 00412a10 f i Boss.obj
 0001:00011a30       ?pointer_to@?$pointer_traits@PAU?$pair@$$CBV?$basic_string@DU?$char_traits@D@std@@V?$allocator@D@2@@std@@V?$weak_ptr@VRawImageData@@@2@@std@@@std@@SAPAU?$pair@$$CBV?$basic_string@DU?$char_traits@D@std@@V?$allocator@D@2@@std@@V?$weak_ptr@VRawImageData@@@2@@2@AAU32@@Z 00412a30 f i Boss.obj
 0001:00011a50       ?pop@?$queue@UPoint@Boss@@V?$deque@UPoint@Boss@@V?$allocator@UPoint@Boss@@@std@@@std@@@std@@QAEXXZ 00412a50 f i Boss.obj
 0001:00011a70       ?pop_back@?$deque@UPoint@Boss@@V?$allocator@UPoint@Boss@@@std@@@std@@QAEXXZ 00412a70 f i Boss.obj
 0001:00011c00       ?pop_back@?$vector@UPoint@Boss@@V?$allocator@UPoint@Boss@@@std@@@std@@QAEXXZ 00412c00 f i Boss.obj
 0001:00011d30       ?pop_front@?$deque@UPoint@Boss@@V?$allocator@UPoint@Boss@@@std@@@std@@QAEXXZ 00412d30 f i Boss.obj
 0001:00011ee0       ?push@?$queue@UPoint@Boss@@V?$deque@UPoint@Boss@@V?$allocator@UPoint@Boss@@@std@@@std@@@std@@QAEX$$QAUPoint@Boss@@@Z 00412ee0 f i Boss.obj
 0001:00011f10       ?push@?$queue@UPoint@Boss@@V?$deque@UPoint@Boss@@V?$allocator@UPoint@Boss@@@std@@@std@@@std@@QAEXABUPoint@Boss@@@Z 00412f10 f i Boss.obj
 0001:00011f30       ?push_back@?$deque@UPoint@Boss@@V?$allocator@UPoint@Boss@@@std@@@std@@QAEX$$QAUPoint@Boss@@@Z 00412f30 f i Boss.obj
 0001:00011f70       ?push_back@?$deque@UPoint@Boss@@V?$allocator@UPoint@Boss@@@std@@@std@@QAEXABUPoint@Boss@@@Z 00412f70 f i Boss.obj
 0001:00011fa0       ?push_back@?$vector@UPoint@Boss@@V?$allocator@UPoint@Boss@@@std@@@std@@QAEXABUPoint@Boss@@@Z 00412fa0 f i Boss.obj
 0001:00011fc0       ?resetOptions@ImageManager@@QAEXXZ 00412fc0 f i Boss.obj
 0001:00012000       ?select_on_container_copy_construction@?$_Default_allocator_traits@V?$allocator@D@std@@@std@@SA?AV?$allocator@D@2@ABV32@@Z 00413000 f i Boss.obj
 0001:00012010       ?setup@MovementPosition@@QAEXHHHHHH@Z 00413010 f i Boss.obj
 0001:00012080       ?size@?$basic_string@DU?$char_traits@D@std@@V?$allocator@D@2@@std@@QBEIXZ 00413080 f i Boss.obj
 0001:000120a0       ?size@?$vector@PAVDisplayableObject@@V?$allocator@PAVDisplayableObject@@@std@@@std@@QBEIXZ 004130a0 f i Boss.obj
 0001:000120d0       ?size@?$vector@UPoint@Boss@@V?$allocator@UPoint@Boss@@@std@@@std@@QBEIXZ 004130d0 f i Boss.obj
 0001:00012100       ?use_count@?$_Ptr_base@VRawImageData@@@std@@QBEJXZ 00413100 f i Boss.obj
 0001:00012140       ?what@exception@std@@UBEPBDXZ 00413140 f i Boss.obj
 0001:00012180       ___local_stdio_printf_options 00413180 f i Boss.obj
 0001:00012190       __vfprintf_l               00413190 f i Boss.obj
 0001:000121d0       _printf                    004131d0 f i Boss.obj
 0001:00012220       ??0Bullet@@QAE@PAVGameEngine@@PAVAdvancedTileManager@@HHH@Z 00413220 f   Bullet.obj
 0001:000122d0       ??1Bullet@@UAE@XZ          004132d0 f   Bullet.obj
 0001:00012300       ?virtDoUpdate@Bullet@@UAEXH@Z 00413300 f   Bullet.obj
 0001:00012670       ?virtDraw@Bullet@@UAEXXZ   00413670 f   Bullet.obj
 0001:000126d0       ?checkObstacle@Bullet@@QAE_NH@Z 004136d0 f   Bullet.obj
 0001:00012700       ?getDir@Bullet@@QAEHXZ     00413700 f   Bullet.obj
 0001:00012850       ??_GBullet@@UAEPAXI@Z      00413850 f i Bullet.obj
 0001:00012850       ??_EBullet@@UAEPAXI@Z      00413850 f i Bullet.obj
 0001:00012890       ?checkRectangles@CollisionDetection@@SA_NHHHHHHHH@Z 00413890 f i Bullet.obj
 0001:000128e0       ?getXCentre@DisplayableObject@@QBEHXZ 004138e0 f i Bullet.obj
 0001:00012910       ?getYCentre@DisplayableObject@@QBEHXZ 00413910 f i Bullet.obj
 0001:00012940       ??0DrawingSurface@@QAE@PAVBaseEngine@@@Z 00413940 f   DrawingSurface.obj
 0001:000129e0       ?drawLine@DrawingSurface@@QAEXNNNNI@Z 004139e0 f   DrawingSurface.obj
 0001:00012bc0       ?drawThickLine@DrawingSurface@@QAEXNNNNIH@Z 00413bc0 f   DrawingSurface.obj
 0001:00013060       ?drawVerticalSidedRegion@DrawingSurface@@QAEXNNNNNNI@Z 00414060 f   DrawingSurface.obj
 0001:00013400       ?drawRectangle@DrawingSurface@@QAEXHHHHI@Z 00414400 f   DrawingSurface.obj
 0001:00013510       ?drawOval@DrawingSurface@@QAEXHHHHI@Z 00414510 f   DrawingSurface.obj
 0001:000136e0       ?rawDrawOval@DrawingSurface@@QAEXHHHHI@Z 004146e0 f   DrawingSurface.obj
 0001:00013840       ?drawHollowOval@DrawingSurface@@QAEXHHHHHHHHI@Z 00414840 f   DrawingSurface.obj
 0001:00013b60       ?drawPolygon@DrawingSurface@@QAEXHPAN0I@Z 00414b60 f   DrawingSurface.obj
 0001:000142e0       ?drawFastString@DrawingSurface@@QAEXHHPBDIPAVFont@@@Z 004152e0 f   DrawingSurface.obj
 0001:000143d0       ?drawScalableString@DrawingSurface@@QAEXHHPBDIPAVFont@@@Z 004153d0 f   DrawingSurface.obj
 0001:000145a0       ?drawShortenedArrow@DrawingSurface@@QAEXHHHHHHIHH@Z 004155a0 f   DrawingSurface.obj
 0001:00014b20       ?drawShortenedLine@DrawingSurface@@QAEXHHHHHHIH@Z 00415b20 f   DrawingSurface.obj
 0001:00014f20       ?drawTriangle@DrawingSurface@@QAEXNNNNNNI@Z 00415f20 f   DrawingSurface.obj
 0001:00015270       ?copyEntireSurface@DrawingSurface@@QAEXPAV1@@Z 00416270 f   DrawingSurface.obj
 0001:000152c0       ?copyRectangleFrom@DrawingSurface@@QAEXPAV1@HHHHHH@Z 004162c0 f   DrawingSurface.obj
 0001:000154c0       ?getAngle@DrawingSurface@@SANNNNN@Z 004164c0 f   DrawingSurface.obj
 0001:00015560       ?getVirtualRedrawMinX@DrawingSurface@@QAEHXZ 00416560 f   DrawingSurface.obj
 0001:000155b0       ?getVirtualRedrawMinY@DrawingSurface@@QAEHXZ 004165b0 f   DrawingSurface.obj
 0001:00015600       ?getVirtualRedrawMaxX@DrawingSurface@@QAEHXZ 00416600 f   DrawingSurface.obj
 0001:00015660       ?getVirtualRedrawMaxY@DrawingSurface@@QAEHXZ 00416660 f   DrawingSurface.obj
 0001:000156c0       ?getRealRedrawMinX@DrawingSurface@@QAEHXZ 004166c0 f   DrawingSurface.obj
 0001:00015710       ?getRealRedrawMinY@DrawingSurface@@QAEHXZ 00416710 f   DrawingSurface.obj
 0001:00015760       ?getRealRedrawMaxX@DrawingSurface@@QAEHXZ 00416760 f   DrawingSurface.obj
 0001:000157b0       ?getRealRedrawMaxY@DrawingSurface@@QAEHXZ 004167b0 f   DrawingSurface.obj
 0001:000163b0       ??$swapPoints@H@@YAXAAH0@Z 004173b0 f i DrawingSurface.obj
 0001:000163e0       ??$swapPoints@N@@YAXAAN0@Z 004173e0 f i DrawingSurface.obj
 0001:00016420       ?checkBlitable@DrawingSurface@@QAEXXZ 00417420 f i DrawingSurface.obj
 0001:00016470       ?checkWritable@DrawingSurface@@QAEXXZ 00417470 f i DrawingSurface.obj
 0001:000164c0       ?convertRealToVirtualXPosition@DrawingSurface@@QAEHH@Z 004174c0 f i DrawingSurface.obj
 0001:00016500       ?convertRealToVirtualYPosition@DrawingSurface@@QAEHH@Z 00417500 f i DrawingSurface.obj
 0001:00016540       ?getDefaultFont@BaseEngine@@QBEPAVFont@@XZ 00417540 f i DrawingSurface.obj
 0001:00016560       ?getIntsPerWindowRow@DrawingSurface@@QBEIXZ 00417560 f i DrawingSurface.obj
 0001:00016580       ?getRedrawAllScreen@BaseEngine@@QAEHXZ 00417580 f i DrawingSurface.obj
 0001:000165a0       ?getRedrawRectRealBottom@BaseEngine@@QAEHXZ 004175a0 f i DrawingSurface.obj
 0001:000165c0       ?getRedrawRectRealLeft@BaseEngine@@QAEHXZ 004175c0 f i DrawingSurface.obj
 0001:000165e0       ?getRedrawRectRealRight@BaseEngine@@QAEHXZ 004175e0 f i DrawingSurface.obj
 0001:00016600       ?getRedrawRectRealTop@BaseEngine@@QAEHXZ 00417600 f i DrawingSurface.obj
 0001:00016620       ?getRedrawRectVirtualBottom@BaseEngine@@QAEHXZ 00417620 f i DrawingSurface.obj
 0001:00016640       ?getRedrawRectVirtualLeft@BaseEngine@@QAEHXZ 00417640 f i DrawingSurface.obj
 0001:00016660       ?getRedrawRectVirtualRight@BaseEngine@@QAEHXZ 00417660 f i DrawingSurface.obj
 0001:00016680       ?getRedrawRectVirtualTop@BaseEngine@@QAEHXZ 00417680 f i DrawingSurface.obj
 0001:000166a0       ?getSurfaceHeight@DrawingSurface@@QBEHXZ 004176a0 f i DrawingSurface.obj
 0001:000166c0       ?getSurfaceWidth@DrawingSurface@@QBEHXZ 004176c0 f i DrawingSurface.obj
 0001:000166e0       ?getTTFFont@Font@@QAEPAU_TTF_Font@@XZ 004176e0 f i DrawingSurface.obj
 0001:00016700       ?mySDLTempRelockSurface@DrawingSurface@@QAEXXZ 00417700 f i DrawingSurface.obj
 0001:00016750       ?mySDLTempUnlockSurface@DrawingSurface@@QAEXXZ 00417750 f i DrawingSurface.obj
 0001:000167a0       ?rawSetPixel@DrawingSurface@@QAEXHHI@Z 004177a0 f i DrawingSurface.obj
 0001:00016850       ?setDrawPointsFilter@DrawingSurface@@QAEXPAVFilterPoints@@@Z 00417850 f i DrawingSurface.obj
 0001:00016870       ?setPixel@DrawingSurface@@QAEXHHI@Z 00417870 f i DrawingSurface.obj
 0001:000168e0       ?virtSetUpEngine@EndState@@UAEXAAVGameEngine@@@Z 004178e0 f   EndState.obj
 0001:00016da0       ?virtDrawLabelText@EndState@@UAEXAAVGameEngine@@@Z 00417da0 f   EndState.obj
 0001:00016ec0       ?applyState@EndState@@UAEXAAVGameEngine@@@Z 00417ec0 f   EndState.obj
 0001:00016f00       ?virtSetUpKeyboard@EndState@@UAEXAAVGameEngine@@H@Z 00417f00 f   EndState.obj
 0001:00017450       ?virtSetUpForeground@EndState@@UAEXAAVGameEngine@@@Z 00418450 f   EndState.obj
 0001:00017460       ?virtSetUpMouseDown@EndState@@UAEXAAVGameEngine@@HHH@Z 00418460 f   EndState.obj
 0001:00017830       ??$?0ABV?$allocator@D@std@@$$V@?$_Compressed_pair@V?$allocator@D@std@@V?$_String_val@U?$_Simple_types@D@std@@@2@$00@std@@QAE@U_One_then_variadic_args_t@1@ABV?$allocator@D@1@@Z 00418830 f i EndState.obj
 0001:00017860       ??$?CVRawImageData@@$0A@@?$shared_ptr@VRawImageData@@@std@@QBEPAVRawImageData@@XZ 00418860 f i EndState.obj
 0001:00017880       ??$_Pocma@V?$allocator@D@std@@@std@@YAXAAV?$allocator@D@0@0@Z 00418880 f i EndState.obj
 0001:000178a0       ??$_Reallocate_grow_by@V<lambda_15711c68e099a15a58f4d77303cb286d>@@D@?$basic_string@DU?$char_traits@D@std@@V?$allocator@D@2@@std@@AAEAAV01@IV<lambda_15711c68e099a15a58f4d77303cb286d>@@D@Z 004188a0 f i EndState.obj
 0001:00017a10       ??$addressof@V?$basic_string@DU?$char_traits@D@std@@V?$allocator@D@2@@std@@@std@@YAPAV?$basic_string@DU?$char_traits@D@std@@V?$allocator@D@2@@0@AAV10@@Z 00418a10 f i EndState.obj
 0001:00017a20       ??$forward@ABV?$allocator@D@std@@@std@@YAABV?$allocator@D@0@ABV10@@Z 00418a20 f i EndState.obj
 0001:00017a30       ??0?$basic_string@DU?$char_traits@D@std@@V?$allocator@D@2@@std@@QAE@ABV01@IIABV?$allocator@D@1@@Z 00418a30 f i EndState.obj
 0001:00017b20       ??0BaseState@@QAE@XZ       00418b20 f i EndState.obj
 0001:00017b40       ??0StartState@@QAE@XZ      00418b40 f i EndState.obj
 0001:00017b70       ??4?$basic_string@DU?$char_traits@D@std@@V?$allocator@D@2@@std@@QAEAAV01@$$QAV01@@Z 00418b70 f i EndState.obj
 0001:00017bc0       ??R<lambda_15711c68e099a15a58f4d77303cb286d>@@QBE@QADQBDID@Z 00418bc0 f i EndState.obj
 0001:00017c30       ??Y?$basic_string@DU?$char_traits@D@std@@V?$allocator@D@2@@std@@QAEAAV01@D@Z 00418c30 f i EndState.obj
 0001:00017c60       ?_Check_offset@?$_String_val@U?$_Simple_types@D@std@@@std@@QBEXI@Z 00418c60 f i EndState.obj
 0001:00017c90       ?_Clamp_suffix_size@?$_String_val@U?$_Simple_types@D@std@@@std@@QBEIII@Z 00418c90 f i EndState.obj
 0001:00017cd0       ?_Move_assign@?$basic_string@DU?$char_traits@D@std@@V?$allocator@D@2@@std@@AAEXAAV12@U_Equal_allocators@2@@Z 00418cd0 f i EndState.obj
 0001:00017d30       ?_Xran@?$_String_val@U?$_Simple_types@D@std@@@std@@SAXXZ 00418d30 f i EndState.obj
 0001:00017d50       ?applyState@BaseState@@UAEXAAVGameEngine@@@Z 00418d50 f i EndState.obj
 0001:00017d60       ?assign@?$basic_string@DU?$char_traits@D@std@@V?$allocator@D@2@@std@@QAEAAV12@ABV12@II@Z 00418d60 f i EndState.obj
 0001:00017dc0       ?drawForegroundString@BaseEngine@@QAEXHHPBDIPAVFont@@@Z 00418dc0 f i EndState.obj
 0001:00017e00       ?fillSurface@DrawingSurface@@QAEXI@Z 00418e00 f i EndState.obj
 0001:00017e90       ?getHeight@RawImageData@@QBEHXZ 00418e90 f i EndState.obj
 0001:00017eb0       ?getHeight@SimpleImage@@QBEHXZ 00418eb0 f i EndState.obj
 0001:00017ee0       ?getWidth@RawImageData@@QBEHXZ 00418ee0 f i EndState.obj
 0001:00017f00       ?getWidth@SimpleImage@@QBEHXZ 00418f00 f i EndState.obj
 0001:00017f30       ?get_allocator@?$basic_string@DU?$char_traits@D@std@@V?$allocator@D@2@@std@@QBE?AV?$allocator@D@2@XZ 00418f30 f i EndState.obj
 0001:00017f50       ?length@?$basic_string@DU?$char_traits@D@std@@V?$allocator@D@2@@std@@QBEIXZ 00418f50 f i EndState.obj
 0001:00017f70       ?lockAndSetupBackground@BaseEngine@@QAEXXZ 00418f70 f i EndState.obj
 0001:00017fb0       ?lockBackgroundForDrawing@BaseEngine@@QAEXXZ 00418fb0 f i EndState.obj
 0001:00017fd0       ?lockForegroundForDrawing@BaseEngine@@QAEXXZ 00418fd0 f i EndState.obj
 0001:00017ff0       ?mySDLLockSurface@DrawingSurface@@QAEXXZ 00418ff0 f i EndState.obj
 0001:00018040       ?mySDLUnlockSurface@DrawingSurface@@QAEXXZ 00419040 f i EndState.obj
 0001:00018090       ?push_back@?$basic_string@DU?$char_traits@D@std@@V?$allocator@D@2@@std@@QAEXD@Z 00419090 f i EndState.obj
 0001:00018140       ?redrawDisplay@BaseEngine@@QAEXXZ 00419140 f i EndState.obj
 0001:00018160       ?substr@?$basic_string@DU?$char_traits@D@std@@V?$allocator@D@2@@std@@QBE?AV12@II@Z 00419160 f i EndState.obj
 0001:000181c0       ?unlockBackgroundForDrawing@BaseEngine@@QAEXXZ 004191c0 f i EndState.obj
 0001:000181e0       ?unlockForegroundForDrawing@BaseEngine@@QAEXXZ 004191e0 f i EndState.obj
 0001:00018200       ?virtDrawLabelText@BaseState@@UAEXAAVGameEngine@@@Z 00419200 f i EndState.obj
 0001:00018210       ?virtSetUpEngine@BaseState@@UAEXAAVGameEngine@@@Z 00419210 f i EndState.obj
 0001:00018220       ?virtSetUpForeground@BaseState@@UAEXAAVGameEngine@@@Z 00419220 f i EndState.obj
 0001:00018230       ?virtSetUpKeyboard@BaseState@@UAEXAAVGameEngine@@H@Z 00419230 f i EndState.obj
 0001:00018240       ?virtSetUpMouseDown@BaseState@@UAEXAAVGameEngine@@HHH@Z 00419240 f i EndState.obj
 0001:00018250       ??0Guard@@QAE@PAVGameEngine@@HHHHHHHHHH@Z 00419250 f   Guard.obj
 0001:00018600       ??1Guard@@UAE@XZ           00419600 f   Guard.obj
 0001:000186a0       ?virtDoUpdate@Guard@@UAEXH@Z 004196a0 f   Guard.obj
 0001:00018b00       ?getHealth@Guard@@QAEHXZ   00419b00 f   Guard.obj
 0001:00018b20       ?setIsHit@Guard@@QAEX_N@Z  00419b20 f   Guard.obj
 0001:00018b40       ?virtDraw@Guard@@UAEXXZ    00419b40 f   Guard.obj
 0001:00018ec0       ?getStartX@Guard@@QAEHXZ   00419ec0 f   Guard.obj
 0001:00018ee0       ?getEndX@Guard@@QAEHXZ     00419ee0 f   Guard.obj
 0001:00018f00       ?getStartY@Guard@@QAEHXZ   00419f00 f   Guard.obj
 0001:00018f20       ?getEndY@Guard@@QAEHXZ     00419f20 f   Guard.obj
 0001:00018f40       ?getInterval@Guard@@QAEHXZ 00419f40 f   Guard.obj
 0001:00018f60       ?getiCurrentTime@Guard@@QAEHXZ 00419f60 f   Guard.obj
 0001:00018f80       ?getDir@Guard@@QAEHXZ      00419f80 f   Guard.obj
 0001:00018fa0       ?getInitialTime@Guard@@QAEHXZ 00419fa0 f   Guard.obj
 0001:00019310       ??_GGuard@@UAEPAXI@Z       0041a310 f i Guard.obj
 0001:00019310       ??_EGuard@@UAEPAXI@Z       0041a310 f i Guard.obj
 0001:00019350       ?reverse@MovementPosition@@QAEXXZ 0041a350 f i Guard.obj
 0001:000193e0       ?virtSetUpEngine@HelpState@@UAEXAAVGameEngine@@@Z 0041a3e0 f   HelpState.obj
 0001:00019460       ?virtDrawLabelText@HelpState@@UAEXAAVGameEngine@@@Z 0041a460 f   HelpState.obj
 0001:000194b0       ?applyState@HelpState@@UAEXAAVGameEngine@@@Z 0041a4b0 f   HelpState.obj
 0001:000194c0       ?virtSetUpKeyboard@HelpState@@UAEXAAVGameEngine@@H@Z 0041a4c0 f   HelpState.obj
 0001:000194d0       ?virtSetUpForeground@HelpState@@UAEXAAVGameEngine@@@Z 0041a4d0 f   HelpState.obj
 0001:00019520       ?virtSetUpMouseDown@HelpState@@UAEXAAVGameEngine@@HHH@Z 0041a520 f   HelpState.obj
 0001:00019660       ?getBackgroundSurface@BaseEngine@@QAEPAVDrawingSurface@@XZ 0041a660 f i HelpState.obj
 0001:00019680       _SDL_main                  0041a680 f   mainfunction.obj
 0001:000196e0       ?doProgram@@YAHHQAPAD@Z    0041a6e0 f   mainfunction.obj
 0001:00019820       ??1ImageManager@@QAE@XZ    0041a820 f i mainfunction.obj
 0001:00019850       ??_GImageManager@@QAEPAXI@Z 0041a850 f i mainfunction.obj
 0001:00019890       ?destroyImageManager@ImageManager@@SAXXZ 0041a890 f i mainfunction.obj
 0001:000198f0       __vsnprintf_l              0041a8f0 f i mainfunction.obj
 0001:00019960       __vsprintf_l               0041a960 f i mainfunction.obj
 0001:00019990       _sprintf                   0041a990 f i mainfunction.obj
 0001:000199d0       ??0BaseEngine@@QAE@XZ      0041a9d0 f   BaseEngine.obj
 0001:00019c10       ??1BaseEngine@@UAE@XZ      0041ac10 f   BaseEngine.obj
 0001:00019c60       ?initialise@BaseEngine@@QAEHPBDHH0H@Z 0041ac60 f   BaseEngine.obj
 0001:00019d90       ?deinitialise@BaseEngine@@QAEXXZ 0041ad90 f   BaseEngine.obj
 0001:00019dc0       ?mainLoop@BaseEngine@@QAEHXZ 0041adc0 f   BaseEngine.obj
 0001:00019ef0       ?handleEvent@BaseEngine@@QAE_NPATSDL_Event@@@Z 0041aef0 f   BaseEngine.obj
 0001:0001a530       ?isKeyPressed@BaseEngine@@QBE_NH@Z 0041b530 f   BaseEngine.obj
 0001:0001a560       ?virtKeyUp@BaseEngine@@UAEXH@Z 0041b560 f   BaseEngine.obj
 0001:0001a570       ?virtKeyDown@BaseEngine@@UAEXH@Z 0041b570 f   BaseEngine.obj
 0001:0001a580       ?virtMouseMoved@BaseEngine@@UAEXHH@Z 0041b580 f   BaseEngine.obj
 0001:0001a590       ?virtMouseDown@BaseEngine@@UAEXHHH@Z 0041b590 f   BaseEngine.obj
 0001:0001a5a0       ?virtMouseUp@BaseEngine@@UAEXHHH@Z 0041b5a0 f   BaseEngine.obj
 0001:0001a5b0       ?virtInitialise@BaseEngine@@UAEHXZ 0041b5b0 f   BaseEngine.obj
 0001:0001a600       ?virtCreateWindows@BaseEngine@@UAEXPBD@Z 0041b600 f   BaseEngine.obj
 0001:0001a690       ?virtCreateSurfaces@BaseEngine@@UAEXXZ 0041b690 f   BaseEngine.obj
 0001:0001a6e0       ?virtCleanUp@BaseEngine@@UAEXXZ 0041b6e0 f   BaseEngine.obj
 0001:0001a6f0       ?virtSetupBackgroundBuffer@BaseEngine@@UAEXXZ 0041b6f0 f   BaseEngine.obj
 0001:0001a710       ?virtDrawStringsUnderneath@BaseEngine@@UAEXXZ 0041b710 f   BaseEngine.obj
 0001:0001a720       ?virtDrawStringsOnTop@BaseEngine@@UAEXXZ 0041b720 f   BaseEngine.obj
 0001:0001a730       ?virtCheckForUpdateTime@BaseEngine@@UAE_NXZ 0041b730 f   BaseEngine.obj
 0001:0001a780       ?virtRenderScreen@BaseEngine@@UAEXXZ 0041b780 f   BaseEngine.obj
 0001:0001a910       ?getColour@BaseEngine@@QBEIH@Z 0041b910 f   BaseEngine.obj
 0001:0001ab50       ?virtInitialiseObjects@BaseEngine@@UAEHXZ 0041bb50 f   BaseEngine.obj
 0001:0001ab80       ?drawAllObjects@BaseEngine@@UAEXXZ 0041bb80 f   BaseEngine.obj
 0001:0001ad60       ?updateAllObjects@BaseEngine@@UAEXH@Z 0041bd60 f   BaseEngine.obj
 0001:0001af40       _mydebug                   0041bf40 f   BaseEngine.obj
 0001:0001b4c0       ??$?0ABV?$allocator@PAVDisplayableObject@@@std@@$$V@?$_Compressed_pair@V?$allocator@PAVDisplayableObject@@@std@@V?$_Vector_val@U?$_Simple_types@PAVDisplayableObject@@@std@@@2@$00@std@@QAE@U_One_then_variadic_args_t@1@ABV?$allocator@PAVDisplayableObject@@@1@@Z 0041c4c0 f i BaseEngine.obj
 0001:0001b4f0       ??$?0PAVDisplayableObject@@@?$allocator@U_Container_proxy@std@@@std@@QAE@ABV?$allocator@PAVDisplayableObject@@@1@@Z 0041c4f0 f i BaseEngine.obj
 0001:0001b510       ??$_Adl_verify_range@V?$_Vector_iterator@V?$_Vector_val@U?$_Simple_types@PAVDisplayableObject@@@std@@@std@@@std@@V12@@std@@YAXABV?$_Vector_iterator@V?$_Vector_val@U?$_Simple_types@PAVDisplayableObject@@@std@@@std@@@0@0@Z 0041c510 f i BaseEngine.obj
 0001:0001b530       ??$_Construct_n_copies_of_ty@U_Value_init_tag@std@@@?$vector@PAVDisplayableObject@@V?$allocator@PAVDisplayableObject@@@std@@@std@@AAEXIABU_Value_init_tag@1@@Z 0041c530 f i BaseEngine.obj
 0001:0001b640       ??$_Destroy_range@V?$allocator@PAVDisplayableObject@@@std@@@std@@YAXPAPAVDisplayableObject@@QAPAV1@AAV?$allocator@PAVDisplayableObject@@@0@@Z 0041c640 f i BaseEngine.obj
 0001:0001b650       ??$_Get_unwrapped@AAV?$_Vector_iterator@V?$_Vector_val@U?$_Simple_types@PAVDisplayableObject@@@std@@@std@@@std@@@std@@YA@AAV?$_Vector_iterator@V?$_Vector_val@U?$_Simple_types@PAVDisplayableObject@@@std@@@std@@@0@@Z 0041c650 f i BaseEngine.obj
 0001:0001b660       ??$_Unfancy@PAVDisplayableObject@@@std@@YAPAPAVDisplayableObject@@PAPAV1@@Z 0041c660 f i BaseEngine.obj
 0001:0001b670       ??$_Uninitialized_value_construct_n@V?$allocator@PAVDisplayableObject@@@std@@@std@@YAPAPAVDisplayableObject@@PAPAV1@IAAV?$allocator@PAVDisplayableObject@@@0@@Z 0041c670 f i BaseEngine.obj
 0001:0001b6c0       ??$_Zero_range@PAPAVDisplayableObject@@@std@@YAPAPAVDisplayableObject@@QAPAV1@0@Z 0041c6c0 f i BaseEngine.obj
 0001:0001b700       ??$addressof@V?$_Vector_val@U?$_Simple_types@PAVDisplayableObject@@@std@@@std@@@std@@YAPAV?$_Vector_val@U?$_Simple_types@PAVDisplayableObject@@@std@@@0@AAV10@@Z 0041c700 f i BaseEngine.obj
 0001:0001bb90       ??$forward@ABV?$allocator@PAVDisplayableObject@@@std@@@std@@YAABV?$allocator@PAVDisplayableObject@@@0@ABV10@@Z 0041cb90 f i BaseEngine.obj
 0001:0001bc60       ??0?$_Vector_const_iterator@V?$_Vector_val@U?$_Simple_types@PAVDisplayableObject@@@std@@@std@@@std@@QAE@$$QAV01@@Z 0041cc60 f i BaseEngine.obj
 0001:0001bca0       ??0?$_Vector_const_iterator@V?$_Vector_val@U?$_Simple_types@PAVDisplayableObject@@@std@@@std@@@std@@QAE@ABV01@@Z 0041cca0 f i BaseEngine.obj
 0001:0001bce0       ??0?$_Vector_const_iterator@V?$_Vector_val@U?$_Simple_types@PAVDisplayableObject@@@std@@@std@@@std@@QAE@PAPAVDisplayableObject@@PBU_Container_base12@1@@Z 0041cce0 f i BaseEngine.obj
 0001:0001bd20       ??0?$_Vector_iterator@V?$_Vector_val@U?$_Simple_types@PAVDisplayableObject@@@std@@@std@@@std@@QAE@$$QAV01@@Z 0041cd20 f i BaseEngine.obj
 0001:0001bd50       ??0?$_Vector_iterator@V?$_Vector_val@U?$_Simple_types@PAVDisplayableObject@@@std@@@std@@@std@@QAE@ABV01@@Z 0041cd50 f i BaseEngine.obj
 0001:0001bd80       ??0?$_Vector_iterator@V?$_Vector_val@U?$_Simple_types@PAVDisplayableObject@@@std@@@std@@@std@@QAE@PAPAVDisplayableObject@@PBU_Container_base12@1@@Z 0041cd80 f i BaseEngine.obj
 0001:0001bdb0       ??0?$_Vector_val@U?$_Simple_types@PAVDisplayableObject@@@std@@@std@@QAE@XZ 0041cdb0 f i BaseEngine.obj
 0001:0001be00       ??0?$allocator@PAVDisplayableObject@@@std@@QAE@XZ 0041ce00 f i BaseEngine.obj
 0001:0001be20       ??0?$vector@PAVDisplayableObject@@V?$allocator@PAVDisplayableObject@@@std@@@std@@QAE@IABV?$allocator@PAVDisplayableObject@@@1@@Z 0041ce20 f i BaseEngine.obj
 0001:0001be70       ??0DisplayableObjectContainer@@QAE@H@Z 0041ce70 f i BaseEngine.obj
 0001:0001bed0       ??0FilterPoints@@QAE@XZ    0041ced0 f i BaseEngine.obj
 0001:0001bef0       ??1?$_Tidy_guard@V?$vector@PAVDisplayableObject@@V?$allocator@PAVDisplayableObject@@@std@@@std@@@std@@QAE@XZ 0041cef0 f i BaseEngine.obj
 0001:0001bf20       ??1?$_Vector_const_iterator@V?$_Vector_val@U?$_Simple_types@PAVDisplayableObject@@@std@@@std@@@std@@QAE@XZ 0041cf20 f i BaseEngine.obj
 0001:0001bf40       ??1?$_Vector_iterator@V?$_Vector_val@U?$_Simple_types@PAVDisplayableObject@@@std@@@std@@@std@@QAE@XZ 0041cf40 f i BaseEngine.obj
 0001:0001bf60       ??1?$vector@PAVDisplayableObject@@V?$allocator@PAVDisplayableObject@@@std@@@std@@QAE@XZ 0041cf60 f i BaseEngine.obj
 0001:0001bfd0       ??1DisplayableObjectContainer@@UAE@XZ 0041cfd0 f i BaseEngine.obj
 0001:0001c040       ??1DrawingSurface@@QAE@XZ  0041d040 f i BaseEngine.obj
 0001:0001c050       ??8?$_Vector_const_iterator@V?$_Vector_val@U?$_Simple_types@PAVDisplayableObject@@@std@@@std@@@std@@QBE_NABV01@@Z 0041d050 f i BaseEngine.obj
 0001:0001c0a0       ??9?$_Vector_const_iterator@V?$_Vector_val@U?$_Simple_types@PAVDisplayableObject@@@std@@@std@@@std@@QBE_NABV01@@Z 0041d0a0 f i BaseEngine.obj
 0001:0001c0f0       ??A?$vector@PAVDisplayableObject@@V?$allocator@PAVDisplayableObject@@@std@@@std@@QAEAAPAVDisplayableObject@@I@Z 0041d0f0 f i BaseEngine.obj
 0001:0001c1a0       ??D?$_Vector_const_iterator@V?$_Vector_val@U?$_Simple_types@PAVDisplayableObject@@@std@@@std@@@std@@QBEABQAVDisplayableObject@@XZ 0041d1a0 f i BaseEngine.obj
 0001:0001c2b0       ??D?$_Vector_iterator@V?$_Vector_val@U?$_Simple_types@PAVDisplayableObject@@@std@@@std@@@std@@QBEAAPAVDisplayableObject@@XZ 0041d2b0 f i BaseEngine.obj
 0001:0001c2d0       ??E?$_Vector_const_iterator@V?$_Vector_val@U?$_Simple_types@PAVDisplayableObject@@@std@@@std@@@std@@QAEAAV01@XZ 0041d2d0 f i BaseEngine.obj
 0001:0001c3e0       ??E?$_Vector_iterator@V?$_Vector_val@U?$_Simple_types@PAVDisplayableObject@@@std@@@std@@@std@@QAE?AV01@H@Z 0041d3e0 f i BaseEngine.obj
 0001:0001c600       ??_GBaseEngine@@UAEPAXI@Z  0041d600 f i BaseEngine.obj
 0001:0001c600       ??_EBaseEngine@@UAEPAXI@Z  0041d600 f i BaseEngine.obj
 0001:0001c640       ??_EDisplayableObjectContainer@@UAEPAXI@Z 0041d640 f i BaseEngine.obj
 0001:0001c640       ??_GDisplayableObjectContainer@@UAEPAXI@Z 0041d640 f i BaseEngine.obj
 0001:0001c680       ?_Buy_nonzero@?$vector@PAVDisplayableObject@@V?$allocator@PAVDisplayableObject@@@std@@@std@@AAEXI@Z 0041d680 f i BaseEngine.obj
 0001:0001c6c0       ?_Buy_raw@?$vector@PAVDisplayableObject@@V?$allocator@PAVDisplayableObject@@@std@@@std@@AAEXI@Z 0041d6c0 f i BaseEngine.obj
 0001:0001c740       ?_Compat@?$_Vector_const_iterator@V?$_Vector_val@U?$_Simple_types@PAVDisplayableObject@@@std@@@std@@@std@@QBEXABV12@@Z 0041d740 f i BaseEngine.obj
 0001:0001c7e0       ?_Destroy@?$vector@PAVDisplayableObject@@V?$allocator@PAVDisplayableObject@@@std@@@std@@AAEXPAPAVDisplayableObject@@0@Z 0041d7e0 f i BaseEngine.obj
 0001:0001c810       ?_Get_first@?$_Compressed_pair@V?$allocator@PAVDisplayableObject@@@std@@V?$_Vector_val@U?$_Simple_types@PAVDisplayableObject@@@std@@@2@$00@std@@QAEAAV?$allocator@PAVDisplayableObject@@@2@XZ 0041d810 f i BaseEngine.obj
 0001:0001c830       ?_Get_first@?$_Compressed_pair@V?$allocator@PAVDisplayableObject@@@std@@V?$_Vector_val@U?$_Simple_types@PAVDisplayableObject@@@std@@@2@$00@std@@QBEABV?$allocator@PAVDisplayableObject@@@2@XZ 0041d830 f i BaseEngine.obj
 0001:0001c850       ?_Getal@?$vector@PAVDisplayableObject@@V?$allocator@PAVDisplayableObject@@@std@@@std@@AAEAAV?$allocator@PAVDisplayableObject@@@2@XZ 0041d850 f i BaseEngine.obj
 0001:0001c870       ?_Getal@?$vector@PAVDisplayableObject@@V?$allocator@PAVDisplayableObject@@@std@@@std@@ABEABV?$allocator@PAVDisplayableObject@@@2@XZ 0041d870 f i BaseEngine.obj
 0001:0001c890       ?_Tidy@?$vector@PAVDisplayableObject@@V?$allocator@PAVDisplayableObject@@@std@@@std@@AAEXXZ 0041d890 f i BaseEngine.obj
 0001:0001c980       ?_Ufill@?$vector@PAVDisplayableObject@@V?$allocator@PAVDisplayableObject@@@std@@@std@@AAEPAPAVDisplayableObject@@PAPAV3@IU_Value_init_tag@2@@Z 0041d980 f i BaseEngine.obj
 0001:0001c9b0       ?_Unwrapped@?$_Vector_iterator@V?$_Vector_val@U?$_Simple_types@PAVDisplayableObject@@@std@@@std@@@std@@QBEPAPAVDisplayableObject@@XZ 0041d9b0 f i BaseEngine.obj
 0001:0001c9d0       ?_Verify_range@std@@YAXABV?$_Vector_const_iterator@V?$_Vector_val@U?$_Simple_types@PAVDisplayableObject@@@std@@@std@@@1@0@Z 0041d9d0 f i BaseEngine.obj
 0001:0001cad0       ?_Xlength@?$vector@PAVDisplayableObject@@V?$allocator@PAVDisplayableObject@@@std@@@std@@CAXXZ 0041dad0 f i BaseEngine.obj
 0001:0001caf0       ?allocate@?$allocator@PAVDisplayableObject@@@std@@QAEPAPAVDisplayableObject@@I@Z 0041daf0 f i BaseEngine.obj
 0001:0001cb20       ?begin@?$vector@PAVDisplayableObject@@V?$allocator@PAVDisplayableObject@@@std@@@std@@QAE?AV?$_Vector_iterator@V?$_Vector_val@U?$_Simple_types@PAVDisplayableObject@@@std@@@std@@@2@XZ 0041db20 f i BaseEngine.obj
 0001:0001cb70       ?copyAllBackgroundBuffer@BaseEngine@@UAEXXZ 0041db70 f i BaseEngine.obj
 0001:0001cba0       ?copyBackgroundPixels@BaseEngine@@UAEXHHHH@Z 0041dba0 f i BaseEngine.obj
 0001:0001cbf0       ?createSurface@DrawingSurface@@QAEXHH@Z 0041dbf0 f i BaseEngine.obj
 0001:0001cc40       ?deallocate@?$allocator@PAVDisplayableObject@@@std@@QAEXQAPAVDisplayableObject@@I@Z 0041dc40 f i BaseEngine.obj
 0001:0001cc70       ?destroyOldObjects@DisplayableObjectContainer@@UAEX_N@Z 0041dc70 f i BaseEngine.obj
 0001:0001cd60       ?drawableObjectsChanged@DisplayableObjectContainer@@QAEXXZ 0041dd60 f i BaseEngine.obj
 0001:0001cd80       ?end@?$vector@PAVDisplayableObject@@V?$allocator@PAVDisplayableObject@@@std@@@std@@QAE?AV?$_Vector_iterator@V?$_Vector_val@U?$_Simple_types@PAVDisplayableObject@@@std@@@std@@@2@XZ 0041dd80 f i BaseEngine.obj
 0001:0001cdd0       ?fillBackground@BaseEngine@@UAEXI@Z 0041ddd0 f i BaseEngine.obj
 0001:0001ce00       ?filter@BaseEngine@@UAE_NPAVDrawingSurface@@AAH1AAI@Z 0041de00 f i BaseEngine.obj
 0001:0001cec0       ?filterConvertRealToVirtualXPosition@FilterPoints@@UAEHH@Z 0041dec0 f i BaseEngine.obj
 0001:0001cee0       ?filterConvertRealToVirtualYPosition@FilterPoints@@UAEHH@Z 0041dee0 f i BaseEngine.obj
 0001:0001cf00       ?filterConvertVirtualToRealXPosition@FilterPoints@@UAEHH@Z 0041df00 f i BaseEngine.obj
 0001:0001cf20       ?filterConvertVirtualToRealYPosition@FilterPoints@@UAEHH@Z 0041df20 f i BaseEngine.obj
 0001:0001cf40       ?getHasActed@DisplayableObject@@QBE_NXZ 0041df40 f i BaseEngine.obj
 0001:0001cf60       ?getModifiedTime@BaseEngine@@UBEHXZ 0041df60 f i BaseEngine.obj
 0001:0001cfa0       ?getWindowHeight@BaseEngine@@QBEHXZ 0041dfa0 f i BaseEngine.obj
 0001:0001cfc0       ?getWindowWidth@BaseEngine@@QBEHXZ 0041dfc0 f i BaseEngine.obj
 0001:0001cfe0       ?isTimeToAct@BaseEngine@@QBE_NXZ 0041dfe0 f i BaseEngine.obj
 0001:0001d020       ?max_size@?$_Default_allocator_traits@V?$allocator@PAVDisplayableObject@@@std@@@std@@SAIABV?$allocator@PAVDisplayableObject@@@2@@Z 0041e020 f i BaseEngine.obj
 0001:0001d030       ?max_size@?$vector@PAVDisplayableObject@@V?$allocator@PAVDisplayableObject@@@std@@@std@@QBEIXZ 0041e030 f i BaseEngine.obj
 0001:0001d080       ?mySDLUpdateTexture@DrawingSurface@@QAEXPAUSDL_Texture@@@Z 0041e080 f i BaseEngine.obj
 0001:0001d0c0       ?setHasActed@DisplayableObject@@QAEX_N@Z 0041e0c0 f i BaseEngine.obj
 0001:0001d0e0       ?setTimeToAct@BaseEngine@@QAEXH@Z 0041e0e0 f i BaseEngine.obj
 0001:0001d110       ?symbolToKeycode@BaseEngine@@SAHH@Z 0041e110 f i BaseEngine.obj
 0001:0001d600       ?virtBackgroundMouseDown@BaseEngine@@UAEXHHHHH@Z 0041e600 f i BaseEngine.obj
 0001:0001d610       ?virtMainLoopDoAfterUpdate@BaseEngine@@UAEXXZ 0041e610 f i BaseEngine.obj
 0001:0001d620       ?virtMainLoopDoBeforeUpdate@BaseEngine@@UAEXXZ 0041e620 f i BaseEngine.obj
 0001:0001d630       ?virtMainLoopPostUpdate@BaseEngine@@UAEXXZ 0041e630 f i BaseEngine.obj
 0001:0001d640       ?virtMainLoopPreUpdate@BaseEngine@@UAEXXZ 0041e640 f i BaseEngine.obj
 0001:0001d650       ?virtMainLoopStartIteration@BaseEngine@@UAEXXZ 0041e650 f i BaseEngine.obj
 0001:0001d660       ?virtMouseWheel@BaseEngine@@UAEXHHHH@Z 0041e660 f i BaseEngine.obj
 0001:0001d670       ?virtPostDraw@BaseEngine@@UAEXXZ 0041e670 f i BaseEngine.obj
 0001:0001d680       ?virtPreDraw@BaseEngine@@UAEXXZ 0041e680 f i BaseEngine.obj
 0001:0001d690       ?virtRealMouseDown@BaseEngine@@UAEXHHH@Z 0041e690 f i BaseEngine.obj
 0001:0001d6a0       ?virtRealMouseUp@BaseEngine@@UAEXHHH@Z 0041e6a0 f i BaseEngine.obj
 0001:0001d6b0       ?virtTouchEvent@BaseEngine@@UAEXHH_J0MMMMM@Z 0041e6b0 f i BaseEngine.obj
 0001:0001d6c0       _fprintf                   0041e6c0 f i BaseEngine.obj
 0001:0001d700       ??0DisplayableObject@@QAE@PAVBaseEngine@@HH_N@Z 0041e700 f   DisplayableObject.obj
 0001:0001d7c0       ??0DisplayableObject@@QAE@HHPAVBaseEngine@@HH_N@Z 0041e7c0 f   DisplayableObject.obj
 0001:0001d880       ??1DisplayableObject@@UAE@XZ 0041e880 f   DisplayableObject.obj
 0001:0001d8a0       ?virtDraw@DisplayableObject@@UAEXXZ 0041e8a0 f   DisplayableObject.obj
 0001:0001d940       ?virtDoUpdate@DisplayableObject@@UAEXH@Z 0041e940 f   DisplayableObject.obj
 0001:0001d950       ?redrawDisplay@DisplayableObject@@QAEXXZ 0041e950 f   DisplayableObject.obj
 0001:0001d970       ?redrawRectangle@DisplayableObject@@QAEXXZ 0041e970 f   DisplayableObject.obj
 0001:0001d9b0       ?virtIsObjectInRedrawArea@DisplayableObject@@QAE_NXZ 0041e9b0 f   DisplayableObject.obj
 0001:0001da50       ?fixPosition@DisplayableObject@@QAEXXZ 0041ea50 f   DisplayableObject.obj
 0001:0001dc20       ??_GDisplayableObject@@UAEPAXI@Z 0041ec20 f i DisplayableObject.obj
 0001:0001dc20       ??_EDisplayableObject@@UAEPAXI@Z 0041ec20 f i DisplayableObject.obj
 0001:0001dc60       ?convertVirtualPixelToClickedXPosition@BaseEngine@@QAEHH@Z 0041ec60 f i DisplayableObject.obj
 0001:0001dc90       ?convertVirtualPixelToClickedYPosition@BaseEngine@@QAEHH@Z 0041ec90 f i DisplayableObject.obj
 0001:0001dcc0       ?convertVirtualToRealXPosition@DrawingSurface@@QAEHH@Z 0041ecc0 f i DisplayableObject.obj
 0001:0001dd00       ?convertVirtualToRealYPosition@DrawingSurface@@QAEHH@Z 0041ed00 f i DisplayableObject.obj
 0001:0001dd40       ?redrawRectangle@BaseEngine@@QAEXHHHH@Z 0041ed40 f i DisplayableObject.obj
 0001:0001deb0       ?setForegroundPixel@BaseEngine@@QAEXHHI@Z 0041eeb0 f i DisplayableObject.obj
 0001:0001dee0       ??0FontManager@@QAE@XZ     0041eee0 f   FontManager.obj
 0001:0001df50       ??1FontManager@@QAE@XZ     0041ef50 f   FontManager.obj
 0001:0001dfc0       ?getFont@FontManager@@QAEPAVFont@@PBDH@Z 0041efc0 f   FontManager.obj
 0001:0001e160       ?loadFonts@FontManager@@QAEXXZ 0041f160 f   FontManager.obj
 0001:0001e290       ??$growArrayOfObjects@PAVFont@@@@YAPAPAVFont@@PAPAV0@AAHH@Z 0041f290 f i FontManager.obj
 0001:0001e350       ??0Font@@QAE@PBDH@Z        0041f350 f i FontManager.obj
 0001:0001e3d0       ??1Font@@QAE@XZ            0041f3d0 f i FontManager.obj
 0001:0001e450       ??_GFont@@QAEPAXI@Z        0041f450 f i FontManager.obj
 0001:0001e490       ?getName@Font@@QAEPBDXZ    0041f490 f i FontManager.obj
 0001:0001e4b0       ?getSize@Font@@QAEHXZ      0041f4b0 f i FontManager.obj
 0001:0001e4d0       ?virtSetUpEngine@PauseState@@UAEXAAVGameEngine@@@Z 0041f4d0 f   PauseState.obj
 0001:0001e4e0       ?virtDrawLabelText@PauseState@@UAEXAAVGameEngine@@@Z 0041f4e0 f   PauseState.obj
 0001:0001e520       ?applyState@PauseState@@UAEXAAVGameEngine@@@Z 0041f520 f   PauseState.obj
 0001:0001e5b0       ?virtSetUpKeyboard@PauseState@@UAEXAAVGameEngine@@H@Z 0041f5b0 f   PauseState.obj
 0001:0001e640       ?virtSetUpForeground@PauseState@@UAEXAAVGameEngine@@@Z 0041f640 f   PauseState.obj
 0001:0001e650       ?virtSetUpMouseDown@PauseState@@UAEXAAVGameEngine@@HHH@Z 0041f650 f   PauseState.obj
 0001:0001e6c0       ??0RunningState@@QAE@XZ    0041f6c0 f i PauseState.obj
 0001:0001e6f0       ?pause@BaseEngine@@QAEXXZ  0041f6f0 f i PauseState.obj
 0001:0001e720       ?virtSetUpEngine@RunningState@@UAEXAAVGameEngine@@@Z 0041f720 f   RunningState.obj
 0001:0001e840       ?virtDrawLabelText@RunningState@@UAEXAAVGameEngine@@@Z 0041f840 f   RunningState.obj
 0001:0001ea20       ?applyState@RunningState@@UAEXAAVGameEngine@@@Z 0041fa20 f   RunningState.obj
 0001:0001eaf0       ?virtSetUpKeyboard@RunningState@@UAEXAAVGameEngine@@H@Z 0041faf0 f   RunningState.obj
 0001:0001ebf0       ?virtSetUpForeground@RunningState@@UAEXAAVGameEngine@@@Z 0041fbf0 f   RunningState.obj
 0001:0001ef60       ?virtSetUpMouseDown@RunningState@@UAEXAAVGameEngine@@HHH@Z 0041ff60 f   RunningState.obj
 0001:0001f180       ??$addressof@$$CBV?$_Vector_val@U?$_Simple_types@PAVDisplayableObject@@@std@@@std@@@std@@YAPBV?$_Vector_val@U?$_Simple_types@PAVDisplayableObject@@@std@@@0@ABV10@@Z 00420180 f i RunningState.obj
 0001:0001f190       ??0PauseState@@QAE@XZ      00420190 f i RunningState.obj
 0001:0001f1c0       ??E?$_Vector_const_iterator@V?$_Vector_val@U?$_Simple_types@PAVDisplayableObject@@@std@@@std@@@std@@QAE?AV01@H@Z 004201c0 f i RunningState.obj
 0001:0001f270       ?begin@?$vector@PAVDisplayableObject@@V?$allocator@PAVDisplayableObject@@@std@@@std@@QBE?AV?$_Vector_const_iterator@V?$_Vector_val@U?$_Simple_types@PAVDisplayableObject@@@std@@@std@@@2@XZ 00420270 f i RunningState.obj
 0001:0001f2c0       ?end@?$vector@PAVDisplayableObject@@V?$allocator@PAVDisplayableObject@@@std@@@std@@QBE?AV?$_Vector_const_iterator@V?$_Vector_val@U?$_Simple_types@PAVDisplayableObject@@@std@@@std@@@2@XZ 004202c0 f i RunningState.obj
 0001:0001f310       ?getFont@BaseEngine@@QAEPAVFont@@PBDH@Z 00420310 f i RunningState.obj
 0001:0001f340       ?setAllObjectsVisible@DisplayableObjectContainer@@QBEX_N@Z 00420340 f i RunningState.obj
 0001:0001f450       ?unpause@BaseEngine@@QAEXXZ 00420450 f i RunningState.obj
 0001:0001f4a0       ??0GameEngine@@QAE@XZ      004204a0 f   GameEngine.obj
 0001:0001f9b0       ??1GameEngine@@UAE@XZ      004209b0 f   GameEngine.obj
 0001:0001fb50       ?virtSetupBackgroundBuffer@GameEngine@@UAEXXZ 00420b50 f   GameEngine.obj
 0001:0001fb80       ?virtInitialiseObjects@GameEngine@@UAEHXZ 00420b80 f   GameEngine.obj
 0001:0001fcf0       ?virtMouseDown@GameEngine@@UAEXHHH@Z 00420cf0 f   GameEngine.obj
 0001:0001fd30       ?virtDrawStringsUnderneath@GameEngine@@UAEXXZ 00420d30 f   GameEngine.obj
 0001:0001fd60       ??6@YAAAV?$basic_ostream@DU?$char_traits@D@std@@@std@@AAV01@ABVGameEngine@@@Z 00420d60 f   GameEngine.obj
 0001:00020350       ??5@YAAAV?$basic_istream@DU?$char_traits@D@std@@@std@@AAV01@AAVGameEngine@@@Z 00421350 f   GameEngine.obj
 0001:00020a70       ?getScore@GameEngine@@QAEHXZ 00421a70 f   GameEngine.obj
 0001:00020a90       ?setScore@GameEngine@@QAEXH@Z 00421a90 f   GameEngine.obj
 0001:00020ab0       ?save@GameEngine@@QAEXXZ   00421ab0 f   GameEngine.obj
 0001:00020bb0       ?virtKeyDown@GameEngine@@UAEXH@Z 00421bb0 f   GameEngine.obj
 0001:00020be0       ?getTileManager@GameEngine@@QAEAAVAdvancedTileManager@@XZ 00421be0 f   GameEngine.obj
 0001:00020c00       ?setEngineState@GameEngine@@QAEXPAVBaseState@@@Z 00421c00 f   GameEngine.obj
 0001:00020c20       ?setUpMusic@GameEngine@@QAEXXZ 00421c20 f   GameEngine.obj
 0001:00020f20       ?readScoreFile@GameEngine@@QAEXXZ 00421f20 f   GameEngine.obj
 0001:000210b0       ?updateScoreFile@GameEngine@@QAEXXZ 004220b0 f   GameEngine.obj
 0001:00021230       ?closeAllMusic@GameEngine@@QAEXXZ 00422230 f   GameEngine.obj
 0001:00021390       ?mapCoordinates@GameEngine@@UAE_NAAN0ABVSimpleImage@@@Z 00422390 f   GameEngine.obj
 0001:00021620       ?addBossObject@GameEngine@@QAEXHHH@Z 00422620 f   GameEngine.obj
 0001:000216c0       ?addBullet@GameEngine@@QAEXHHH@Z 004226c0 f   GameEngine.obj
 0001:000218d0       ?checkObstacle@GameEngine@@QAE_NH@Z 004228d0 f   GameEngine.obj
 0001:00021920       ?setIsWin@GameEngine@@QAEX_N@Z 00422920 f   GameEngine.obj
 0001:00021940       ?setIsLose@GameEngine@@QAEX_N@Z 00422940 f   GameEngine.obj
 0001:00021960       ?virtMainLoopDoBeforeUpdate@GameEngine@@UAEXXZ 00422960 f   GameEngine.obj
 0001:00021b10       ?copyAllBackgroundBuffer@GameEngine@@UAEXXZ 00422b10 f   GameEngine.obj
 0001:00021bb0       ?virtCreateSurfaces@GameEngine@@UAEXXZ 00422bb0 f   GameEngine.obj
 0001:00021c70       ?virtInitialise@GameEngine@@UAEHXZ 00422c70 f   GameEngine.obj
 0001:00021d50       ?getMainChar@GameEngine@@QAEPAVGameMainObject@@XZ 00422d50 f   GameEngine.obj
 0001:00021d70       ?virtPreDraw@GameEngine@@UAEXXZ 00422d70 f   GameEngine.obj
 0001:00021da0       ?virtMouseWheel@GameEngine@@UAEXHHHH@Z 00422da0 f   GameEngine.obj
 0001:00021de0       ?zoomOut@GameEngine@@QAEXXZ 00422de0 f   GameEngine.obj
 0001:00021e90       ?zoomIn@GameEngine@@QAEXXZ 00422e90 f   GameEngine.obj
 0001:00021f40       ?virtMainLoopDoAfterUpdate@GameEngine@@UAEXXZ 00422f40 f   GameEngine.obj
 0001:00021fb0       ?setDeleteObject@GameEngine@@QAEXPAVDisplayableObject@@@Z 00422fb0 f   GameEngine.obj
 0001:00021fd0       ?playBulletMusic@GameEngine@@QAEXXZ 00422fd0 f   GameEngine.obj
 0001:00022030       ?addOpenCaseMusic@GameEngine@@QAEXXZ 00423030 f   GameEngine.obj
 0001:00022090       ?initialiseEasyObjects@GameEngine@@QAEXXZ 00423090 f   GameEngine.obj
 0001:000223a0       ?playDoorOpenMusic@GameEngine@@QAEXXZ 004233a0 f   GameEngine.obj
 0001:00022400       ?playBottleMusic@GameEngine@@QAEXXZ 00423400 f   GameEngine.obj
 0001:00022460       ?playDeadMusic@GameEngine@@QAEXXZ 00423460 f   GameEngine.obj
 0001:000224c0       ?initialiseMediumObjects@GameEngine@@QAEXXZ 004234c0 f   GameEngine.obj
 0001:00022910       ?initialiseDifficultObjects@GameEngine@@QAEXXZ 00423910 f   GameEngine.obj
 0001:00022e10       ?playClickMusic@GameEngine@@QAEXXZ 00423e10 f   GameEngine.obj
 0001:00023ce0       ??$?0AAPAV_Facet_base@std@@@?$_Compressed_pair@U?$default_delete@V_Facet_base@std@@@std@@PAV_Facet_base@2@$00@std@@QAE@U_Zero_then_variadic_args_t@1@AAPAV_Facet_base@1@@Z 00424ce0 f i GameEngine.obj
 0001:00023d10       ??$?0U?$default_delete@V_Facet_base@std@@@std@@$0A@@?$unique_ptr@V_Facet_base@std@@U?$default_delete@V_Facet_base@std@@@2@@std@@QAE@PAV_Facet_base@1@@Z 00424d10 f i GameEngine.obj
 0001:00023d40       ??$?5DU?$char_traits@D@std@@V?$allocator@D@1@@std@@YAAAV?$basic_istream@DU?$char_traits@D@std@@@0@$$QAV10@AAV?$basic_string@DU?$char_traits@D@std@@V?$allocator@D@2@@0@@Z 00424d40 f i GameEngine.obj
 0001:00024070       ??$?5DU?$char_traits@D@std@@V?$allocator@D@1@@std@@YAAAV?$basic_istream@DU?$char_traits@D@std@@@0@AAV10@AAV?$basic_string@DU?$char_traits@D@std@@V?$allocator@D@2@@0@@Z 00425070 f i GameEngine.obj
 0001:000240a0       ??$_Copy_memmove@PAPAVDisplayableObject@@PAPAV1@@std@@YAPAPAVDisplayableObject@@PAPAV1@00@Z 004250a0 f i GameEngine.obj
 0001:000240f0       ??$_Emplace_back_with_unused_capacity@ABQAVDisplayableObject@@@?$vector@PAVDisplayableObject@@V?$allocator@PAVDisplayableObject@@@std@@@std@@AAE@ABQAVDisplayableObject@@@Z 004250f0 f i GameEngine.obj
 0001:00024190       ??$_Emplace_reallocate@ABQAVDisplayableObject@@@?$vector@PAVDisplayableObject@@V?$allocator@PAVDisplayableObject@@@std@@@std@@QAEPAPAVDisplayableObject@@QAPAV2@ABQAV2@@Z 00425190 f i GameEngine.obj
 0001:000243e0       ??$_Fgetc@D@std@@YA_NAADPAU_iobuf@@@Z 004253e0 f i GameEngine.obj
 0001:00024420       ??$_Find_unchecked1@PAPAVDisplayableObject@@PAV1@@std@@YAPAPAVDisplayableObject@@PAPAV1@QAPAV1@ABQAV1@U?$integral_constant@_N$0A@@0@@Z 00425420 f i GameEngine.obj
 0001:00024460       ??$_Find_unchecked@PAPAVDisplayableObject@@PAV1@@std@@YAPAPAVDisplayableObject@@QAPAV1@0ABQAV1@@Z 00425460 f i GameEngine.obj
 0001:00024490       ??$_Fputc@D@std@@YA_NDPAU_iobuf@@@Z 00425490 f i GameEngine.obj
 0001:000244d0       ??$_Get_unwrapped@ABQAPAVDisplayableObject@@@std@@YA@ABQAPAVDisplayableObject@@@Z 004254d0 f i GameEngine.obj
 0001:000244e0       ??$_Get_unwrapped@ABV?$_Vector_iterator@V?$_Vector_val@U?$_Simple_types@PAVDisplayableObject@@@std@@@std@@@std@@@std@@YA@ABV?$_Vector_iterator@V?$_Vector_val@U?$_Simple_types@PAVDisplayableObject@@@std@@@std@@@0@@Z 004254e0 f i GameEngine.obj
 0001:000244f0       ??$_Move_unchecked@PAPAVDisplayableObject@@PAPAV1@@std@@YAPAPAVDisplayableObject@@PAPAV1@00@Z 004254f0 f i GameEngine.obj
 0001:00024560       ??$_Refancy@PAPAVDisplayableObject@@$0A@@std@@YAPAPAVDisplayableObject@@PAPAV1@@Z 00425560 f i GameEngine.obj
 0001:00024570       ??$_Seek_wrapped@V?$_Vector_iterator@V?$_Vector_val@U?$_Simple_types@PAVDisplayableObject@@@std@@@std@@@std@@PAPAVDisplayableObject@@@std@@YAXAAV?$_Vector_iterator@V?$_Vector_val@U?$_Simple_types@PAVDisplayableObject@@@std@@@std@@@0@$$QAPAPAVDisplayableObject@@@Z 00425570 f i GameEngine.obj
 0001:00024590       ??$_Ungetc@D@std@@YA_NABDPAU_iobuf@@@Z 00425590 f i GameEngine.obj
 0001:000245e0       ??$_Uninitialized_move@PAPAVDisplayableObject@@V?$allocator@PAVDisplayableObject@@@std@@@std@@YAPAPAVDisplayableObject@@QAPAV1@0PAPAV1@AAV?$allocator@PAVDisplayableObject@@@0@@Z 004255e0 f i GameEngine.obj
 0001:00024650       ??$addressof@$$CBV?$codecvt@DDU_Mbstatet@@@std@@@std@@YAPBV?$codecvt@DDU_Mbstatet@@@0@ABV10@@Z 00425650 f i GameEngine.obj
 0001:00024660       ??$addressof@V?$basic_filebuf@DU?$char_traits@D@std@@@std@@@std@@YAPAV?$basic_filebuf@DU?$char_traits@D@std@@@0@AAV10@@Z 00425660 f i GameEngine.obj
 0001:00024670       ??$construct@PAVDisplayableObject@@ABQAV1@@?$_Default_allocator_traits@V?$allocator@PAVDisplayableObject@@@std@@@std@@SAXAAV?$allocator@PAVDisplayableObject@@@1@QAPAVDisplayableObject@@ABQAV3@@Z 00425670 f i GameEngine.obj
 0001:000246b0       ??$destroy@PAVDisplayableObject@@@?$_Default_allocator_traits@V?$allocator@PAVDisplayableObject@@@std@@@std@@SAXAAV?$allocator@PAVDisplayableObject@@@1@QAPAVDisplayableObject@@@Z 004256b0 f i GameEngine.obj
 0001:000246c0       ??$emplace_back@ABQAVDisplayableObject@@@?$vector@PAVDisplayableObject@@V?$allocator@PAVDisplayableObject@@@std@@@std@@QAE@ABQAVDisplayableObject@@@Z 004256c0 f i GameEngine.obj
 0001:00024740       ??$exchange@PAV_Facet_base@std@@PAV12@@std@@YAPAV_Facet_base@0@AAPAV10@$$QAPAV10@@Z 00425740 f i GameEngine.obj
 0001:00024770       ??$find@V?$_Vector_iterator@V?$_Vector_val@U?$_Simple_types@PAVDisplayableObject@@@std@@@std@@@std@@PAVDisplayableObject@@@std@@YA?AV?$_Vector_iterator@V?$_Vector_val@U?$_Simple_types@PAVDisplayableObject@@@std@@@std@@@0@V10@V10@ABQAVDisplayableObject@@@Z 00425770 f i GameEngine.obj
 0001:00024860       ??$forward@AAPAV_Facet_base@std@@@std@@YAAAPAV_Facet_base@0@AAPAV10@@Z 00425860 f i GameEngine.obj
 0001:00024870       ??$forward@ABQAVDisplayableObject@@@std@@YAABQAVDisplayableObject@@ABQAV1@@Z 00425870 f i GameEngine.obj
 0001:00024880       ??$getline@DU?$char_traits@D@std@@V?$allocator@D@2@@std@@YAAAV?$basic_istream@DU?$char_traits@D@std@@@0@$$QAV10@AAV?$basic_string@DU?$char_traits@D@std@@V?$allocator@D@2@@0@D@Z 00425880 f i GameEngine.obj
 0001:00024b00       ??$getline@DU?$char_traits@D@std@@V?$allocator@D@2@@std@@YAAAV?$basic_istream@DU?$char_traits@D@std@@@0@AAV10@AAV?$basic_string@DU?$char_traits@D@std@@V?$allocator@D@2@@0@@Z 00425b00 f i GameEngine.obj
 0001:00024b50       ??$move@AAPAVDisplayableObject@@@std@@YA$$QAPAVDisplayableObject@@AAPAV1@@Z 00425b50 f i GameEngine.obj
 0001:00024b60       ??$move@AAV?$basic_istream@DU?$char_traits@D@std@@@std@@@std@@YA$$QAV?$basic_istream@DU?$char_traits@D@std@@@0@AAV10@@Z 00425b60 f i GameEngine.obj
 0001:00024b70       ??$use_facet@V?$codecvt@DDU_Mbstatet@@@std@@@std@@YAABV?$codecvt@DDU_Mbstatet@@@0@ABVlocale@0@@Z 00425b70 f i GameEngine.obj
 0001:00024cc0       ??$use_facet@V?$ctype@D@std@@@std@@YAABV?$ctype@D@0@ABVlocale@0@@Z 00425cc0 f i GameEngine.obj
 0001:00024e10       ??0?$basic_filebuf@DU?$char_traits@D@std@@@std@@QAE@XZ 00425e10 f i GameEngine.obj
 0001:00024e90       ??0?$basic_fstream@DU?$char_traits@D@std@@@std@@QAE@XZ 00425e90 f i GameEngine.obj
 0001:00024fa0       ??0?$basic_string@DU?$char_traits@D@std@@V?$allocator@D@2@@std@@QAE@XZ 00425fa0 f i GameEngine.obj
 0001:00025030       ??0?$fpos@U_Mbstatet@@@std@@QAE@U_Mbstatet@@_J@Z 00426030 f i GameEngine.obj
 0001:00025080       ??0?$fpos@U_Mbstatet@@@std@@QAE@_J@Z 00426080 f i GameEngine.obj
 0001:000250d0       ??0CoordinateMapping@@QAE@XZ 004260d0 f i GameEngine.obj
 0001:000250f0       ??0DragableBaseClassObject@@QAE@HHPAVBaseEngine@@HH_N@Z 004260f0 f i GameEngine.obj
 0001:00025150       ??0DragableImageObject@@QAE@HHPAVBaseEngine@@V?$basic_string@DU?$char_traits@D@std@@V?$allocator@D@2@@std@@_N2@Z 00426150 f i GameEngine.obj
 0001:000252f0       ??0FilterPointsScaling@@QAE@HHPAVFilterPoints@@@Z 004262f0 f i GameEngine.obj
 0001:00025370       ??0FilterPointsTranslation@@QAE@HHPAVFilterPoints@@@Z 00426370 f i GameEngine.obj
 0001:000253c0       ??0MappableImageObject@@QAE@PAVCoordinateMapping@@HHPAVBaseEngine@@V?$basic_string@DU?$char_traits@D@std@@V?$allocator@D@2@@std@@_N3@Z 004263c0 f i GameEngine.obj
 0001:00025480       ??0_Sentry_base@?$basic_istream@DU?$char_traits@D@std@@@std@@QAE@AAV12@@Z 00426480 f i GameEngine.obj
 0001:000254e0       ??0bad_cast@std@@QAE@ABV01@@Z 004264e0 f i GameEngine.obj
 0001:00025510       ??0bad_cast@std@@QAE@XZ    00426510 f i GameEngine.obj
 0001:00025540       ??0sentry@?$basic_istream@DU?$char_traits@D@std@@@std@@QAE@AAV12@_N@Z 00426540 f i GameEngine.obj
 0001:000255d0       ??1?$basic_filebuf@DU?$char_traits@D@std@@@std@@UAE@XZ 004265d0 f i GameEngine.obj
 0001:00025660       ??1?$basic_fstream@DU?$char_traits@D@std@@@std@@UAE@XZ 00426660 f i GameEngine.obj
 0001:000256d0       ??1?$unique_ptr@V_Facet_base@std@@U?$default_delete@V_Facet_base@std@@@2@@std@@QAE@XZ 004266d0 f i GameEngine.obj
 0001:00025710       ??1DragableBaseClassObject@@UAE@XZ 00426710 f i GameEngine.obj
 0001:00025730       ??1DragableImageObject@@UAE@XZ 00426730 f i GameEngine.obj
 0001:00025760       ??1MappableImageObject@@UAE@XZ 00426760 f i GameEngine.obj
 0001:00025780       ??1_Sentry_base@?$basic_istream@DU?$char_traits@D@std@@@std@@QAE@XZ 00426780 f i GameEngine.obj
 0001:00025810       ??1bad_cast@std@@UAE@XZ    00426810 f i GameEngine.obj
 0001:00025830       ??1locale@std@@QAE@XZ      00426830 f i GameEngine.obj
 0001:00025890       ??1sentry@?$basic_istream@DU?$char_traits@D@std@@@std@@QAE@XZ 00426890 f i GameEngine.obj
 0001:000258b0       ??B?$fpos@U_Mbstatet@@@std@@QBE_JXZ 004268b0 f i GameEngine.obj
 0001:000258e0       ??Bsentry@?$basic_istream@DU?$char_traits@D@std@@@std@@QBE_NXZ 004268e0 f i GameEngine.obj
 0001:00025900       ??R?$default_delete@V_Facet_base@std@@@std@@QBEXPAV_Facet_base@1@@Z 00426900 f i GameEngine.obj
 0001:00025950       ??_D?$basic_fstream@DU?$char_traits@D@std@@@std@@QAEXXZ 00426950 f i GameEngine.obj
 0001:0002597a       ??_E?$basic_fstream@DU?$char_traits@D@std@@@std@@$4PPPPPPPM@A@AEPAXI@Z 0042697a f i GameEngine.obj
 0001:00025990       ??_E?$basic_filebuf@DU?$char_traits@D@std@@@std@@UAEPAXI@Z 00426990 f i GameEngine.obj
 0001:00025990       ??_G?$basic_filebuf@DU?$char_traits@D@std@@@std@@UAEPAXI@Z 00426990 f i GameEngine.obj
 0001:000259d0       ??_E?$basic_fstream@DU?$char_traits@D@std@@@std@@UAEPAXI@Z 004269d0 f i GameEngine.obj
 0001:000259d0       ??_G?$basic_fstream@DU?$char_traits@D@std@@@std@@UAEPAXI@Z 004269d0 f i GameEngine.obj
 0001:00025a20       ??_GDragableBaseClassObject@@UAEPAXI@Z 00426a20 f i GameEngine.obj
 0001:00025a20       ??_EDragableBaseClassObject@@UAEPAXI@Z 00426a20 f i GameEngine.obj
 0001:00025a60       ??_GDragableImageObject@@UAEPAXI@Z 00426a60 f i GameEngine.obj
 0001:00025a60       ??_EDragableImageObject@@UAEPAXI@Z 00426a60 f i GameEngine.obj
 0001:00025aa0       ??_GGameEngine@@UAEPAXI@Z  00426aa0 f i GameEngine.obj
 0001:00025aa0       ??_EGameEngine@@UAEPAXI@Z  00426aa0 f i GameEngine.obj
 0001:00025ae0       ??_EMappableImageObject@@UAEPAXI@Z 00426ae0 f i GameEngine.obj
 0001:00025ae0       ??_GMappableImageObject@@UAEPAXI@Z 00426ae0 f i GameEngine.obj
 0001:00025b20       ??_Ebad_cast@std@@UAEPAXI@Z 00426b20 f i GameEngine.obj
 0001:00025b20       ??_Gbad_cast@std@@UAEPAXI@Z 00426b20 f i GameEngine.obj
 0001:00025b60       ?_Calculate_growth@?$vector@PAVDisplayableObject@@V?$allocator@PAVDisplayableObject@@@std@@@std@@ABEII@Z 00426b60 f i GameEngine.obj
 0001:00025bd0       ?_Change_array@?$vector@PAVDisplayableObject@@V?$allocator@PAVDisplayableObject@@@std@@@std@@AAEXQAPAVDisplayableObject@@II@Z 00426bd0 f i GameEngine.obj
 0001:00025ca0       ?_Endwrite@?$basic_filebuf@DU?$char_traits@D@std@@@std@@IAE_NXZ 00426ca0 f i GameEngine.obj
 0001:00025e00       ?_Eos@?$basic_string@DU?$char_traits@D@std@@V?$allocator@D@2@@std@@AAEXI@Z 00426e00 f i GameEngine.obj
 0001:00025e50       ?_Get_first@?$_Compressed_pair@U?$default_delete@V_Facet_base@std@@@std@@PAV_Facet_base@2@$00@std@@QAEAAU?$default_delete@V_Facet_base@std@@@2@XZ 00426e50 f i GameEngine.obj
 0001:00025e70       ?_Getfacet@locale@std@@QBEPBVfacet@12@I@Z 00426e70 f i GameEngine.obj
 0001:00025f10       ?_Init@?$basic_filebuf@DU?$char_traits@D@std@@@std@@IAEXPAU_iobuf@@W4_Initfl@12@@Z 00426f10 f i GameEngine.obj
 0001:00026010       ?_Initcvt@?$basic_filebuf@DU?$char_traits@D@std@@@std@@IAEXABV?$codecvt@DDU_Mbstatet@@@2@@Z 00427010 f i GameEngine.obj
 0001:00026070       ?_Lock@?$basic_filebuf@DU?$char_traits@D@std@@@std@@UAEXXZ 00427070 f i GameEngine.obj
 0001:000260a0       ?_Orphan_range@?$vector@PAVDisplayableObject@@V?$allocator@PAVDisplayableObject@@@std@@@std@@ABEXPAPAVDisplayableObject@@0@Z 004270a0 f i GameEngine.obj
 0001:00026140       ?_Reset_back@?$basic_filebuf@DU?$char_traits@D@std@@@std@@AAEXXZ 00427140 f i GameEngine.obj
 0001:00026190       ?_Seek_to@?$_Vector_const_iterator@V?$_Vector_val@U?$_Simple_types@PAVDisplayableObject@@@std@@@std@@@std@@QAEXPBQAVDisplayableObject@@@Z 00427190 f i GameEngine.obj
 0001:000261c0       ?_Set_back@?$basic_filebuf@DU?$char_traits@D@std@@@std@@AAEXXZ 004271c0 f i GameEngine.obj
 0001:00026230       ?_Throw_bad_cast@std@@YAXXZ 00427230 f i GameEngine.obj
 0001:00026260       ?_Umove@?$vector@PAVDisplayableObject@@V?$allocator@PAVDisplayableObject@@@std@@@std@@AAEPAPAVDisplayableObject@@PAPAV3@00@Z 00427260 f i GameEngine.obj
 0001:000262a0       ?_Umove_if_noexcept1@?$vector@PAVDisplayableObject@@V?$allocator@PAVDisplayableObject@@@std@@@std@@AAEXPAPAVDisplayableObject@@00U?$integral_constant@_N$00@2@@Z 004272a0 f i GameEngine.obj
 0001:000262e0       ?_Umove_if_noexcept@?$vector@PAVDisplayableObject@@V?$allocator@PAVDisplayableObject@@@std@@@std@@AAEXPAPAVDisplayableObject@@00@Z 004272e0 f i GameEngine.obj
 0001:00026320       ?_Unlock@?$basic_filebuf@DU?$char_traits@D@std@@@std@@UAEXXZ 00427320 f i GameEngine.obj
 0001:00026350       ?appendObjectToArray@DisplayableObjectContainer@@QAEXPAVDisplayableObject@@@Z 00427350 f i GameEngine.obj
 0001:00026390       ?capacity@?$vector@PAVDisplayableObject@@V?$allocator@PAVDisplayableObject@@@std@@@std@@QBEIXZ 00427390 f i GameEngine.obj
 0001:000263c0       ?changeOffset@FilterPointsTranslation@@QAEXHH@Z 004273c0 f i GameEngine.obj
 0001:00026400       ?changePixelColour@CoordinateMapping@@UAE_NHHAAHPAVDrawingSurface@@@Z 00427400 f i GameEngine.obj
 0001:00026420       ?checkDoDrag@DragableBaseClassObject@@UAEXHH@Z 00427420 f i GameEngine.obj
 0001:000264a0       ?checkFinishDrag@DragableBaseClassObject@@UAEXHH@Z 004274a0 f i GameEngine.obj
 0001:000264e0       ?checkStartDrag@DragableBaseClassObject@@UAEXHH@Z 004274e0 f i GameEngine.obj
 0001:00026560       ?close@?$basic_filebuf@DU?$char_traits@D@std@@@std@@QAEPAV12@XZ 00427560 f i GameEngine.obj
 0001:000265e0       ?close@?$basic_fstream@DU?$char_traits@D@std@@@std@@QAEXXZ 004275e0 f i GameEngine.obj
 0001:00026620       ?compress@FilterPointsScaling@@QAEXXZ 00427620 f i GameEngine.obj
 0001:00026650       ?compressX@FilterPointsScaling@@QAEXXZ 00427650 f i GameEngine.obj
 0001:000266a0       ?compressY@FilterPointsScaling@@QAEXXZ 004276a0 f i GameEngine.obj
 0001:000266f0       ?convertClickedToVirtualPixelXPosition@BaseEngine@@QAEHH@Z 004276f0 f i GameEngine.obj
 0001:00026720       ?convertClickedToVirtualPixelYPosition@BaseEngine@@QAEHH@Z 00427720 f i GameEngine.obj
 0001:00026750       ?doDragRedraw@DragableBaseClassObject@@UAEXXZ 00427750 f i GameEngine.obj
 0001:00026770       ?erase@?$basic_string@DU?$char_traits@D@std@@V?$allocator@D@2@@std@@QAEAAV12@I@Z 00427770 f i GameEngine.obj
 0001:000267b0       ?erase@?$basic_string@DU?$char_traits@D@std@@V?$allocator@D@2@@std@@QAEAAV12@II@Z 004277b0 f i GameEngine.obj
 0001:00026850       ?erase@?$vector@PAVDisplayableObject@@V?$allocator@PAVDisplayableObject@@@std@@@std@@QAE?AV?$_Vector_iterator@V?$_Vector_val@U?$_Simple_types@PAVDisplayableObject@@@std@@@std@@@2@V?$_Vector_const_iterator@V?$_Vector_val@U?$_Simple_types@PAVDisplayableObject@@@std@@@std@@@2@@Z 00427850 f i GameEngine.obj
 0001:00026a00       ?filter@FilterPointsScaling@@UAE_NPAVDrawingSurface@@AAH1AAI@Z 00427a00 f i GameEngine.obj
 0001:00026a40       ?filter@FilterPointsTranslation@@UAE_NPAVDrawingSurface@@AAH1AAI@Z 00427a40 f i GameEngine.obj
 0001:00026ae0       ?filterConvertRealToVirtualXPosition@FilterPointsScaling@@UAEHH@Z 00427ae0 f i GameEngine.obj
 0001:00026b50       ?filterConvertRealToVirtualXPosition@FilterPointsTranslation@@UAEHH@Z 00427b50 f i GameEngine.obj
 0001:00026ba0       ?filterConvertRealToVirtualYPosition@FilterPointsScaling@@UAEHH@Z 00427ba0 f i GameEngine.obj
 0001:00026c10       ?filterConvertRealToVirtualYPosition@FilterPointsTranslation@@UAEHH@Z 00427c10 f i GameEngine.obj
 0001:00026c60       ?filterConvertVirtualToRealXPosition@FilterPointsScaling@@UAEHH@Z 00427c60 f i GameEngine.obj
 0001:00026d10       ?filterConvertVirtualToRealXPosition@FilterPointsTranslation@@UAEHH@Z 00427d10 f i GameEngine.obj
 0001:00026d60       ?filterConvertVirtualToRealYPosition@FilterPointsScaling@@UAEHH@Z 00427d60 f i GameEngine.obj
 0001:00026e10       ?filterConvertVirtualToRealYPosition@FilterPointsTranslation@@UAEHH@Z 00427e10 f i GameEngine.obj
 0001:00026e60       ?front@?$basic_string@DU?$char_traits@D@std@@V?$allocator@D@2@@std@@QAEAADXZ 00427e60 f i GameEngine.obj
 0001:00026f00       ?getContentCount@DisplayableObjectContainer@@QBEHXZ 00427f00 f i GameEngine.obj
 0001:00026f20       ?getDrawHeight@DisplayableObject@@QBEHXZ 00427f20 f i GameEngine.obj
 0001:00026f40       ?getDrawWidth@DisplayableObject@@QBEHXZ 00427f40 f i GameEngine.obj
 0001:00026f60       ?handleXthenY@FilterPointsScaling@@AAEXPAVDrawingSurface@@HHAAI@Z 00427f60 f i GameEngine.obj
 0001:00027010       ?handleY@FilterPointsScaling@@AAEXPAVDrawingSurface@@HHAAI@Z 00428010 f i GameEngine.obj
 0001:00027140       ?imbue@?$basic_filebuf@DU?$char_traits@D@std@@@std@@MAEXABVlocale@2@@Z 00428140 f i GameEngine.obj
 0001:00027170       ?not_eof@?$_Narrow_char_traits@DH@std@@SAHABH@Z 00428170 f i GameEngine.obj
 0001:000271d0       ?notifyObjectsAboutKeys@BaseEngine@@QAEX_N@Z 004281d0 f i GameEngine.obj
 0001:000271f0       ?notifyObjectsAboutMouse@BaseEngine@@QAEX_N@Z 004281f0 f i GameEngine.obj
 0001:00027210       ?open@?$basic_filebuf@DU?$char_traits@D@std@@@std@@QAEPAV12@PBDHH@Z 00428210 f i GameEngine.obj
 0001:00027300       ?open@?$basic_fstream@DU?$char_traits@D@std@@@std@@QAEXPBDHH@Z 00428300 f i GameEngine.obj
 0001:00027370       ?overflow@?$basic_filebuf@DU?$char_traits@D@std@@@std@@MAEHH@Z 00428370 f i GameEngine.obj
 0001:000275d0       ?pbackfail@?$basic_filebuf@DU?$char_traits@D@std@@@std@@MAEHH@Z 004285d0 f i GameEngine.obj
 0001:00027780       ?push_back@?$vector@PAVDisplayableObject@@V?$allocator@PAVDisplayableObject@@@std@@@std@@QAEXABQAVDisplayableObject@@@Z 00428780 f i GameEngine.obj
 0001:000277a0       ?release@?$unique_ptr@V_Facet_base@std@@U?$default_delete@V_Facet_base@std@@@2@@std@@QAEPAV_Facet_base@2@XZ 004287a0 f i GameEngine.obj
 0001:000277d0       ?removeDisplayableObject@DisplayableObjectContainer@@QAE_NPAVDisplayableObject@@@Z 004287d0 f i GameEngine.obj
 0001:00027940       ?seekoff@?$basic_filebuf@DU?$char_traits@D@std@@@std@@MAE?AV?$fpos@U_Mbstatet@@@2@_JHH@Z 00428940 f i GameEngine.obj
 0001:00027a50       ?seekpos@?$basic_filebuf@DU?$char_traits@D@std@@@std@@MAE?AV?$fpos@U_Mbstatet@@@2@V32@H@Z 00428a50 f i GameEngine.obj
 0001:00027b20       ?setMapValue@TileManager@@QAEHHHH@Z 00428b20 f i GameEngine.obj
 0001:00027b60       ?setStretch@FilterPointsScaling@@QAEXHH@Z 00428b60 f i GameEngine.obj
 0001:00027c50       ?setbuf@?$basic_filebuf@DU?$char_traits@D@std@@@std@@MAEPAV?$basic_streambuf@DU?$char_traits@D@std@@@2@PAD_J@Z 00428c50 f i GameEngine.obj
 0001:00027cf0       ?state@?$fpos@U_Mbstatet@@@std@@QBE?AU_Mbstatet@@XZ 00428cf0 f i GameEngine.obj
 0001:00027d20       ?stretch@FilterPointsScaling@@QAEXXZ 00428d20 f i GameEngine.obj
 0001:00027d50       ?stretchX@FilterPointsScaling@@QAEXXZ 00428d50 f i GameEngine.obj
 0001:00027da0       ?stretchY@FilterPointsScaling@@QAEXXZ 00428da0 f i GameEngine.obj
 0001:00027df0       ?sync@?$basic_filebuf@DU?$char_traits@D@std@@@std@@MAEHXZ 00428df0 f i GameEngine.obj
 0001:00027e70       ?to_char_type@?$_Narrow_char_traits@DH@std@@SADABH@Z 00428e70 f i GameEngine.obj
 0001:00027e80       ?to_int_type@?$_Narrow_char_traits@DH@std@@SAHABD@Z 00428e80 f i GameEngine.obj
 0001:00027e90       ?uflow@?$basic_filebuf@DU?$char_traits@D@std@@@std@@MAEHXZ 00428e90 f i GameEngine.obj
 0001:000281b0       ?underflow@?$basic_filebuf@DU?$char_traits@D@std@@@std@@MAEHXZ 004291b0 f i GameEngine.obj
 0001:00028270       ?virtDraw@DragableImageObject@@UAEXXZ 00429270 f i GameEngine.obj
 0001:000282f0       ?virtDraw@MappableImageObject@@UAEXXZ 004292f0 f i GameEngine.obj
 0001:00028380       ?virtMouseDown@DragableImageObject@@UAEXHHH@Z 00429380 f i GameEngine.obj
 0001:000283b0       ?virtMouseMoved@DragableImageObject@@UAEXHH@Z 004293b0 f i GameEngine.obj
 0001:000283e0       ?virtMouseUp@DragableImageObject@@UAEXHHH@Z 004293e0 f i GameEngine.obj
 0001:00028410       ?xsgetn@?$basic_filebuf@DU?$char_traits@D@std@@@std@@MAE_JPAD_J@Z 00429410 f i GameEngine.obj
 0001:000285d0       ?xsputn@?$basic_filebuf@DU?$char_traits@D@std@@@std@@MAE_JPBD_J@Z 004295d0 f i GameEngine.obj
 0001:00028730       ??0GameMainObject@@QAE@PAVGameEngine@@PAVAdvancedTileManager@@HHHH@Z 00429730 f   GameMainObject.obj
 0001:000289c0       ??1GameMainObject@@UAE@XZ  004299c0 f   GameMainObject.obj
 0001:00028a50       ?virtDraw@GameMainObject@@UAEXXZ 00429a50 f   GameMainObject.obj
 0001:00028dc0       ?virtDoUpdate@GameMainObject@@UAEXH@Z 00429dc0 f   GameMainObject.obj
 0001:00029320       ?virtKeyDown@GameMainObject@@UAEXH@Z 0042a320 f   GameMainObject.obj
 0001:00029510       ?checkObstacle@GameMainObject@@QAE_NH@Z 0042a510 f   GameMainObject.obj
 0001:00029540       ?getMapX@GameMainObject@@QAEHXZ 0042a540 f   GameMainObject.obj
 0001:00029560       ?getMapY@GameMainObject@@QAEHXZ 0042a560 f   GameMainObject.obj
 0001:00029580       ?getDir@GameMainObject@@QAEHXZ 0042a580 f   GameMainObject.obj
 0001:000295a0       ?setIsHit@GameMainObject@@QAEX_N@Z 0042a5a0 f   GameMainObject.obj
 0001:000295c0       ?getHealth@GameMainObject@@QAEHXZ 0042a5c0 f   GameMainObject.obj
 0001:00029980       ??0EndState@@QAE@XZ        0042a980 f i GameMainObject.obj
 0001:000299b0       ??_EGameMainObject@@UAEPAXI@Z 0042a9b0 f i GameMainObject.obj
 0001:000299b0       ??_GGameMainObject@@UAEPAXI@Z 0042a9b0 f i GameMainObject.obj
 0001:000299f0       ?getXDiffForDirection@GameMainObject@@QAEHH@Z 0042a9f0 f i GameMainObject.obj
 0001:00029a60       ?getYDiffForDirection@GameMainObject@@QAEHH@Z 0042aa60 f i GameMainObject.obj
 0001:00029ad0       ?setAndRedrawMapValueAt@TileManager@@QAEXHHHPAVBaseEngine@@PAVDrawingSurface@@@Z 0042aad0 f i GameMainObject.obj
 0001:00029b70       ??0AdvancedTileManager@@QAE@XZ 0042ab70 f   AdvancedTileManager.obj
 0001:00029f00       ??1AdvancedTileManager@@UAE@XZ 0042af00 f   AdvancedTileManager.obj
 0001:0002a000       ?virtDrawTileAt@AdvancedTileManager@@UBEXPAVBaseEngine@@PAVDrawingSurface@@HHHH@Z 0042b000 f   AdvancedTileManager.obj
 0001:0002a610       ?getDoor1X@AdvancedTileManager@@QAEHXZ 0042b610 f   AdvancedTileManager.obj
 0001:0002a630       ?getDoor1Y@AdvancedTileManager@@QAEHXZ 0042b630 f   AdvancedTileManager.obj
 0001:0002a650       ?getDoor2X@AdvancedTileManager@@QAEHXZ 0042b650 f   AdvancedTileManager.obj
 0001:0002a670       ?getDoor2Y@AdvancedTileManager@@QAEHXZ 0042b670 f   AdvancedTileManager.obj
 0001:0002a950       ??0TileManager@@QAE@HHHH@Z 0042b950 f i AdvancedTileManager.obj
 0001:0002a9e0       ??1TileManager@@UAE@XZ     0042b9e0 f i AdvancedTileManager.obj
 0001:0002aa30       ??_GAdvancedTileManager@@UAEPAXI@Z 0042ba30 f i AdvancedTileManager.obj
 0001:0002aa30       ??_EAdvancedTileManager@@UAEPAXI@Z 0042ba30 f i AdvancedTileManager.obj
 0001:0002aa70       ??_ETileManager@@UAEPAXI@Z 0042ba70 f i AdvancedTileManager.obj
 0001:0002aa70       ??_GTileManager@@UAEPAXI@Z 0042ba70 f i AdvancedTileManager.obj
 0001:0002aab0       ?setMapSize@TileManager@@QAEXHH@Z 0042bab0 f i AdvancedTileManager.obj
 0001:0002ab60       ?virtSetUpEngine@SelectState@@UAEXAAVGameEngine@@@Z 0042bb60 f   SelectState.obj
 0001:0002abe0       ?virtDrawLabelText@SelectState@@UAEXAAVGameEngine@@@Z 0042bbe0 f   SelectState.obj
 0001:0002ac80       ?applyState@SelectState@@UAEXAAVGameEngine@@@Z 0042bc80 f   SelectState.obj
 0001:0002ac90       ?virtSetUpKeyboard@SelectState@@UAEXAAVGameEngine@@H@Z 0042bc90 f   SelectState.obj
 0001:0002aca0       ?virtSetUpForeground@SelectState@@UAEXAAVGameEngine@@@Z 0042bca0 f   SelectState.obj
 0001:0002ad70       ?virtSetUpMouseDown@SelectState@@UAEXAAVGameEngine@@HHH@Z 0042bd70 f   SelectState.obj
 0001:0002b180       ?mapCoordinates@CroppedCoordinateMapping@@UAE_NAAN0ABVSimpleImage@@@Z 0042c180 f i SimpleImage.obj
 0001:0002b220       ??0SimpleImage@@QAE@XZ     0042c220 f   SimpleImage.obj
 0001:0002b250       ??0SimpleImage@@QAE@V?$shared_ptr@VRawImageData@@@std@@@Z 0042c250 f   SimpleImage.obj
 0001:0002b290       ?exists@SimpleImage@@QBE_NXZ 0042c290 f   SimpleImage.obj
 0001:0002b2b0       ?renderImage@SimpleImage@@QBEXPAVDrawingSurface@@HHHHHH@Z 0042c2b0 f   SimpleImage.obj
 0001:0002b3c0       ?renderImageWithMask@SimpleImage@@QBEXPAVDrawingSurface@@HHHHHHH@Z 0042c3c0 f   SimpleImage.obj
 0001:0002b500       ?renderImageWithMaskAndTransparency@SimpleImage@@QBEXPAVDrawingSurface@@HHHHHHHH@Z 0042c500 f   SimpleImage.obj
 0001:0002b6d0       ?adjustXYWidthHeight@SimpleImage@@SA_NPAVDrawingSurface@@AAH11111@Z 0042c6d0 f   SimpleImage.obj
 0001:0002b8d0       ?renderImageBlit@SimpleImage@@QAEXPAVBaseEngine@@PAVDrawingSurface@@HHHHHHHH@Z 0042c8d0 f   SimpleImage.obj
 0001:0002bb80       ?renderImageApplyingMapping@SimpleImage@@QBEXPAVBaseEngine@@PAVDrawingSurface@@HHHHPAVCoordinateMapping@@@Z 0042cb80 f   SimpleImage.obj
 0001:0002c190       ??BDrawingSurface@@QAEPAUSDL_Surface@@XZ 0042d190 f i SimpleImage.obj
 0001:0002c1b0       ?getRawPixelColour@RawImageData@@QBEHHH@Z 0042d1b0 f i SimpleImage.obj
 0001:0002c200       ?getSurface@RawImageData@@QAEPAUSDL_Surface@@XZ 0042d200 f i SimpleImage.obj
 0001:0002c220       ?getTheData@SimpleImage@@QBEABV?$shared_ptr@VRawImageData@@@std@@XZ 0042d220 f i SimpleImage.obj
 0001:0002c240       ?rawGetPixel@DrawingSurface@@QBEIHH@Z 0042d240 f i SimpleImage.obj
 0001:0002c2b0       ??0RawImageData@@QAE@ABV?$shared_ptr@VRawImageData@@@std@@H@Z 0042d2b0 f   RawImage.obj
 0001:0002c3f0       ??0RawImageData@@QAE@HHABV?$shared_ptr@VRawImageData@@@std@@@Z 0042d3f0 f   RawImage.obj
 0001:0002c600       ?virtSetUpEngine@StartState@@UAEXAAVGameEngine@@@Z 0042d600 f   StartState.obj
 0001:0002c800       ?virtDrawLabelText@StartState@@UAEXAAVGameEngine@@@Z 0042d800 f   StartState.obj
 0001:0002c8a0       ?applyState@StartState@@UAEXAAVGameEngine@@@Z 0042d8a0 f   StartState.obj
 0001:0002c8c0       ?virtSetUpKeyboard@StartState@@UAEXAAVGameEngine@@H@Z 0042d8c0 f   StartState.obj
 0001:0002c8d0       ?virtSetUpForeground@StartState@@UAEXAAVGameEngine@@@Z 0042d8d0 f   StartState.obj
 0001:0002c9a0       ?virtSetUpMouseDown@StartState@@UAEXAAVGameEngine@@HHH@Z 0042d9a0 f   StartState.obj
 0001:0002cda0       ??0HelpState@@QAE@XZ       0042dda0 f i StartState.obj
 0001:0002cdd0       ??0SelectState@@QAE@XZ     0042ddd0 f i StartState.obj
 0001:0002ce00       ?setTopLeftPositionOnScreen@TileManager@@QAEXHH@Z 0042de00 f i StartState.obj
 0001:0002ce30       ?drawAllTiles@TileManager@@QBEXPAVBaseEngine@@PAVDrawingSurface@@@Z 0042de30 f   TileManager.obj
 0001:0002ced0       ?drawSomeTiles@TileManager@@QBEXPAVBaseEngine@@PAVDrawingSurface@@HHHH@Z 0042ded0 f   TileManager.obj
 0001:0002cf70       ?virtDrawTileAt@TileManager@@UBEXPAVBaseEngine@@PAVDrawingSurface@@HHHH@Z 0042df70 f   TileManager.obj
 0001:0002d052       _SDL_CreateRGBSurface      0042e052 f   SDL2:SDL2.dll
 0001:0002d058       _SDL_FreeSurface           0042e058 f   SDL2:SDL2.dll
 0001:0002d05e       _SDL_UpperBlit             0042e05e f   SDL2:SDL2.dll
 0001:0002d064       _SDL_LockSurface           0042e064 f   SDL2:SDL2.dll
 0001:0002d06a       _SDL_UnlockSurface         0042e06a f   SDL2:SDL2.dll
 0001:0002d070       _SDL_FillRect              0042e070 f   SDL2:SDL2.dll
 0001:0002d076       _SDL_GetError              0042e076 f   SDL2:SDL2.dll
 0001:0002d07c       _SDL_CreateWindow          0042e07c f   SDL2:SDL2.dll
 0001:0002d082       _SDL_PollEvent             0042e082 f   SDL2:SDL2.dll
 0001:0002d088       _SDL_WaitEvent             0042e088 f   SDL2:SDL2.dll
 0001:0002d08e       _SDL_CreateRenderer        0042e08e f   SDL2:SDL2.dll
 0001:0002d094       _SDL_CreateTexture         0042e094 f   SDL2:SDL2.dll
 0001:0002d09a       _SDL_UpdateTexture         0042e09a f   SDL2:SDL2.dll
 0001:0002d0a0       _SDL_RenderCopy            0042e0a0 f   SDL2:SDL2.dll
 0001:0002d0a6       _SDL_RenderPresent         0042e0a6 f   SDL2:SDL2.dll
 0001:0002d0ac       _SDL_GetTicks              0042e0ac f   SDL2:SDL2.dll
 0001:0002d0b2       _SDL_Init                  0042e0b2 f   SDL2:SDL2.dll
 0001:0002d0b8       _SDL_Quit                  0042e0b8 f   SDL2:SDL2.dll
 0001:0002d0be       _SDL_PauseAudioDevice      0042e0be f   SDL2:SDL2.dll
 0001:0002d0c4       _SDL_RWFromFile            0042e0c4 f   SDL2:SDL2.dll
 0001:0002d0ca       _SDL_OpenAudioDevice       0042e0ca f   SDL2:SDL2.dll
 0001:0002d0d0       _SDL_LoadWAV_RW            0042e0d0 f   SDL2:SDL2.dll
 0001:0002d0d6       _SDL_FreeWAV               0042e0d6 f   SDL2:SDL2.dll
 0001:0002d0dc       _SDL_QueueAudio            0042e0dc f   SDL2:SDL2.dll
 0001:0002d0e2       _SDL_ClearQueuedAudio      0042e0e2 f   SDL2:SDL2.dll
 0001:0002d0e8       _SDL_CloseAudioDevice      0042e0e8 f   SDL2:SDL2.dll
 0001:0002d0ee       _SDL_ShowSimpleMessageBox  0042e0ee f   SDL2:SDL2.dll
 0001:0002d0f4       _SDL_SetClipRect           0042e0f4 f   SDL2:SDL2.dll
 0001:0002d0fa       _SDL_UpperBlitScaled       0042e0fa f   SDL2:SDL2.dll
 0001:0002d100       _IMG_Load                  0042e100 f   SDL2_image:SDL2_image.dll
 0001:0002d106       _TTF_RenderText_Solid      0042e106 f   SDL2_ttf:SDL2_ttf.dll
 0001:0002d10c       _TTF_Init                  0042e10c f   SDL2_ttf:SDL2_ttf.dll
 0001:0002d112       _TTF_Quit                  0042e112 f   SDL2_ttf:SDL2_ttf.dll
 0001:0002d118       _TTF_OpenFont              0042e118 f   SDL2_ttf:SDL2_ttf.dll
 0001:0002d11e       _TTF_CloseFont             0042e11e f   SDL2_ttf:SDL2_ttf.dll
 0001:0002d124       ??0_Lockit@std@@QAE@H@Z    0042e124 f   msvcprtd:MSVCP140D.dll
 0001:0002d12a       ??1_Lockit@std@@QAE@XZ     0042e12a f   msvcprtd:MSVCP140D.dll
 0001:0002d130       ?_Xlength_error@std@@YAXPBD@Z 0042e130 f   msvcprtd:MSVCP140D.dll
 0001:0002d136       ?uncaught_exception@std@@YA_NXZ 0042e136 f   msvcprtd:MSVCP140D.dll
 0001:0002d13c       ?good@ios_base@std@@QBE_NXZ 0042e13c f   msvcprtd:MSVCP140D.dll
 0001:0002d142       ?flags@ios_base@std@@QBEHXZ 0042e142 f   msvcprtd:MSVCP140D.dll
 0001:0002d148       ?width@ios_base@std@@QBE_JXZ 0042e148 f   msvcprtd:MSVCP140D.dll
 0001:0002d14e       ?width@ios_base@std@@QAE_J_J@Z 0042e14e f   msvcprtd:MSVCP140D.dll
 0001:0002d154       ?sputc@?$basic_streambuf@DU?$char_traits@D@std@@@std@@QAEHD@Z 0042e154 f   msvcprtd:MSVCP140D.dll
 0001:0002d15a       ?sputn@?$basic_streambuf@DU?$char_traits@D@std@@@std@@QAE_JPBD_J@Z 0042e15a f   msvcprtd:MSVCP140D.dll
 0001:0002d160       ?setstate@?$basic_ios@DU?$char_traits@D@std@@@std@@QAEXH_N@Z 0042e160 f   msvcprtd:MSVCP140D.dll
 0001:0002d166       ?tie@?$basic_ios@DU?$char_traits@D@std@@@std@@QBEPAV?$basic_ostream@DU?$char_traits@D@std@@@2@XZ 0042e166 f   msvcprtd:MSVCP140D.dll
 0001:0002d16c       ?rdbuf@?$basic_ios@DU?$char_traits@D@std@@@std@@QBEPAV?$basic_streambuf@DU?$char_traits@D@std@@@2@XZ 0042e16c f   msvcprtd:MSVCP140D.dll
 0001:0002d172       ?fill@?$basic_ios@DU?$char_traits@D@std@@@std@@QBEDXZ 0042e172 f   msvcprtd:MSVCP140D.dll
 0001:0002d178       ?widen@?$basic_ios@DU?$char_traits@D@std@@@std@@QBEDD@Z 0042e178 f   msvcprtd:MSVCP140D.dll
 0001:0002d17e       ?_Osfx@?$basic_ostream@DU?$char_traits@D@std@@@std@@QAEXXZ 0042e17e f   msvcprtd:MSVCP140D.dll
 0001:0002d184       ??6?$basic_ostream@DU?$char_traits@D@std@@@std@@QAEAAV01@P6AAAV01@AAV01@@Z@Z 0042e184 f   msvcprtd:MSVCP140D.dll
 0001:0002d18a       ?put@?$basic_ostream@DU?$char_traits@D@std@@@std@@QAEAAV12@D@Z 0042e18a f   msvcprtd:MSVCP140D.dll
 0001:0002d190       ?flush@?$basic_ostream@DU?$char_traits@D@std@@@std@@QAEAAV12@XZ 0042e190 f   msvcprtd:MSVCP140D.dll
 0001:0002d196       ?_Xout_of_range@std@@YAXPBD@Z 0042e196 f   msvcprtd:MSVCP140D.dll
 0001:0002d1a0       ??0_Fac_node@std@@QAE@PAU01@PAV_Facet_base@1@@Z 0042e1a0 f i msvcprtd:locale0_implib.obj
 0001:0002d1d0       ??1_Fac_node@std@@QAE@XZ   0042e1d0 f i msvcprtd:locale0_implib.obj
 0001:0002d250       ??1_Fac_tidy_reg_t@std@@QAE@XZ 0042e250 f i msvcprtd:locale0_implib.obj
 0001:0002d2b0       ??2_Fac_node@std@@SAPAXI@Z 0042e2b0 f i msvcprtd:locale0_implib.obj
 0001:0002d310       ??3_Fac_node@std@@SAXPAX@Z 0042e310 f i msvcprtd:locale0_implib.obj
 0001:0002d330       ??_G_Fac_node@std@@QAEPAXI@Z 0042e330 f i msvcprtd:locale0_implib.obj
 0001:0002d390       ?_Facet_Register@std@@YAXPAV_Facet_base@1@@Z 0042e390 f   msvcprtd:locale0_implib.obj
 0001:0002d440       ?__empty_global_delete@@YAXPAXIW4align_val_t@std@@@Z 0042e440 f i msvcprtd:locale0_implib.obj
 0001:0002d450       ?__empty_global_delete@@YAXPAXW4align_val_t@std@@@Z 0042e450 f i msvcprtd:locale0_implib.obj
 0001:0002d455       ??Bid@locale@std@@QAEIXZ   0042e455 f   msvcprtd:MSVCP140D.dll
 0001:0002d45b       ?_Getgloballocale@locale@std@@CAPAV_Locimp@12@XZ 0042e45b f   msvcprtd:MSVCP140D.dll
 0001:0002d461       ?always_noconv@codecvt_base@std@@QBE_NXZ 0042e461 f   msvcprtd:MSVCP140D.dll
 0001:0002d467       ?is@?$ctype@D@std@@QBE_NFD@Z 0042e467 f   msvcprtd:MSVCP140D.dll
 0001:0002d46d       ?_Getcat@?$ctype@D@std@@SAIPAPBVfacet@locale@2@PBV42@@Z 0042e46d f   msvcprtd:MSVCP140D.dll
 0001:0002d473       ?in@?$codecvt@DDU_Mbstatet@@@std@@QBEHAAU_Mbstatet@@PBD1AAPBDPAD3AAPAD@Z 0042e473 f   msvcprtd:MSVCP140D.dll
 0001:0002d479       ?out@?$codecvt@DDU_Mbstatet@@@std@@QBEHAAU_Mbstatet@@PBD1AAPBDPAD3AAPAD@Z 0042e479 f   msvcprtd:MSVCP140D.dll
 0001:0002d47f       ?unshift@?$codecvt@DDU_Mbstatet@@@std@@QBEHAAU_Mbstatet@@PAD1AAPAD@Z 0042e47f f   msvcprtd:MSVCP140D.dll
 0001:0002d485       ?_Getcat@?$codecvt@DDU_Mbstatet@@@std@@SAIPAPBVfacet@locale@2@PBV42@@Z 0042e485 f   msvcprtd:MSVCP140D.dll
 0001:0002d48b       ??Bios_base@std@@QBE_NXZ   0042e48b f   msvcprtd:MSVCP140D.dll
 0001:0002d491       ??7ios_base@std@@QBE_NXZ   0042e491 f   msvcprtd:MSVCP140D.dll
 0001:0002d497       ?getloc@ios_base@std@@QBE?AVlocale@2@XZ 0042e497 f   msvcprtd:MSVCP140D.dll
 0001:0002d49d       ??0?$basic_streambuf@DU?$char_traits@D@std@@@std@@IAE@XZ 0042e49d f   msvcprtd:MSVCP140D.dll
 0001:0002d4a3       ??1?$basic_streambuf@DU?$char_traits@D@std@@@std@@UAE@XZ 0042e4a3 f   msvcprtd:MSVCP140D.dll
 0001:0002d4a9       ?getloc@?$basic_streambuf@DU?$char_traits@D@std@@@std@@QBE?AVlocale@2@XZ 0042e4a9 f   msvcprtd:MSVCP140D.dll
 0001:0002d4af       ?sbumpc@?$basic_streambuf@DU?$char_traits@D@std@@@std@@QAEHXZ 0042e4af f   msvcprtd:MSVCP140D.dll
 0001:0002d4b5       ?sgetc@?$basic_streambuf@DU?$char_traits@D@std@@@std@@QAEHXZ 0042e4b5 f   msvcprtd:MSVCP140D.dll
 0001:0002d4bb       ?snextc@?$basic_streambuf@DU?$char_traits@D@std@@@std@@QAEHXZ 0042e4bb f   msvcprtd:MSVCP140D.dll
 0001:0002d4c1       ?eback@?$basic_streambuf@DU?$char_traits@D@std@@@std@@IBEPADXZ 0042e4c1 f   msvcprtd:MSVCP140D.dll
 0001:0002d4c7       ?gptr@?$basic_streambuf@DU?$char_traits@D@std@@@std@@IBEPADXZ 0042e4c7 f   msvcprtd:MSVCP140D.dll
 0001:0002d4cd       ?pptr@?$basic_streambuf@DU?$char_traits@D@std@@@std@@IBEPADXZ 0042e4cd f   msvcprtd:MSVCP140D.dll
 0001:0002d4d3       ?egptr@?$basic_streambuf@DU?$char_traits@D@std@@@std@@IBEPADXZ 0042e4d3 f   msvcprtd:MSVCP140D.dll
 0001:0002d4d9       ?gbump@?$basic_streambuf@DU?$char_traits@D@std@@@std@@IAEXH@Z 0042e4d9 f   msvcprtd:MSVCP140D.dll
 0001:0002d4df       ?setg@?$basic_streambuf@DU?$char_traits@D@std@@@std@@IAEXPAD00@Z 0042e4df f   msvcprtd:MSVCP140D.dll
 0001:0002d4e5       ?epptr@?$basic_streambuf@DU?$char_traits@D@std@@@std@@IBEPADXZ 0042e4e5 f   msvcprtd:MSVCP140D.dll
 0001:0002d4eb       ?_Gndec@?$basic_streambuf@DU?$char_traits@D@std@@@std@@IAEPADXZ 0042e4eb f   msvcprtd:MSVCP140D.dll
 0001:0002d4f1       ?_Gninc@?$basic_streambuf@DU?$char_traits@D@std@@@std@@IAEPADXZ 0042e4f1 f   msvcprtd:MSVCP140D.dll
 0001:0002d4f7       ?_Gnavail@?$basic_streambuf@DU?$char_traits@D@std@@@std@@IBE_JXZ 0042e4f7 f   msvcprtd:MSVCP140D.dll
 0001:0002d4fd       ?pbump@?$basic_streambuf@DU?$char_traits@D@std@@@std@@IAEXH@Z 0042e4fd f   msvcprtd:MSVCP140D.dll
 0001:0002d503       ?_Pninc@?$basic_streambuf@DU?$char_traits@D@std@@@std@@IAEPADXZ 0042e503 f   msvcprtd:MSVCP140D.dll
 0001:0002d509       ?_Pnavail@?$basic_streambuf@DU?$char_traits@D@std@@@std@@IBE_JXZ 0042e509 f   msvcprtd:MSVCP140D.dll
 0001:0002d50f       ?_Init@?$basic_streambuf@DU?$char_traits@D@std@@@std@@IAEXXZ 0042e50f f   msvcprtd:MSVCP140D.dll
 0001:0002d515       ?_Init@?$basic_streambuf@DU?$char_traits@D@std@@@std@@IAEXPAPAD0PAH001@Z 0042e515 f   msvcprtd:MSVCP140D.dll
 0001:0002d51b       ?xsgetn@?$basic_streambuf@DU?$char_traits@D@std@@@std@@MAE_JPAD_J@Z 0042e51b f   msvcprtd:MSVCP140D.dll
 0001:0002d521       ?xsputn@?$basic_streambuf@DU?$char_traits@D@std@@@std@@MAE_JPBD_J@Z 0042e521 f   msvcprtd:MSVCP140D.dll
 0001:0002d527       ??1?$basic_ios@DU?$char_traits@D@std@@@std@@UAE@XZ 0042e527 f   msvcprtd:MSVCP140D.dll
 0001:0002d52d       ?clear@?$basic_ios@DU?$char_traits@D@std@@@std@@QAEXH_N@Z 0042e52d f   msvcprtd:MSVCP140D.dll
 0001:0002d533       ??0?$basic_ios@DU?$char_traits@D@std@@@std@@IAE@XZ 0042e533 f   msvcprtd:MSVCP140D.dll
 0001:0002d539       ??6?$basic_ostream@DU?$char_traits@D@std@@@std@@QAEAAV01@H@Z 0042e539 f   msvcprtd:MSVCP140D.dll
 0001:0002d53f       ?_Ipfx@?$basic_istream@DU?$char_traits@D@std@@@std@@QAE_N_N@Z 0042e53f f   msvcprtd:MSVCP140D.dll
 0001:0002d545       ??5?$basic_istream@DU?$char_traits@D@std@@@std@@QAEAAV01@AAH@Z 0042e545 f   msvcprtd:MSVCP140D.dll
 0001:0002d54b       ??0?$basic_iostream@DU?$char_traits@D@std@@@std@@QAE@PAV?$basic_streambuf@DU?$char_traits@D@std@@@1@@Z 0042e54b f   msvcprtd:MSVCP140D.dll
 0001:0002d551       ??1?$basic_iostream@DU?$char_traits@D@std@@@std@@UAE@XZ 0042e551 f   msvcprtd:MSVCP140D.dll
 0001:0002d557       ?_Fiopen@std@@YAPAU_iobuf@@PBDHH@Z 0042e557 f   msvcprtd:MSVCP140D.dll
 0001:0002d55d       ?showmanyc@?$basic_streambuf@DU?$char_traits@D@std@@@std@@MAE_JXZ 0042e55d f   msvcprtd:MSVCP140D.dll
 0001:0002d563       ?_Xbad_alloc@std@@YAXXZ    0042e563 f   msvcprtd:MSVCP140D.dll
 0001:0002d940       ?configure_argv@__scrt_narrow_argv_policy@@SAHXZ 0042e940 f i MSVCRTD:exe_main.obj
 0001:0002d960       ?initialize_environment@__scrt_narrow_environment_policy@@SAHXZ 0042e960 f i MSVCRTD:exe_main.obj
 0001:0002d9c0       ?set_app_type@__scrt_main_policy@@SAXXZ 0042e9c0 f i MSVCRTD:exe_main.obj
 0001:0002d9e0       ?set_commode@__scrt_file_policy@@SAXXZ 0042e9e0 f i MSVCRTD:exe_main.obj
 0001:0002da00       ?set_fmode@__scrt_file_policy@@SAXXZ 0042ea00 f i MSVCRTD:exe_main.obj
 0001:0002da20       _mainCRTStartup            0042ea20 f   MSVCRTD:exe_main.obj
 0001:0002da30       ??3@YAXPAXI@Z              0042ea30 f   MSVCRTD:delete_scalar_size.obj
 0001:0002da50       @__security_check_cookie@4 0042ea50 f   MSVCRTD:secchk.obj
 0001:0002da70       ??1type_info@@UAE@XZ       0042ea70 f   MSVCRTD:std_type_info_static.obj
 0001:0002da90       ??_Etype_info@@UAEPAXI@Z   0042ea90 f i MSVCRTD:std_type_info_static.obj
 0001:0002da90       ??_Gtype_info@@UAEPAXI@Z   0042ea90 f i MSVCRTD:std_type_info_static.obj
 0001:0002dad0       ??2@YAPAXI@Z               0042ead0 f   MSVCRTD:new_scalar.obj
 0001:0002db30       ??_U@YAPAXI@Z              0042eb30 f   MSVCRTD:new_array.obj
 0001:0002db50       ??_V@YAXPAXI@Z             0042eb50 f   MSVCRTD:delete_array_size.obj
 0001:0002db70       ??_V@YAXPAX@Z              0042eb70 f   MSVCRTD:delete_array.obj
 0001:0002dcd0       _NtCurrentTeb              0042ecd0 f i MSVCRTD:utility.obj
 0001:0002dce0       ___scrt_acquire_startup_lock 0042ece0 f   MSVCRTD:utility.obj
 0001:0002dd40       ___scrt_dllmain_after_initialize_c 0042ed40 f   MSVCRTD:utility.obj
 0001:0002dd80       ___scrt_dllmain_before_initialize_c 0042ed80 f   MSVCRTD:utility.obj
 0001:0002ddb0       ___scrt_dllmain_crt_thread_attach 0042edb0 f   MSVCRTD:utility.obj
 0001:0002ddf0       ___scrt_dllmain_crt_thread_detach 0042edf0 f   MSVCRTD:utility.obj
 0001:0002de10       ___scrt_dllmain_exception_filter 0042ee10 f   MSVCRTD:utility.obj
 0001:0002de70       ___scrt_dllmain_uninitialize_c 0042ee70 f   MSVCRTD:utility.obj
 0001:0002deb0       ___scrt_dllmain_uninitialize_critical 0042eeb0 f   MSVCRTD:utility.obj
 0001:0002ded0       ___scrt_initialize_crt     0042eed0 f   MSVCRTD:utility.obj
 0001:0002df30       ___scrt_initialize_onexit_tables 0042ef30 f   MSVCRTD:utility.obj
 0001:0002e040       ___scrt_is_nonwritable_in_current_image 0042f040 f   MSVCRTD:utility.obj
 0001:0002e1c0       ___scrt_release_startup_lock 0042f1c0 f   MSVCRTD:utility.obj
 0001:0002e1f0       ___scrt_uninitialize_crt   0042f1f0 f   MSVCRTD:utility.obj
 0001:0002e240       __onexit                   0042f240 f   MSVCRTD:utility.obj
 0001:0002e2c0       _at_quick_exit             0042f2c0 f   MSVCRTD:utility.obj
 0001:0002e310       _atexit                    0042f310 f   MSVCRTD:utility.obj
 0001:0002e350       @_guard_check_icall_nop@4  0042f350 f i MSVCRTD:guard_support.obj
 0001:0002e360       _ReadNoFence               0042f360 f i MSVCRTD:guard_support.obj
 0001:0002e380       _ReadPointerNoFence        0042f380 f i MSVCRTD:guard_support.obj
 0001:0002e3a0       __guard_icall_checks_enforced 0042f3a0 f i MSVCRTD:guard_support.obj
 0001:0002e470       ___security_init_cookie    0042f470 f   MSVCRTD:gs_support.obj
 0001:0002e510       __matherr                  0042f510 f   MSVCRTD:matherr.obj
 0001:0002e520       __get_startup_argv_mode    0042f520 f   MSVCRTD:argv_mode.obj
 0001:0002e530       __get_startup_commit_mode  0042f530 f   MSVCRTD:commit_mode.obj
 0001:0002e540       __get_startup_file_mode    0042f540 f   MSVCRTD:file_mode.obj
 0001:0002e550       __get_startup_new_mode     0042f550 f   MSVCRTD:new_mode.obj
 0001:0002e560       __get_startup_thread_locale_mode 0042f560 f   MSVCRTD:thread_locale.obj
 0001:0002e570       ?__scrt_initialize_type_info@@YAXXZ 0042f570 f   MSVCRTD:tncleanup.obj
 0001:0002e590       ?__scrt_uninitialize_type_info@@YAXXZ 0042f590 f   MSVCRTD:tncleanup.obj
 0001:0002e5b0       __should_initialize_environment 0042f5b0 f   MSVCRTD:env_mode.obj
 0001:0002e5c0       __initialize_default_precision 0042f5c0 f   MSVCRTD:default_precision.obj
 0001:0002e5f0       __initialize_invalid_parameter_handler 0042f5f0 f   MSVCRTD:invalid_parameter_handler.obj
 0001:0002e600       __initialize_denormal_control 0042f600 f   MSVCRTD:denormal_control.obj
 0001:0002e610       ___local_stdio_scanf_options 0042f610 f i MSVCRTD:default_local_stdio_options.obj
 0001:0002e620       ___scrt_initialize_default_local_stdio_options 0042f620 f   MSVCRTD:default_local_stdio_options.obj
 0001:0002e670       ___scrt_is_user_matherr_present 0042f670 f   MSVCRTD:matherr_detection.obj
 0001:0002e6a0       ___scrt_get_dyn_tls_init_callback 0042f6a0 f   MSVCRTD:dyn_tls_init.obj
 0001:0002e6b0       ___scrt_get_dyn_tls_dtor_callback 0042f6b0 f   MSVCRTD:dyn_tls_dtor.obj
 0001:0002e6c0       ___scrt_fastfail           0042f6c0 f   MSVCRTD:utility_desktop.obj
 0001:0002e850       ___scrt_get_show_window_mode 0042f850 f   MSVCRTD:utility_desktop.obj
 0001:0002e8a0       ___scrt_initialize_mta     0042f8a0 f   MSVCRTD:utility_desktop.obj
 0001:0002e8b0       ___scrt_initialize_winrt   0042f8b0 f   MSVCRTD:utility_desktop.obj
 0001:0002e8c0       ___scrt_is_managed_app     0042f8c0 f   MSVCRTD:utility_desktop.obj
 0001:0002e970       ___scrt_set_unhandled_exception_filter 0042f970 f   MSVCRTD:utility_desktop.obj
 0001:0002e990       ___scrt_stub_for_initialize_mta 0042f990 f   MSVCRTD:utility_desktop.obj
 0001:0002e990       ___scrt_exe_initialize_mta 0042f990 f   MSVCRTD:utility_desktop.obj
 0001:0002e9a0       ___scrt_unhandled_exception_filter@4 0042f9a0 f   MSVCRTD:utility_desktop.obj
 0001:0002ea40       __crt_debugger_hook        0042fa40 f   MSVCRTD:utility_desktop.obj
 0001:0002ea60       __RTC_Initialize           0042fa60 f   MSVCRTD:initsect.obj
 0001:0002eaa0       __RTC_Terminate            0042faa0 f   MSVCRTD:initsect.obj
 0001:0002eae0       __except_handler4          0042fae0 f   MSVCRTD:chandler4gs.obj
 0001:0002eb30       ??3@YAXPAX@Z               0042fb30 f   MSVCRTD:delete_scalar.obj
 0001:0002eb50       ___raise_securityfailure   0042fb50 f   MSVCRTD:gs_report.obj
 0001:0002eb90       ___report_gsfailure        0042fb90 f   MSVCRTD:gs_report.obj
 0001:0002ece0       ___report_rangecheckfailure 0042fce0 f   MSVCRTD:gs_report.obj
 0001:0002ecf0       ___report_securityfailure  0042fcf0 f   MSVCRTD:gs_report.obj
 0001:0002ee00       ___report_securityfailureEx 0042fe00 f   MSVCRTD:gs_report.obj
 0001:0002ef70       ??0bad_alloc@std@@QAE@XZ   0042ff70 f i MSVCRTD:throw_bad_alloc.obj
 0001:0002efa0       ?__scrt_throw_std_bad_alloc@@YAXXZ 0042ffa0 f   MSVCRTD:throw_bad_alloc.obj
 0001:0002efd0       ?__scrt_throw_std_bad_array_new_length@@YAXXZ 0042ffd0 f   MSVCRTD:throw_bad_alloc.obj
 0001:0002f000       ___isa_available_init      00430000 f   MSVCRTD:cpu_disp.obj
 0001:0002f400       ___scrt_is_ucrt_dll_in_use 00430400 f   MSVCRTD:ucrt_detection.obj
 0001:0002f42d       ___CxxFrameHandler3        0043042d f   vcruntimed:VCRUNTIME140D.dll
 0001:0002f433       _memcmp                    00430433 f   vcruntimed:VCRUNTIME140D.dll
 0001:0002f439       _memcpy                    00430439 f   vcruntimed:VCRUNTIME140D.dll
 0001:0002f43f       _memmove                   0043043f f   vcruntimed:VCRUNTIME140D.dll
 0001:0002f445       _memset                    00430445 f   vcruntimed:VCRUNTIME140D.dll
 0001:0002f44b       ___std_exception_copy      0043044b f   vcruntimed:VCRUNTIME140D.dll
 0001:0002f451       ___std_exception_destroy   00430451 f   vcruntimed:VCRUNTIME140D.dll
 0001:0002f457       __CxxThrowException@8      00430457 f   vcruntimed:VCRUNTIME140D.dll
 0001:0002f45d       ___RTDynamicCast           0043045d f   vcruntimed:VCRUNTIME140D.dll
 0001:0002f463       __purecall                 00430463 f   vcruntimed:VCRUNTIME140D.dll
 0001:0002f469       ___std_type_info_destroy_list 00430469 f   vcruntimed:VCRUNTIME140D.dll
 0001:0002f46f       ___current_exception       0043046f f   vcruntimed:VCRUNTIME140D.dll
 0001:0002f475       ___current_exception_context 00430475 f   vcruntimed:VCRUNTIME140D.dll
 0001:0002f47b       __except_handler4_common   0043047b f   vcruntimed:VCRUNTIME140D.dll
 0001:0002f481       __invalid_parameter        00430481 f   ucrtd:ucrtbased.dll
 0001:0002f487       __CrtDbgReport             00430487 f   ucrtd:ucrtbased.dll
 0001:0002f48d       _rand                      0043048d f   ucrtd:ucrtbased.dll
 0001:0002f493       ___acrt_iob_func           00430493 f   ucrtd:ucrtbased.dll
 0001:0002f499       ___stdio_common_vfprintf   00430499 f   ucrtd:ucrtbased.dll
 0001:0002f49f       _strlen                    0043049f f   ucrtd:ucrtbased.dll
 0001:0002f4a5       _atan                      004304a5 f   ucrtd:ucrtbased.dll
 0001:0002f4ab       _cos                       004304ab f   ucrtd:ucrtbased.dll
 0001:0002f4b1       _sin                       004304b1 f   ucrtd:ucrtbased.dll
 0001:0002f4b7       __CrtDumpMemoryLeaks       004304b7 f   ucrtd:ucrtbased.dll
 0001:0002f4bd       _srand                     004304bd f   ucrtd:ucrtbased.dll
 0001:0002f4c3       ___stdio_common_vsprintf   004304c3 f   ucrtd:ucrtbased.dll
 0001:0002f4c9       __time64                   004304c9 f   ucrtd:ucrtbased.dll
 0001:0002f4cf       _puts                      004304cf f   ucrtd:ucrtbased.dll
 0001:0002f4d5       _strcmp                    004304d5 f   ucrtd:ucrtbased.dll
 0001:0002f4db       _strcpy                    004304db f   ucrtd:ucrtbased.dll
 0001:0002f4e1       _sqrt                      004304e1 f   ucrtd:ucrtbased.dll
 0001:0002f4e7       _perror                    004304e7 f   ucrtd:ucrtbased.dll
 0001:0002f4ed       __get_stream_buffer_pointers 004304ed f   ucrtd:ucrtbased.dll
 0001:0002f4f3       _fclose                    004304f3 f   ucrtd:ucrtbased.dll
 0001:0002f4f9       _fflush                    004304f9 f   ucrtd:ucrtbased.dll
 0001:0002f4ff       _fgetc                     004304ff f   ucrtd:ucrtbased.dll
 0001:0002f505       _fgetpos                   00430505 f   ucrtd:ucrtbased.dll
 0001:0002f50b       _fputc                     0043050b f   ucrtd:ucrtbased.dll
 0001:0002f511       _fread                     00430511 f   ucrtd:ucrtbased.dll
 0001:0002f517       _fsetpos                   00430517 f   ucrtd:ucrtbased.dll
 0001:0002f51d       __fseeki64                 0043051d f   ucrtd:ucrtbased.dll
 0001:0002f523       _fwrite                    00430523 f   ucrtd:ucrtbased.dll
 0001:0002f529       _setvbuf                   00430529 f   ucrtd:ucrtbased.dll
 0001:0002f52f       _ungetc                    0043052f f   ucrtd:ucrtbased.dll
 0001:0002f535       __lock_file                00430535 f   ucrtd:ucrtbased.dll
 0001:0002f53b       __unlock_file              0043053b f   ucrtd:ucrtbased.dll
 0001:0002f541       _exit                      00430541 f   ucrtd:ucrtbased.dll
 0001:0002f547       __free_dbg                 00430547 f   ucrtd:ucrtbased.dll
 0001:0002f54d       __malloc_dbg               0043054d f   ucrtd:ucrtbased.dll
 0001:0002f553       __seh_filter_exe           00430553 f   ucrtd:ucrtbased.dll
 0001:0002f559       __set_app_type             00430559 f   ucrtd:ucrtbased.dll
 0001:0002f55f       ___setusermatherr          0043055f f   ucrtd:ucrtbased.dll
 0001:0002f565       __configure_narrow_argv    00430565 f   ucrtd:ucrtbased.dll
 0001:0002f56b       __initialize_narrow_environment 0043056b f   ucrtd:ucrtbased.dll
 0001:0002f571       __get_initial_narrow_environment 00430571 f   ucrtd:ucrtbased.dll
 0001:0002f577       __initterm                 00430577 f   ucrtd:ucrtbased.dll
 0001:0002f57d       __initterm_e               0043057d f   ucrtd:ucrtbased.dll
 0001:0002f583       __exit                     00430583 f   ucrtd:ucrtbased.dll
 0001:0002f589       __set_fmode                00430589 f   ucrtd:ucrtbased.dll
 0001:0002f58f       ___p___argc                0043058f f   ucrtd:ucrtbased.dll
 0001:0002f595       ___p___argv                00430595 f   ucrtd:ucrtbased.dll
 0001:0002f59b       __cexit                    0043059b f   ucrtd:ucrtbased.dll
 0001:0002f5a1       __c_exit                   004305a1 f   ucrtd:ucrtbased.dll
 0001:0002f5a7       __register_thread_local_exe_atexit_callback 004305a7 f   ucrtd:ucrtbased.dll
 0001:0002f5ad       __configthreadlocale       004305ad f   ucrtd:ucrtbased.dll
 0001:0002f5b3       __set_new_mode             004305b3 f   ucrtd:ucrtbased.dll
 0001:0002f5b9       ___p__commode              004305b9 f   ucrtd:ucrtbased.dll
 0001:0002f5bf       __callnewh                 004305bf f   ucrtd:ucrtbased.dll
 0001:0002f5c5       _malloc                    004305c5 f   ucrtd:ucrtbased.dll
 0001:0002f5cb       __seh_filter_dll           004305cb f   ucrtd:ucrtbased.dll
 0001:0002f5d1       __initialize_onexit_table  004305d1 f   ucrtd:ucrtbased.dll
 0001:0002f5d7       __register_onexit_function 004305d7 f   ucrtd:ucrtbased.dll
 0001:0002f5dd       __execute_onexit_table     004305dd f   ucrtd:ucrtbased.dll
 0001:0002f5e3       __crt_atexit               004305e3 f   ucrtd:ucrtbased.dll
 0001:0002f5e9       __crt_at_quick_exit        004305e9 f   ucrtd:ucrtbased.dll
 0001:0002f5ef       __controlfp_s              004305ef f   ucrtd:ucrtbased.dll
 0001:0002f5f5       _terminate                 004305f5 f   ucrtd:ucrtbased.dll
 0001:0002f740       _WinMain@16                00430740 f   SDL2main:SDL_windows_main.obj
 0001:0002f750       _main                      00430750 f   SDL2main:SDL_windows_main.obj
 0001:0002f8a0       _wmain                     004308a0 f   SDL2main:SDL_windows_main.obj
 0001:0002f8a5       _QueryPerformanceCounter@4 004308a5 f   kernel32:KERNEL32.dll
 0001:0002f8ab       _GetCurrentProcessId@0     004308ab f   kernel32:KERNEL32.dll
 0001:0002f8b1       _GetCurrentThreadId@0      004308b1 f   kernel32:KERNEL32.dll
 0001:0002f8b7       _GetSystemTimeAsFileTime@4 004308b7 f   kernel32:KERNEL32.dll
 0001:0002f8bd       _InitializeSListHead@4     004308bd f   kernel32:KERNEL32.dll
 0001:0002f8c3       _IsDebuggerPresent@0       004308c3 f   kernel32:KERNEL32.dll
 0001:0002f8c9       _UnhandledExceptionFilter@4 004308c9 f   kernel32:KERNEL32.dll
 0001:0002f8cf       _SetUnhandledExceptionFilter@4 004308cf f   kernel32:KERNEL32.dll
 0001:0002f8d5       _GetStartupInfoW@4         004308d5 f   kernel32:KERNEL32.dll
 0001:0002f8db       _IsProcessorFeaturePresent@4 004308db f   kernel32:KERNEL32.dll
 0001:0002f8e1       _GetModuleHandleW@4        004308e1 f   kernel32:KERNEL32.dll
 0001:0002f8e7       _GetCurrentProcess@0       004308e7 f   kernel32:KERNEL32.dll
 0001:0002f8ed       _TerminateProcess@8        004308ed f   kernel32:KERNEL32.dll
 0001:0002f8f3       _GetCommandLineW@0         004308f3 f   kernel32:KERNEL32.dll
 0001:0002f8f9       _VirtualAlloc@16           004308f9 f   kernel32:KERNEL32.dll
 0001:0002f8ff       _VirtualFree@12            004308ff f   kernel32:KERNEL32.dll
 0001:0002f905       _WideCharToMultiByte@32    00430905 f   kernel32:KERNEL32.dll
 0001:0002f90b       _SDL_SetMainReady          0043090b f   SDL2:SDL2.dll
 0001:0002f920       ___acrt_initialize         00430920 f   MSVCRTD:ucrt_stubs.obj
 0001:0002f920       ___scrt_stub_for_acrt_initialize 00430920 f   MSVCRTD:ucrt_stubs.obj
 0001:0002f920       ___vcrt_initialize         00430920 f   MSVCRTD:ucrt_stubs.obj
 0001:0002f930       ___scrt_stub_for_acrt_thread_attach 00430930 f   MSVCRTD:ucrt_stubs.obj
 0001:0002f930       ___vcrt_thread_attach      00430930 f   MSVCRTD:ucrt_stubs.obj
 0001:0002f930       ___acrt_thread_attach      00430930 f   MSVCRTD:ucrt_stubs.obj
 0001:0002f940       ___scrt_stub_for_acrt_thread_detach 00430940 f   MSVCRTD:ucrt_stubs.obj
 0001:0002f940       ___acrt_thread_detach      00430940 f   MSVCRTD:ucrt_stubs.obj
 0001:0002f940       ___vcrt_thread_detach      00430940 f   MSVCRTD:ucrt_stubs.obj
 0001:0002f950       ___vcrt_uninitialize       00430950 f   MSVCRTD:ucrt_stubs.obj
 0001:0002f950       ___scrt_stub_for_acrt_uninitialize 00430950 f   MSVCRTD:ucrt_stubs.obj
 0001:0002f950       ___acrt_uninitialize       00430950 f   MSVCRTD:ucrt_stubs.obj
 0001:0002f960       ___vcrt_uninitialize_critical 00430960 f   MSVCRTD:ucrt_stubs.obj
 0001:0002f960       ___scrt_stub_for_acrt_uninitialize_critical 00430960 f   MSVCRTD:ucrt_stubs.obj
 0001:0002f960       ___acrt_uninitialize_critical 00430960 f   MSVCRTD:ucrt_stubs.obj
 0001:0002f970       ___scrt_stub_for_is_c_termination_complete 00430970 f   MSVCRTD:ucrt_stubs.obj
 0001:0002f970       __is_c_termination_complete 00430970 f   MSVCRTD:ucrt_stubs.obj
 0001:0002f980       __filter_x86_sse2_floating_point_exception 00430980 f   MSVCRTD:x86_exception_filter.obj
 0001:0002f980       __filter_x86_sse2_floating_point_exception_default 00430980 f   MSVCRTD:x86_exception_filter.obj
 0002:00000000       ___xc_a                    00437000     MSVCRTD:initializers.obj
 0002:0000030c       ___xc_z                    0043730c     MSVCRTD:initializers.obj
 0002:00000410       ___xi_a                    00437410     MSVCRTD:initializers.obj
 0002:0000071c       ___xi_z                    0043771c     MSVCRTD:initializers.obj
 0002:00000820       ___xp_a                    00437820     MSVCRTD:initializers.obj
 0002:00000924       ___xp_z                    00437924     MSVCRTD:initializers.obj
 0002:00000a28       ___xt_a                    00437a28     MSVCRTD:initializers.obj
 0002:00000b2c       ___xt_z                    00437b2c     MSVCRTD:initializers.obj
 0002:00001620       ??_7AutomatedObject@@6B@   00438620     AutomatedObject.obj
 0002:0000216c       ??_7exception@std@@6B@     0043916c     Boss.obj
 0002:00002178       ??_C@_0BC@EOODALEL@Unknown?5exception@ 00439178     Boss.obj
 0002:00002194       ??_7bad_alloc@std@@6B@     00439194     Boss.obj
 0002:000021a4       ??_7bad_array_new_length@std@@6B@ 004391a4     Boss.obj
 0002:000021b0       ??_C@_0BF@KINCDENJ@bad?5array?5new?5length@ 004391b0     Boss.obj
 0002:000021cc       ??_C@_0BB@FCMFBGOM@invalid?5argument@ 004391cc     Boss.obj
 0002:000021e0       ??_C@_02DKCKIIND@?$CFs@    004391e0     Boss.obj
 0002:000021e8       ??_C@_0GI@ECLNPHGK@C?3?2Program?5Files?5?$CIx86?$CJ?2Microsof@ 004391e8     Boss.obj
 0002:00002268       ??_C@_1NA@FAJECEP@?$AAC?$AA?3?$AA?2?$AAP?$AAr?$AAo?$AAg?$AAr?$AAa?$AAm?$AA?5?$AAF?$AAi?$AAl?$AAe@ 00439268     Boss.obj
 0002:00002368       ??_C@_1EK@NIFDJFDG@?$AAs?$AAt?$AAd?$AA?3?$AA?3?$AA_?$AAA?$AAd?$AAj?$AAu?$AAs?$AAt?$AA_?$AAm?$AAa@ 00439368     Boss.obj
 0002:000023c0       ??_C@_1CG@JNLFBNGN@?$AA?$CC?$AAi?$AAn?$AAv?$AAa?$AAl?$AAi?$AAd?$AA?5?$AAa?$AAr?$AAg?$AAu?$AAm?$AAe@ 004393c0     Boss.obj
 0002:000023f0       ??_C@_0BJ@LFDBABJJ@ITERATOR?5LIST?5CORRUPTED?$CB@ 004393f0     Boss.obj
 0002:00002410       ??_C@_1EE@KLDMFDFL@?$AAs?$AAt?$AAd?$AA?3?$AA?3?$AA_?$AAI?$AAt?$AAe?$AAr?$AAa?$AAt?$AAo?$AAr?$AA_@ 00439410     Boss.obj
 0002:00002464       ??_C@_1DG@PLBPCAEM@?$AA?$CC?$AAI?$AAT?$AAE?$AAR?$AAA?$AAT?$AAO?$AAR?$AA?5?$AAL?$AAI?$AAS?$AAT?$AA?5@ 00439464     Boss.obj
 0002:000024a4       ??_C@_0BA@JFNIOLAK@string?5too?5long@ 004394a4     Boss.obj
 0002:000024b8       ??_C@_0BB@GCADKGJO@map?1set?5too?5long@ 004394b8     Boss.obj
 0002:000024cc       ??_C@_0DC@BNOGMHFL@Error?5creating?5surface?5in?5RawIm@ 004394cc     Boss.obj
 0002:00002508       ??_C@_0BD@IFIGDDIC@?7?7?$CL?$CL?$CL?5Load?5image?3?5@ 00439508     Boss.obj
 0002:00002520       ??_C@_0DJ@OJEPJEDH@ImageManager?3?3getImagePtrbyURL?$CI@ 00439520     Boss.obj
 0002:00002564       ??_C@_0BJ@LOCNEGOL@Failed?5to?5load?5image?5?$CFs?6@ 00439564     Boss.obj
 0002:00002588       ??_7Boss@@6B@              00439588     Boss.obj
 0002:000025c8       ??_C@_0BO@PFKOHNJC@vector?5subscript?5out?5of?5range@ 004395c8     Boss.obj
 0002:000025f0       ??_C@_0GH@DIILNLDE@C?3?2Program?5Files?5?$CIx86?$CJ?2Microsof@ 004395f0     Boss.obj
 0002:00002670       ??_C@_1MO@POJAFHIK@?$AAC?$AA?3?$AA?2?$AAP?$AAr?$AAo?$AAg?$AAr?$AAa?$AAm?$AA?5?$AAF?$AAi?$AAl?$AAe@ 00439670     Boss.obj
 0002:00002768       ??_C@_1KO@COEIFIBB@?$AAs?$AAt?$AAd?$AA?3?$AA?3?$AAv?$AAe?$AAc?$AAt?$AAo?$AAr?$AA?$DM?$AAs?$AAt?$AAr@ 00439768     Boss.obj
 0002:00002838       ??_C@_1EA@LEKOKFNB@?$AA?$CC?$AAv?$AAe?$AAc?$AAt?$AAo?$AAr?$AA?5?$AAs?$AAu?$AAb?$AAs?$AAc?$AAr?$AAi@ 00439838     Boss.obj
 0002:00002884       ??_C@_0BI@PJHAPDF@vector?5empty?5before?5pop@ 00439884     Boss.obj
 0002:000028a0       ??_C@_1KI@DNJBHDJE@?$AAs?$AAt?$AAd?$AA?3?$AA?3?$AAv?$AAe?$AAc?$AAt?$AAo?$AAr?$AA?$DM?$AAs?$AAt?$AAr@ 004398a0     Boss.obj
 0002:0000296c       ??_C@_1DE@IPIBMNGD@?$AA?$CC?$AAv?$AAe?$AAc?$AAt?$AAo?$AAr?$AA?5?$AAe?$AAm?$AAp?$AAt?$AAy?$AA?5?$AAb@ 0043996c     Boss.obj
 0002:000029b0       ??_C@_1MK@PODALHBD@?$AAs?$AAt?$AAd?$AA?3?$AA?3?$AAv?$AAe?$AAc?$AAt?$AAo?$AAr?$AA?$DM?$AAc?$AAl?$AAa@ 004399b0     Boss.obj
 0002:00002aa8       ??_C@_0GJ@GONODBOB@C?3?2Program?5Files?5?$CIx86?$CJ?2Microsof@ 00439aa8     Boss.obj
 0002:00002b28       ??_C@_0BH@EDKEEENI@deque?5empty?5before?5pop@ 00439b28     Boss.obj
 0002:00002b48       ??_C@_0GG@KCDBFOIL@C?3?2Program?5Files?5?$CIx86?$CJ?2Microsof@ 00439b48     Boss.obj
 0002:00002bc8       ??_C@_1MM@CPIEIGOM@?$AAC?$AA?3?$AA?2?$AAP?$AAr?$AAo?$AAg?$AAr?$AAa?$AAm?$AA?5?$AAF?$AAi?$AAl?$AAe@ 00439bc8     Boss.obj
 0002:00002cc0       ??_C@_1KI@EDPHMPOG@?$AAs?$AAt?$AAd?$AA?3?$AA?3?$AAd?$AAe?$AAq?$AAu?$AAe?$AA?$DM?$AAs?$AAt?$AAr?$AAu@ 00439cc0     Boss.obj
 0002:00002d8c       ??_C@_1DC@NJAACHCD@?$AA?$CC?$AAd?$AAe?$AAq?$AAu?$AAe?$AA?5?$AAe?$AAm?$AAp?$AAt?$AAy?$AA?5?$AAb?$AAe@ 00439d8c     Boss.obj
 0002:00002dc8       ??_C@_0BO@PEOHNLIM@front?$CI?$CJ?5called?5on?5empty?5deque@ 00439dc8     Boss.obj
 0002:00002df0       ??_C@_1KA@DNOHAFBO@?$AAs?$AAt?$AAd?$AA?3?$AA?3?$AAd?$AAe?$AAq?$AAu?$AAe?$AA?$DM?$AAs?$AAt?$AAr?$AAu@ 00439df0     Boss.obj
 0002:00002eb0       ??_C@_1EA@EELNAHHD@?$AA?$CC?$AAf?$AAr?$AAo?$AAn?$AAt?$AA?$CI?$AA?$CJ?$AA?5?$AAc?$AAa?$AAl?$AAl?$AAe?$AAd@ 00439eb0     Boss.obj
 0002:00002efc       ??_C@_0BP@OLDKBHLM@map?1set?5iterators?5incompatible@ 00439efc     Boss.obj
 0002:00002f28       ??_C@_0GG@IFDGCOMH@C?3?2Program?5Files?5?$CIx86?$CJ?2Microsof@ 00439f28     Boss.obj
 0002:00002fa8       ??_C@_1MM@GDKDMJDP@?$AAC?$AA?3?$AA?2?$AAP?$AAr?$AAo?$AAg?$AAr?$AAa?$AAm?$AA?5?$AAF?$AAi?$AAl?$AAe@ 00439fa8     Boss.obj
 0002:000030a0       ??_C@_1EC@JLIDLCDH@?$AA?$CC?$AAm?$AAa?$AAp?$AA?1?$AAs?$AAe?$AAt?$AA?5?$AAi?$AAt?$AAe?$AAr?$AAa?$AAt@ 0043a0a0     Boss.obj
 0002:000030f0       ??_C@_1BPG@KHABJGCD@?$AAs?$AAt?$AAd?$AA?3?$AA?3?$AA_?$AAT?$AAr?$AAe?$AAe?$AA_?$AAc?$AAo?$AAn?$AAs@ 0043a0f0     Boss.obj
 0002:00003350       ??_C@_1KG@LCIJNBAO@?$AAs?$AAt?$AAd?$AA?3?$AA?3?$AAd?$AAe?$AAq?$AAu?$AAe?$AA?$DM?$AAs?$AAt?$AAr?$AAu@ 0043a350     Boss.obj
 0002:00003418       ??_C@_0DG@LCFNIIPB@cannot?5dereference?5value?9initia@ 0043a418     Boss.obj
 0002:00003458       ??_C@_1BPE@BBFPAJEC@?$AAs?$AAt?$AAd?$AA?3?$AA?3?$AA_?$AAT?$AAr?$AAe?$AAe?$AA_?$AAc?$AAo?$AAn?$AAs@ 0043a458     Boss.obj
 0002:000036b0       ??_C@_1HA@ILGCNILF@?$AA?$CC?$AAc?$AAa?$AAn?$AAn?$AAo?$AAt?$AA?5?$AAd?$AAe?$AAr?$AAe?$AAf?$AAe?$AAr@ 0043a6b0     Boss.obj
 0002:00003738       ??_C@_0CI@OKFEHCEB@cannot?5dereference?5end?5map?1set?5@ 0043a738     Boss.obj
 0002:00003768       ??_C@_1FE@NKHAAGMB@?$AA?$CC?$AAc?$AAa?$AAn?$AAn?$AAo?$AAt?$AA?5?$AAd?$AAe?$AAr?$AAe?$AAf?$AAe?$AAr@ 0043a768     Boss.obj
 0002:000037d0       ??_7?$_Ref_count@VRawImageData@@@std@@6B@ 0043a7d0     Boss.obj
 0002:000037e4       ??_C@_0DA@GGPHOHEL@map?1set?5erase?5iterator?5from?5inc@ 0043a7e4     Boss.obj
 0002:00003820       ??_C@_1DJG@KIJFPGMB@?$AAs?$AAt?$AAd?$AA?3?$AA?3?$AA_?$AAT?$AAr?$AAe?$AAe?$AA?$DM?$AAc?$AAl?$AAa?$AAs@ 0043a820     Boss.obj
 0002:00003c70       ??_C@_1GE@FENJBJJO@?$AA?$CC?$AAm?$AAa?$AAp?$AA?1?$AAs?$AAe?$AAt?$AA?5?$AAe?$AAr?$AAa?$AAs?$AAe?$AA?5@ 0043ac70     Boss.obj
 0002:00003ce8       ??_C@_0CE@JAJNKOFK@cannot?5erase?5map?1set?5end?$CI?$CJ?5iter@ 0043ace8     Boss.obj
 0002:00003d18       ??_C@_1EM@MEAEPHLP@?$AA?$CC?$AAc?$AAa?$AAn?$AAn?$AAo?$AAt?$AA?5?$AAe?$AAr?$AAa?$AAs?$AAe?$AA?5?$AAm@ 0043ad18     Boss.obj
 0002:00003d74       ??_C@_0BA@FOIKENOD@vector?5too?5long@ 0043ad74     Boss.obj
 0002:00003d88       ??_C@_0BC@KBDMBKEH@deque?$DMT?$DO?5too?5long@ 0043ad88     Boss.obj
 0002:00003da0       ??_C@_0BJ@HAJGEHKO@transposed?5pointer?5range@ 0043ada0     Boss.obj
 0002:00003dc0       ??_C@_1NC@OCPDFLHN@?$AAC?$AA?3?$AA?2?$AAP?$AAr?$AAo?$AAg?$AAr?$AAa?$AAm?$AA?5?$AAF?$AAi?$AAl?$AAe@ 0043adc0     Boss.obj
 0002:00003ebc       ??_C@_1CG@LJCPDKEJ@?$AAs?$AAt?$AAd?$AA?3?$AA?3?$AA_?$AAV?$AAe?$AAr?$AAi?$AAf?$AAy?$AA_?$AAr?$AAa@ 0043aebc     Boss.obj
 0002:00003eec       ??_C@_1DG@FJIKMGFD@?$AA?$CC?$AAt?$AAr?$AAa?$AAn?$AAs?$AAp?$AAo?$AAs?$AAe?$AAd?$AA?5?$AAp?$AAo?$AAi@ 0043aeec     Boss.obj
 0002:00003f2c       ??_C@_0BD@FEEMDEPI@invalid?5comparator@ 0043af2c     Boss.obj
 0002:00003f44       ??_C@_1CI@JONCLBEJ@?$AAs?$AAt?$AAd?$AA?3?$AA?3?$AA_?$AAD?$AAe?$AAb?$AAu?$AAg?$AA_?$AAl?$AAt?$AA_@ 0043af44     Boss.obj
 0002:00003f74       ??_C@_1CK@NDNHPKPI@?$AA?$CC?$AAi?$AAn?$AAv?$AAa?$AAl?$AAi?$AAd?$AA?5?$AAc?$AAo?$AAm?$AAp?$AAa?$AAr@ 0043af74     Boss.obj
 0002:000049b4       ??_7Bullet@@6B@            0043b9b4     Bullet.obj
 0002:000049f8       ?MY_PI@DrawingSurface@@2NB 0043b9f8     DrawingSurface.obj
 0002:000053ec       ??_C@_0CN@GHCLOPHF@Error?5in?5setting?5pixel?9?5should?5@ 0043c3ec     DrawingSurface.obj
 0002:00005428       ??_C@_0LN@HOLHFHJI@WARNING?3?5Attempted?5blit?5to?5lock@ 0043c428     DrawingSurface.obj
 0002:00005510       ??_C@_0JM@GIEKPEHN@WARNING?3?5Attempted?5write?5to?5sur@ 0043c510     DrawingSurface.obj
 0002:000055d0       __real@3fe0000000000000    0043c5d0     DrawingSurface.obj
 0002:000055e0       __real@3fe0c152382d7365    0043c5e0     DrawingSurface.obj
 0002:000055f0       __real@3ff0000000000000    0043c5f0     DrawingSurface.obj
 0002:00005600       __real@3ff8000000000000    0043c600     DrawingSurface.obj
 0002:00005610       __real@3ff921fb54442d18    0043c610     DrawingSurface.obj
 0002:00005620       __real@4000000000000000    0043c620     DrawingSurface.obj
 0002:00005630       __real@4008000000000000    0043c630     DrawingSurface.obj
 0002:00005640       __real@400921fb54442d18    0043c640     DrawingSurface.obj
 0002:00005650       __real@400f6a7a2955385e    0043c650     DrawingSurface.obj
 0002:00005660       __real@4010000000000000    0043c660     DrawingSurface.obj
 0002:00005670       __real@401921fb54442d18    0043c670     DrawingSurface.obj
 0002:000060bc       ??_7BaseState@@6B@         0043d0bc     EndState.obj
 0002:000060e0       ??_7StartState@@6B@        0043d0e0     EndState.obj
 0002:00006100       ??_C@_0BI@CFPLBAOH@invalid?5string?5position@ 0043d100     EndState.obj
 0002:00006c28       ??_7Guard@@6B@             0043dc28     Guard.obj
 0002:00008aec       ??_7FilterPoints@@6B@      0043faec     BaseEngine.obj
 0002:00008b08       ??_7DisplayableObjectContainer@@6B@ 0043fb08     BaseEngine.obj
 0002:00008b18       ??_7BaseEngine@@6BDisplayableObjectContainer@@@ 0043fb18     BaseEngine.obj
 0002:00008bc4       ??_7BaseEngine@@6BFilterPoints@@@ 0043fbc4     BaseEngine.obj
 0002:00008bdc       ??_C@_0DE@CHADHGFF@can?8t?5dereference?5value?9initial@ 0043fbdc     BaseEngine.obj
 0002:00008c20       ??_C@_1PA@DMJFJEGO@?$AAs?$AAt?$AAd?$AA?3?$AA?3?$AA_?$AAV?$AAe?$AAc?$AAt?$AAo?$AAr?$AA_?$AAc?$AAo@ 0043fc20     BaseEngine.obj
 0002:00008d40       ??_C@_1GM@FNBFNBEL@?$AA?$CC?$AAc?$AAa?$AAn?$AA?8?$AAt?$AA?5?$AAd?$AAe?$AAr?$AAe?$AAf?$AAe?$AAr?$AAe@ 0043fd40     BaseEngine.obj
 0002:00008dc4       ??_C@_0CP@MDHADBHN@can?8t?5dereference?5out?5of?5range?5@ 0043fdc4     BaseEngine.obj
 0002:00008e00       ??_C@_1GC@JDCKOLAC@?$AA?$CC?$AAc?$AAa?$AAn?$AA?8?$AAt?$AA?5?$AAd?$AAe?$AAr?$AAe?$AAf?$AAe?$AAr?$AAe@ 0043fe00     BaseEngine.obj
 0002:00008e78       ??_C@_0DC@KEKNBAEB@can?8t?5increment?5value?9initializ@ 0043fe78     BaseEngine.obj
 0002:00008eb8       ??_C@_1PC@LAHDNGHL@?$AAs?$AAt?$AAd?$AA?3?$AA?3?$AA_?$AAV?$AAe?$AAc?$AAt?$AAo?$AAr?$AA_?$AAc?$AAo@ 0043feb8     BaseEngine.obj
 0002:00008fe0       ??_C@_1GI@EDCILPL@?$AA?$CC?$AAc?$AAa?$AAn?$AA?8?$AAt?$AA?5?$AAi?$AAn?$AAc?$AAr?$AAe?$AAm?$AAe?$AAn@ 0043ffe0     BaseEngine.obj
 0002:0000905c       ??_C@_0CJ@OAAAAGPM@can?8t?5increment?5vector?5iterator@ 0044005c     BaseEngine.obj
 0002:00009090       ??_C@_1FG@LDPPKMGP@?$AA?$CC?$AAc?$AAa?$AAn?$AA?8?$AAt?$AA?5?$AAi?$AAn?$AAc?$AAr?$AAe?$AAm?$AAe?$AAn@ 00440090     BaseEngine.obj
 0002:000090f8       ??_C@_0BO@CAOBBIOC@vector?5iterators?5incompatible@ 004400f8     BaseEngine.obj
 0002:00009120       ??_C@_1OK@EOCJDFAL@?$AAs?$AAt?$AAd?$AA?3?$AA?3?$AA_?$AAV?$AAe?$AAc?$AAt?$AAo?$AAr?$AA_?$AAc?$AAo@ 00440120     BaseEngine.obj
 0002:00009238       ??_C@_1EA@DJDGNIII@?$AA?$CC?$AAv?$AAe?$AAc?$AAt?$AAo?$AAr?$AA?5?$AAi?$AAt?$AAe?$AAr?$AAa?$AAt?$AAo@ 00440238     BaseEngine.obj
 0002:00009284       ??_C@_0DI@PBEELKIF@vector?5iterators?5in?5range?5are?5f@ 00440284     BaseEngine.obj
 0002:000092c8       ??_C@_1HE@KBMFDAFB@?$AA?$CC?$AAv?$AAe?$AAc?$AAt?$AAo?$AAr?$AA?5?$AAi?$AAt?$AAe?$AAr?$AAa?$AAt?$AAo@ 004402c8     BaseEngine.obj
 0002:00009354       ??_C@_0CB@LIAHLBAO@vector?5iterator?5range?5transpose@ 00440354     BaseEngine.obj
 0002:00009380       ??_C@_1EG@ODKBEHFN@?$AA?$CC?$AAv?$AAe?$AAc?$AAt?$AAo?$AAr?$AA?5?$AAi?$AAt?$AAe?$AAr?$AAa?$AAt?$AAo@ 00440380     BaseEngine.obj
 0002:00009dc8       ??_7DisplayableObject@@6B@ 00440dc8     DisplayableObject.obj
 0002:0000a0e4       ??_C@_0BI@GMOFELCF@Free?5font?3?5?$CFd?5point?5?$CFs?6@ 004410e4     FontManager.obj
 0002:0000ab18       ??_7RunningState@@6B@      00441b18     PauseState.obj
 0002:0000b754       ??_7PauseState@@6B@        00442754     RunningState.obj
 0002:0000c664       ??_7bad_cast@std@@6B@      00443664     GameEngine.obj
 0002:0000c670       ??_C@_08EPJLHIJG@bad?5cast@ 00443670     GameEngine.obj
 0002:0000c680       ??_7CoordinateMapping@@6B@ 00443680     GameEngine.obj
 0002:0000c690       ??_7FilterPointsScaling@@6B@ 00443690     GameEngine.obj
 0002:0000c6ac       ??_7FilterPointsTranslation@@6B@ 004436ac     GameEngine.obj
 0002:0000c6c8       ??_7GameEngine@@6BDisplayableObjectContainer@@@ 004436c8     GameEngine.obj
 0002:0000c774       ??_7GameEngine@@6BFilterPoints@@@ 00443774     GameEngine.obj
 0002:0000c790       ??_7GameEngine@@6B@        00443790     GameEngine.obj
 0002:0000c7a0       ??_7DragableBaseClassObject@@6B@ 004437a0     GameEngine.obj
 0002:0000c7f8       ??_7DragableImageObject@@6B@ 004437f8     GameEngine.obj
 0002:0000c850       ??_7MappableImageObject@@6B@ 00443850     GameEngine.obj
 0002:0000c8a8       ??_7?$basic_filebuf@DU?$char_traits@D@std@@@std@@6B@ 004438a8     GameEngine.obj
 0002:0000c8f4       ??_7?$basic_fstream@DU?$char_traits@D@std@@@std@@6B@ 004438f4     GameEngine.obj
 0002:0000c8fc       ??_8?$basic_fstream@DU?$char_traits@D@std@@@std@@7B?$basic_istream@DU?$char_traits@D@std@@@1@@ 004438fc     GameEngine.obj
 0002:0000c908       ??_8?$basic_fstream@DU?$char_traits@D@std@@@std@@7B?$basic_ostream@DU?$char_traits@D@std@@@1@@ 00443908     GameEngine.obj
 0002:0000c914       ??_C@_0CE@EAMOGAIE@vector?5erase?5iterator?5outside?5r@ 00443914     GameEngine.obj
 0002:0000c940       ??_C@_1LO@PHHLNKEP@?$AAs?$AAt?$AAd?$AA?3?$AA?3?$AAv?$AAe?$AAc?$AAt?$AAo?$AAr?$AA?$DM?$AAc?$AAl?$AAa@ 00443940     GameEngine.obj
 0002:0000ca28       ??_C@_1EM@BEMPOGMM@?$AA?$CC?$AAv?$AAe?$AAc?$AAt?$AAo?$AAr?$AA?5?$AAe?$AAr?$AAa?$AAs?$AAe?$AA?5?$AAi@ 00443a28     GameEngine.obj
 0002:0000ca88       ??_C@_0GI@LLHAPLID@C?3?2Program?5Files?5?$CIx86?$CJ?2Microsof@ 00443a88     GameEngine.obj
 0002:0000cb08       ??_C@_1NA@OLIFLLJO@?$AAC?$AA?3?$AA?2?$AAP?$AAr?$AAo?$AAg?$AAr?$AAa?$AAm?$AA?5?$AAF?$AAi?$AAl?$AAe@ 00443b08     GameEngine.obj
 0002:0000cc04       ??_C@_0BP@PFIPNLNI@front?$CI?$CJ?5called?5on?5empty?5string@ 00443c04     GameEngine.obj
 0002:0000cc30       ??_C@_1LC@BJDDPGPA@?$AAs?$AAt?$AAd?$AA?3?$AA?3?$AAb?$AAa?$AAs?$AAi?$AAc?$AA_?$AAs?$AAt?$AAr?$AAi@ 00443c30     GameEngine.obj
 0002:0000cd08       ??_C@_1EC@DINNLDHA@?$AA?$CC?$AAf?$AAr?$AAo?$AAn?$AAt?$AA?$CI?$AA?$CJ?$AA?5?$AAc?$AAa?$AAl?$AAl?$AAe?$AAd@ 00443d08     GameEngine.obj
 0002:0000cd58       __real@3f1a36e2eb1c432d    00443d58     GameEngine.obj
 0002:0000cd68       __real@4059000000000000    00443d68     GameEngine.obj
 0002:0000d880       ??_7GameMainObject@@6B@    00444880     GameMainObject.obj
 0002:0000d8c4       ??_7EndState@@6B@          004448c4     GameMainObject.obj
 0002:0000e4b8       ??_7TileManager@@6B@       004454b8     AdvancedTileManager.obj
 0002:0000e4c8       ??_7AdvancedTileManager@@6B@ 004454c8     AdvancedTileManager.obj
 0002:0000eef0       ??_7CroppedCoordinateMapping@@6B@ 00445ef0     SimpleImage.obj
 0002:00010ff8       ??_7SelectState@@6B@       00447ff8     StartState.obj
 0002:0001101c       ??_7HelpState@@6B@         0044801c     StartState.obj
 0002:00011a2c       ??_C@_0DO@KCHDIEHO@D?3?2agent?2_work?24?2s?2src?2vctools?2@ 00448a2c     msvcprtd:locale0_implib.obj
 0002:00011a7c       ??_7type_info@@6B@         00448a7c     MSVCRTD:std_type_info_static.obj
 0002:00011a90       ??_C@_0P@GHFPNOJB@bad?5allocation@ 00448a90     MSVCRTD:throw_bad_alloc.obj
 0002:00011aa4       ??_C@_0BJ@HFNMHALN@Out?5of?5memory?5?9?5aborting@ 00448aa4     SDL2main:SDL_windows_main.obj
 0002:00011ac4       ??_C@_0M@HFFOIJBL@Fatal?5Error@ 00448ac4     SDL2main:SDL_windows_main.obj
 0002:00011b10       __load_config_used         00448b10     MSVCRTD:loadcfg.obj
 0002:00011da0       ??_R4AutomatedObject@@6B@  00448da0     AutomatedObject.obj
 0002:00011db8       ??_R3AutomatedObject@@8    00448db8     AutomatedObject.obj
 0002:00011dcc       ??_R2AutomatedObject@@8    00448dcc     AutomatedObject.obj
 0002:00011dd8       ??_R1A@?0A@EA@AutomatedObject@@8 00448dd8     AutomatedObject.obj
 0002:00011dfc       ??_R1A@?0A@EA@DisplayableObject@@8 00448dfc     AutomatedObject.obj
 0002:00011e20       ??_R3DisplayableObject@@8  00448e20     AutomatedObject.obj
 0002:00011e34       ??_R2DisplayableObject@@8  00448e34     AutomatedObject.obj
 0002:00011e3c       ??_R4exception@std@@6B@    00448e3c     Boss.obj
 0002:00011e54       ??_R3exception@std@@8      00448e54     Boss.obj
 0002:00011e68       ??_R2exception@std@@8      00448e68     Boss.obj
 0002:00011e70       ??_R1A@?0A@EA@exception@std@@8 00448e70     Boss.obj
 0002:00011e94       ??_R4bad_alloc@std@@6B@    00448e94     Boss.obj
 0002:00011eac       ??_R3bad_alloc@std@@8      00448eac     Boss.obj
 0002:00011ec0       ??_R2bad_alloc@std@@8      00448ec0     Boss.obj
 0002:00011ecc       ??_R1A@?0A@EA@bad_alloc@std@@8 00448ecc     Boss.obj
 0002:00011ef0       ??_R4bad_array_new_length@std@@6B@ 00448ef0     Boss.obj
 0002:00011f08       ??_R3bad_array_new_length@std@@8 00448f08     Boss.obj
 0002:00011f1c       ??_R2bad_array_new_length@std@@8 00448f1c     Boss.obj
 0002:00011f2c       ??_R1A@?0A@EA@bad_array_new_length@std@@8 00448f2c     Boss.obj
 0002:00011f50       ??_R3_Ref_count_base@std@@8 00448f50     Boss.obj
 0002:00011f64       ??_R2_Ref_count_base@std@@8 00448f64     Boss.obj
 0002:00011f6c       ??_R1A@?0A@EA@_Ref_count_base@std@@8 00448f6c     Boss.obj
 0002:00011f90       ??_R4Boss@@6B@             00448f90     Boss.obj
 0002:00011fa8       ??_R3Boss@@8               00448fa8     Boss.obj
 0002:00011fbc       ??_R2Boss@@8               00448fbc     Boss.obj
 0002:00011fcc       ??_R1A@?0A@EA@Boss@@8      00448fcc     Boss.obj
 0002:00011ff0       ??_R4?$_Ref_count@VRawImageData@@@std@@6B@ 00448ff0     Boss.obj
 0002:00012008       ??_R3?$_Ref_count@VRawImageData@@@std@@8 00449008     Boss.obj
 0002:0001201c       ??_R2?$_Ref_count@VRawImageData@@@std@@8 0044901c     Boss.obj
 0002:00012028       ??_R1A@?0A@EA@?$_Ref_count@VRawImageData@@@std@@8 00449028     Boss.obj
 0002:0001204c       ??_R4Bullet@@6B@           0044904c     Bullet.obj
 0002:00012064       ??_R3Bullet@@8             00449064     Bullet.obj
 0002:00012078       ??_R2Bullet@@8             00449078     Bullet.obj
 0002:00012088       ??_R1A@?0A@EA@Bullet@@8    00449088     Bullet.obj
 0002:000120ac       ??_R4BaseState@@6B@        004490ac     EndState.obj
 0002:000120c4       ??_R3BaseState@@8          004490c4     EndState.obj
 0002:000120d8       ??_R2BaseState@@8          004490d8     EndState.obj
 0002:000120e0       ??_R1A@?0A@EA@BaseState@@8 004490e0     EndState.obj
 0002:00012104       ??_R4StartState@@6B@       00449104     EndState.obj
 0002:0001211c       ??_R3StartState@@8         0044911c     EndState.obj
 0002:00012130       ??_R2StartState@@8         00449130     EndState.obj
 0002:0001213c       ??_R1A@?0A@EA@StartState@@8 0044913c     EndState.obj
 0002:00012160       ??_R4Guard@@6B@            00449160     Guard.obj
 0002:00012178       ??_R3Guard@@8              00449178     Guard.obj
 0002:0001218c       ??_R2Guard@@8              0044918c     Guard.obj
 0002:0001219c       ??_R1A@?0A@EA@Guard@@8     0044919c     Guard.obj
 0002:000121c0       ??_R4BaseEngine@@6BDisplayableObjectContainer@@@ 004491c0     BaseEngine.obj
 0002:000121d8       ??_R3BaseEngine@@8         004491d8     BaseEngine.obj
 0002:000121ec       ??_R2BaseEngine@@8         004491ec     BaseEngine.obj
 0002:000121fc       ??_R1A@?0A@EA@BaseEngine@@8 004491fc     BaseEngine.obj
 0002:00012220       ??_R1A@?0A@EA@DisplayableObjectContainer@@8 00449220     BaseEngine.obj
 0002:00012244       ??_R3DisplayableObjectContainer@@8 00449244     BaseEngine.obj
 0002:00012258       ??_R2DisplayableObjectContainer@@8 00449258     BaseEngine.obj
 0002:00012260       ??_R1BM@?0A@EA@FilterPoints@@8 00449260     BaseEngine.obj
 0002:00012284       ??_R3FilterPoints@@8       00449284     BaseEngine.obj
 0002:00012298       ??_R2FilterPoints@@8       00449298     BaseEngine.obj
 0002:000122a0       ??_R1A@?0A@EA@FilterPoints@@8 004492a0     BaseEngine.obj
 0002:000122c4       ??_R4BaseEngine@@6BFilterPoints@@@ 004492c4     BaseEngine.obj
 0002:000122dc       ??_R4FilterPoints@@6B@     004492dc     BaseEngine.obj
 0002:000122f4       ??_R4DisplayableObjectContainer@@6B@ 004492f4     BaseEngine.obj
 0002:0001230c       ??_R4DisplayableObject@@6B@ 0044930c     DisplayableObject.obj
 0002:00012324       ??_R4RunningState@@6B@     00449324     PauseState.obj
 0002:0001233c       ??_R3RunningState@@8       0044933c     PauseState.obj
 0002:00012350       ??_R2RunningState@@8       00449350     PauseState.obj
 0002:0001235c       ??_R1A@?0A@EA@RunningState@@8 0044935c     PauseState.obj
 0002:00012380       ??_R4PauseState@@6B@       00449380     RunningState.obj
 0002:00012398       ??_R3PauseState@@8         00449398     RunningState.obj
 0002:000123ac       ??_R2PauseState@@8         004493ac     RunningState.obj
 0002:000123b8       ??_R1A@?0A@EA@PauseState@@8 004493b8     RunningState.obj
 0002:000123dc       ??_R4?$basic_filebuf@DU?$char_traits@D@std@@@std@@6B@ 004493dc     GameEngine.obj
 0002:000123f4       ??_R3?$basic_filebuf@DU?$char_traits@D@std@@@std@@8 004493f4     GameEngine.obj
 0002:00012408       ??_R2?$basic_filebuf@DU?$char_traits@D@std@@@std@@8 00449408     GameEngine.obj
 0002:00012414       ??_R1A@?0A@EA@?$basic_filebuf@DU?$char_traits@D@std@@@std@@8 00449414     GameEngine.obj
 0002:00012438       ??_R1A@?0A@EA@?$basic_streambuf@DU?$char_traits@D@std@@@std@@8 00449438     GameEngine.obj
 0002:0001245c       ??_R3?$basic_streambuf@DU?$char_traits@D@std@@@std@@8 0044945c     GameEngine.obj
 0002:00012470       ??_R2?$basic_streambuf@DU?$char_traits@D@std@@@std@@8 00449470     GameEngine.obj
 0002:00012478       ??_R4?$basic_fstream@DU?$char_traits@D@std@@@std@@6B@ 00449478     GameEngine.obj
 0002:00012490       ??_R3?$basic_fstream@DU?$char_traits@D@std@@@std@@8 00449490     GameEngine.obj
 0002:000124a4       ??_R2?$basic_fstream@DU?$char_traits@D@std@@@std@@8 004494a4     GameEngine.obj
 0002:000124d8       ??_R1A@?0A@EA@?$basic_fstream@DU?$char_traits@D@std@@@std@@8 004494d8     GameEngine.obj
 0002:000124fc       ??_R1A@?0A@EA@?$basic_iostream@DU?$char_traits@D@std@@@std@@8 004494fc     GameEngine.obj
 0002:00012520       ??_R3?$basic_iostream@DU?$char_traits@D@std@@@std@@8 00449520     GameEngine.obj
 0002:00012534       ??_R2?$basic_iostream@DU?$char_traits@D@std@@@std@@8 00449534     GameEngine.obj
 0002:00012560       ??_R1A@?0A@EA@?$basic_istream@DU?$char_traits@D@std@@@std@@8 00449560     GameEngine.obj
 0002:00012584       ??_R3?$basic_istream@DU?$char_traits@D@std@@@std@@8 00449584     GameEngine.obj
 0002:00012598       ??_R2?$basic_istream@DU?$char_traits@D@std@@@std@@8 00449598     GameEngine.obj
 0002:000125ac       ??_R1A@A@3FA@?$basic_ios@DU?$char_traits@D@std@@@std@@8 004495ac     GameEngine.obj
 0002:000125d0       ??_R3?$basic_ios@DU?$char_traits@D@std@@@std@@8 004495d0     GameEngine.obj
 0002:000125e4       ??_R2?$basic_ios@DU?$char_traits@D@std@@@std@@8 004495e4     GameEngine.obj
 0002:000125f4       ??_R1A@?0A@EA@?$basic_ios@DU?$char_traits@D@std@@@std@@8 004495f4     GameEngine.obj
 0002:00012618       ??_R1A@?0A@EA@ios_base@std@@8 00449618     GameEngine.obj
 0002:0001263c       ??_R3ios_base@std@@8       0044963c     GameEngine.obj
 0002:00012650       ??_R2ios_base@std@@8       00449650     GameEngine.obj
 0002:0001265c       ??_R17?0A@EA@?$_Iosb@H@std@@8 0044965c     GameEngine.obj
 0002:00012680       ??_R3?$_Iosb@H@std@@8      00449680     GameEngine.obj
 0002:00012694       ??_R2?$_Iosb@H@std@@8      00449694     GameEngine.obj
 0002:0001269c       ??_R1A@?0A@EA@?$_Iosb@H@std@@8 0044969c     GameEngine.obj
 0002:000126c0       ??_R1A@A@3EA@ios_base@std@@8 004496c0     GameEngine.obj
 0002:000126e4       ??_R17A@3EA@?$_Iosb@H@std@@8 004496e4     GameEngine.obj
 0002:00012708       ??_R1BA@?0A@EA@?$basic_ostream@DU?$char_traits@D@std@@@std@@8 00449708     GameEngine.obj
 0002:0001272c       ??_R3?$basic_ostream@DU?$char_traits@D@std@@@std@@8 0044972c     GameEngine.obj
 0002:00012740       ??_R2?$basic_ostream@DU?$char_traits@D@std@@@std@@8 00449740     GameEngine.obj
 0002:00012754       ??_R1A@?0A@EA@?$basic_ostream@DU?$char_traits@D@std@@@std@@8 00449754     GameEngine.obj
 0002:00012778       ??_R4bad_cast@std@@6B@     00449778     GameEngine.obj
 0002:00012790       ??_R3bad_cast@std@@8       00449790     GameEngine.obj
 0002:000127a4       ??_R2bad_cast@std@@8       004497a4     GameEngine.obj
 0002:000127b0       ??_R1A@?0A@EA@bad_cast@std@@8 004497b0     GameEngine.obj
 0002:000127d4       ??_R4CoordinateMapping@@6B@ 004497d4     GameEngine.obj
 0002:000127ec       ??_R3CoordinateMapping@@8  004497ec     GameEngine.obj
 0002:00012800       ??_R2CoordinateMapping@@8  00449800     GameEngine.obj
 0002:00012808       ??_R1A@?0A@EA@CoordinateMapping@@8 00449808     GameEngine.obj
 0002:0001282c       ??_R4GameEngine@@6BDisplayableObjectContainer@@@ 0044982c     GameEngine.obj
 0002:00012844       ??_R3GameEngine@@8         00449844     GameEngine.obj
 0002:00012858       ??_R2GameEngine@@8         00449858     GameEngine.obj
 0002:00012874       ??_R1A@?0A@EA@GameEngine@@8 00449874     GameEngine.obj
 0002:00012898       ??_R1BAI@?0A@EA@CoordinateMapping@@8 00449898     GameEngine.obj
 0002:000128bc       ??_R4GameEngine@@6BFilterPoints@@@ 004498bc     GameEngine.obj
 0002:000128d4       ??_R4GameEngine@@6B@       004498d4     GameEngine.obj
 0002:000128ec       ??_R4FilterPointsScaling@@6B@ 004498ec     GameEngine.obj
 0002:00012904       ??_R3FilterPointsScaling@@8 00449904     GameEngine.obj
 0002:00012918       ??_R2FilterPointsScaling@@8 00449918     GameEngine.obj
 0002:00012924       ??_R1A@?0A@EA@FilterPointsScaling@@8 00449924     GameEngine.obj
 0002:00012948       ??_R4FilterPointsTranslation@@6B@ 00449948     GameEngine.obj
 0002:00012960       ??_R3FilterPointsTranslation@@8 00449960     GameEngine.obj
 0002:00012974       ??_R2FilterPointsTranslation@@8 00449974     GameEngine.obj
 0002:00012980       ??_R1A@?0A@EA@FilterPointsTranslation@@8 00449980     GameEngine.obj
 0002:000129a4       ??_R4DragableBaseClassObject@@6B@ 004499a4     GameEngine.obj
 0002:000129bc       ??_R3DragableBaseClassObject@@8 004499bc     GameEngine.obj
 0002:000129d0       ??_R2DragableBaseClassObject@@8 004499d0     GameEngine.obj
 0002:000129dc       ??_R1A@?0A@EA@DragableBaseClassObject@@8 004499dc     GameEngine.obj
 0002:00012a00       ??_R4DragableImageObject@@6B@ 00449a00     GameEngine.obj
 0002:00012a18       ??_R3DragableImageObject@@8 00449a18     GameEngine.obj
 0002:00012a2c       ??_R2DragableImageObject@@8 00449a2c     GameEngine.obj
 0002:00012a3c       ??_R1A@?0A@EA@DragableImageObject@@8 00449a3c     GameEngine.obj
 0002:00012a60       ??_R4MappableImageObject@@6B@ 00449a60     GameEngine.obj
 0002:00012a78       ??_R3MappableImageObject@@8 00449a78     GameEngine.obj
 0002:00012a8c       ??_R2MappableImageObject@@8 00449a8c     GameEngine.obj
 0002:00012aa0       ??_R1A@?0A@EA@MappableImageObject@@8 00449aa0     GameEngine.obj
 0002:00012ac4       ??_R4GameMainObject@@6B@   00449ac4     GameMainObject.obj
 0002:00012adc       ??_R3GameMainObject@@8     00449adc     GameMainObject.obj
 0002:00012af0       ??_R2GameMainObject@@8     00449af0     GameMainObject.obj
 0002:00012afc       ??_R1A@?0A@EA@GameMainObject@@8 00449afc     GameMainObject.obj
 0002:00012b20       ??_R4EndState@@6B@         00449b20     GameMainObject.obj
 0002:00012b38       ??_R3EndState@@8           00449b38     GameMainObject.obj
 0002:00012b4c       ??_R2EndState@@8           00449b4c     GameMainObject.obj
 0002:00012b58       ??_R1A@?0A@EA@EndState@@8  00449b58     GameMainObject.obj
 0002:00012b7c       ??_R4TileManager@@6B@      00449b7c     AdvancedTileManager.obj
 0002:00012b94       ??_R3TileManager@@8        00449b94     AdvancedTileManager.obj
 0002:00012ba8       ??_R2TileManager@@8        00449ba8     AdvancedTileManager.obj
 0002:00012bb0       ??_R1A@?0A@EA@TileManager@@8 00449bb0     AdvancedTileManager.obj
 0002:00012bd4       ??_R4AdvancedTileManager@@6B@ 00449bd4     AdvancedTileManager.obj
 0002:00012bec       ??_R3AdvancedTileManager@@8 00449bec     AdvancedTileManager.obj
 0002:00012c00       ??_R2AdvancedTileManager@@8 00449c00     AdvancedTileManager.obj
 0002:00012c0c       ??_R1A@?0A@EA@AdvancedTileManager@@8 00449c0c     AdvancedTileManager.obj
 0002:00012c30       ??_R4CroppedCoordinateMapping@@6B@ 00449c30     SimpleImage.obj
 0002:00012c48       ??_R3CroppedCoordinateMapping@@8 00449c48     SimpleImage.obj
 0002:00012c5c       ??_R2CroppedCoordinateMapping@@8 00449c5c     SimpleImage.obj
 0002:00012c68       ??_R1A@?0A@EA@CroppedCoordinateMapping@@8 00449c68     SimpleImage.obj
 0002:00012c8c       ??_R4SelectState@@6B@      00449c8c     StartState.obj
 0002:00012ca4       ??_R3SelectState@@8        00449ca4     StartState.obj
 0002:00012cb8       ??_R2SelectState@@8        00449cb8     StartState.obj
 0002:00012cc4       ??_R1A@?0A@EA@SelectState@@8 00449cc4     StartState.obj
 0002:00012ce8       ??_R4HelpState@@6B@        00449ce8     StartState.obj
 0002:00012d00       ??_R3HelpState@@8          00449d00     StartState.obj
 0002:00012d14       ??_R2HelpState@@8          00449d14     StartState.obj
 0002:00012d20       ??_R1A@?0A@EA@HelpState@@8 00449d20     StartState.obj
 0002:00012d44       ??_R4type_info@@6B@        00449d44     MSVCRTD:std_type_info_static.obj
 0002:00012d5c       ??_R3type_info@@8          00449d5c     MSVCRTD:std_type_info_static.obj
 0002:00012d70       ??_R2type_info@@8          00449d70     MSVCRTD:std_type_info_static.obj
 0002:00012d78       ??_R1A@?0A@EA@type_info@@8 00449d78     MSVCRTD:std_type_info_static.obj
 0002:00012f08       ___safe_se_handler_table   00449f08     <linker-defined>
 0002:000133a8       ___rtc_iaa                 0044a3a8     MSVCRTD:initsect.obj
 0002:000134ac       ___rtc_izz                 0044a4ac     MSVCRTD:initsect.obj
 0002:000135b0       ___rtc_taa                 0044a5b0     MSVCRTD:initsect.obj
 0002:000136b4       ___rtc_tzz                 0044a6b4     MSVCRTD:initsect.obj
 0002:000142b4       __TI3?AVbad_array_new_length@std@@ 0044b2b4     Boss.obj
 0002:000142c8       __CTA3?AVbad_array_new_length@std@@ 0044b2c8     Boss.obj
 0002:000142dc       __CT??_R0?AVbad_array_new_length@std@@@8??0bad_array_new_length@std@@QAE@ABV01@@Z12 0044b2dc     Boss.obj
 0002:000142fc       __CT??_R0?AVbad_alloc@std@@@8??0bad_alloc@std@@QAE@ABV01@@Z12 0044b2fc     Boss.obj
 0002:0001431c       __CT??_R0?AVexception@std@@@8??0exception@std@@QAE@ABV01@@Z12 0044b31c     Boss.obj
 0002:00014fe8       __TI2?AVbad_cast@std@@     0044bfe8     GameEngine.obj
 0002:00014ffc       __CTA2?AVbad_cast@std@@    0044bffc     GameEngine.obj
 0002:0001500c       __CT??_R0?AVbad_cast@std@@@8??0bad_cast@std@@QAE@ABV01@@Z12 0044c00c     GameEngine.obj
 0002:00015240       __TI2?AVbad_alloc@std@@    0044c240     MSVCRTD:throw_bad_alloc.obj
 0002:00015254       __CTA2?AVbad_alloc@std@@   0044c254     MSVCRTD:throw_bad_alloc.obj
 0003:00000008       ___security_cookie_complement 0044d008     MSVCRTD:gs_cookie.obj
 0003:0000000c       ___security_cookie         0044d00c     MSVCRTD:gs_cookie.obj
 0003:00000014       __fltused                  0044d014     MSVCRTD:fltused.obj
 0003:00000018       ___scrt_native_dllmain_reason 0044d018     MSVCRTD:utility.obj
 0003:0000001c       ___scrt_default_matherr    0044d01c     MSVCRTD:matherr.obj
 0003:00000020       ___isa_enabled             0044d020     MSVCRTD:cpu_disp.obj
 0003:00000024       ___scrt_ucrt_dll_is_in_use 0044d024     MSVCRTD:ucrt_stubs.obj
 0003:00000130       ??_R0?AVAutomatedObject@@@8 0044d130     AutomatedObject.obj
 0003:00000154       ??_R0?AVDisplayableObject@@@8 0044d154     AutomatedObject.obj
 0003:0000017c       ??_R0?AVbad_array_new_length@std@@@8 0044d17c     Boss.obj
 0003:000001ac       ??_R0?AVbad_alloc@std@@@8  0044d1ac     Boss.obj
 0003:000001d0       ??_R0?AVexception@std@@@8  0044d1d0     Boss.obj
 0003:000001f4       ??_R0?AVGameMainObject@@@8 0044d1f4     Boss.obj
 0003:00000218       ??_R0?AV_Ref_count_base@std@@@8 0044d218     Boss.obj
 0003:00000240       ??_R0?AVBoss@@@8           0044d240     Boss.obj
 0003:00000258       ??_R0?AV?$_Ref_count@VRawImageData@@@std@@@8 0044d258     Boss.obj
 0003:00000290       ??_R0?AVGuard@@@8          0044d290     Bullet.obj
 0003:000002a8       ??_R0?AVBullet@@@8         0044d2a8     Bullet.obj
 0003:000002c4       ??_R0?AVBaseState@@@8      0044d2c4     EndState.obj
 0003:000002e0       ??_R0?AVStartState@@@8     0044d2e0     EndState.obj
 0003:00000300       ??_R0?AVBaseEngine@@@8     0044d300     BaseEngine.obj
 0003:00000320       ??_R0?AVDisplayableObjectContainer@@@8 0044d320     BaseEngine.obj
 0003:00000354       ??_R0?AVFilterPoints@@@8   0044d354     BaseEngine.obj
 0003:00000374       ??_R0?AVRunningState@@@8   0044d374     PauseState.obj
 0003:00000394       ??_R0?AVPauseState@@@8     0044d394     RunningState.obj
 0003:000003b4       ??_R0?AVbad_cast@std@@@8   0044d3b4     GameEngine.obj
 0003:000003d4       ??_R0?AVMappableImageObject@@@8 0044d3d4     GameEngine.obj
 0003:000003fc       ??_R0?AV?$basic_filebuf@DU?$char_traits@D@std@@@std@@@8 0044d3fc     GameEngine.obj
 0003:00000444       ??_R0?AV?$basic_streambuf@DU?$char_traits@D@std@@@std@@@8 0044d444     GameEngine.obj
 0003:0000048c       ??_R0?AV?$basic_fstream@DU?$char_traits@D@std@@@std@@@8 0044d48c     GameEngine.obj
 0003:000004d4       ??_R0?AV?$basic_iostream@DU?$char_traits@D@std@@@std@@@8 0044d4d4     GameEngine.obj
 0003:0000051c       ??_R0?AV?$basic_istream@DU?$char_traits@D@std@@@std@@@8 0044d51c     GameEngine.obj
 0003:00000564       ??_R0?AV?$basic_ios@DU?$char_traits@D@std@@@std@@@8 0044d564     GameEngine.obj
 0003:000005a4       ??_R0?AVios_base@std@@@8   0044d5a4     GameEngine.obj
 0003:000005c4       ??_R0?AV?$_Iosb@H@std@@@8  0044d5c4     GameEngine.obj
 0003:000005e8       ??_R0?AV?$basic_ostream@DU?$char_traits@D@std@@@std@@@8 0044d5e8     GameEngine.obj
 0003:00000630       ??_R0?AVCoordinateMapping@@@8 0044d630     GameEngine.obj
 0003:00000658       ??_R0?AVGameEngine@@@8     0044d658     GameEngine.obj
 0003:00000678       ??_R0?AVFilterPointsScaling@@@8 0044d678     GameEngine.obj
 0003:000006a0       ??_R0?AVFilterPointsTranslation@@@8 0044d6a0     GameEngine.obj
 0003:000006d0       ??_R0?AVDragableBaseClassObject@@@8 0044d6d0     GameEngine.obj
 0003:00000700       ??_R0?AVDragableImageObject@@@8 0044d700     GameEngine.obj
 0003:00000728       ??_R0?AVEndState@@@8       0044d728     GameMainObject.obj
 0003:00000744       ??_R0?AVTileManager@@@8    0044d744     AdvancedTileManager.obj
 0003:00000764       ??_R0?AVAdvancedTileManager@@@8 0044d764     AdvancedTileManager.obj
 0003:0000078c       ??_R0?AVCroppedCoordinateMapping@@@8 0044d78c     SimpleImage.obj
 0003:000007bc       ??_R0?AVSelectState@@@8    0044d7bc     StartState.obj
 0003:000007dc       ??_R0?AVHelpState@@@8      0044d7dc     StartState.obj
 0003:000007f8       ??_R0?AVtype_info@@@8      0044d7f8     MSVCRTD:std_type_info_static.obj
 0003:00000938       ?_OptionsStorage@?1??__local_stdio_printf_options@@9@4_KA 0044d938     Boss.obj
 0003:00000944       ?_Stinit@?1??_Init@?$basic_filebuf@DU?$char_traits@D@std@@@std@@IAEXPAU_iobuf@@W4_Initfl@23@@Z@4U_Mbstatet@@A 0044d944     GameEngine.obj
 0003:00000950       ?_Psave@?$_Facetptr@V?$ctype@D@std@@@std@@2PBVfacet@locale@2@B 0044d950     GameEngine.obj
 0003:00000954       ?_Psave@?$_Facetptr@V?$codecvt@DDU_Mbstatet@@@std@@@std@@2PBVfacet@locale@2@B 0044d954     GameEngine.obj
 0003:00000958       ?g_pManager@ImageManager@@0PAV1@A 0044d958     SimpleImage.obj
 0003:00000960       ___scrt_current_native_startup_state 0044d960     MSVCRTD:utility.obj
 0003:00000964       ___scrt_native_startup_lock 0044d964     MSVCRTD:utility.obj
 0003:00000990       ?__type_info_root_node@@3U__type_info_node@@A 0044d990     MSVCRTD:tncleanup.obj
 0003:000009a0       ?_OptionsStorage@?1??__local_stdio_scanf_options@@9@4_KA 0044d9a0     MSVCRTD:default_local_stdio_options.obj
 0003:000009ac       ___scrt_debugger_hook_flag 0044d9ac     MSVCRTD:utility_desktop.obj
 0003:00000d6c       ___isa_available           0044dd6c     MSVCRTD:cpu_disp.obj
 0003:00000d70       ___favor                   0044dd70     MSVCRTD:cpu_disp.obj
 0003:00000d78       ___dyn_tls_dtor_callback   0044dd78     <common>
 0003:00000d84       ___dyn_tls_init_callback   0044dd84     <common>
 0004:00000000       __imp__QueryPerformanceCounter@4 0044e000     kernel32:KERNEL32.dll
 0004:00000004       __imp__GetCurrentProcessId@0 0044e004     kernel32:KERNEL32.dll
 0004:00000008       __imp__GetCurrentThreadId@0 0044e008     kernel32:KERNEL32.dll
 0004:0000000c       __imp__GetSystemTimeAsFileTime@4 0044e00c     kernel32:KERNEL32.dll
 0004:00000010       __imp__InitializeSListHead@4 0044e010     kernel32:KERNEL32.dll
 0004:00000014       __imp__IsDebuggerPresent@0 0044e014     kernel32:KERNEL32.dll
 0004:00000018       __imp__UnhandledExceptionFilter@4 0044e018     kernel32:KERNEL32.dll
 0004:0000001c       __imp__SetUnhandledExceptionFilter@4 0044e01c     kernel32:KERNEL32.dll
 0004:00000020       __imp__GetStartupInfoW@4   0044e020     kernel32:KERNEL32.dll
 0004:00000024       __imp__GetModuleHandleW@4  0044e024     kernel32:KERNEL32.dll
 0004:00000028       __imp__GetCurrentProcess@0 0044e028     kernel32:KERNEL32.dll
 0004:0000002c       __imp__TerminateProcess@8  0044e02c     kernel32:KERNEL32.dll
 0004:00000030       __imp__GetCommandLineW@0   0044e030     kernel32:KERNEL32.dll
 0004:00000034       __imp__VirtualAlloc@16     0044e034     kernel32:KERNEL32.dll
 0004:00000038       __imp__VirtualFree@12      0044e038     kernel32:KERNEL32.dll
 0004:0000003c       __imp__WideCharToMultiByte@32 0044e03c     kernel32:KERNEL32.dll
 0004:00000040       __imp__IsProcessorFeaturePresent@4 0044e040     kernel32:KERNEL32.dll
 0004:00000044       \177KERNEL32_NULL_THUNK_DATA 0044e044     kernel32:KERNEL32.dll
 0004:0000007c       __imp_??0?$basic_ios@DU?$char_traits@D@std@@@std@@IAE@XZ 0044e07c     msvcprtd:MSVCP140D.dll
 0004:00000080       __imp_?_Ipfx@?$basic_istream@DU?$char_traits@D@std@@@std@@QAE_N_N@Z 0044e080     msvcprtd:MSVCP140D.dll
 0004:00000084       __imp_??1?$basic_ios@DU?$char_traits@D@std@@@std@@UAE@XZ 0044e084     msvcprtd:MSVCP140D.dll
 0004:00000088       __imp_?xsputn@?$basic_streambuf@DU?$char_traits@D@std@@@std@@MAE_JPBD_J@Z 0044e088     msvcprtd:MSVCP140D.dll
 0004:0000008c       __imp_?xsgetn@?$basic_streambuf@DU?$char_traits@D@std@@@std@@MAE_JPAD_J@Z 0044e08c     msvcprtd:MSVCP140D.dll
 0004:00000090       __imp_?_Init@?$basic_streambuf@DU?$char_traits@D@std@@@std@@IAEXPAPAD0PAH001@Z 0044e090     msvcprtd:MSVCP140D.dll
 0004:00000094       __imp_?_Init@?$basic_streambuf@DU?$char_traits@D@std@@@std@@IAEXXZ 0044e094     msvcprtd:MSVCP140D.dll
 0004:00000098       __imp_?_Pnavail@?$basic_streambuf@DU?$char_traits@D@std@@@std@@IBE_JXZ 0044e098     msvcprtd:MSVCP140D.dll
 0004:0000009c       __imp_?_Pninc@?$basic_streambuf@DU?$char_traits@D@std@@@std@@IAEPADXZ 0044e09c     msvcprtd:MSVCP140D.dll
 0004:000000a0       __imp_?pbump@?$basic_streambuf@DU?$char_traits@D@std@@@std@@IAEXH@Z 0044e0a0     msvcprtd:MSVCP140D.dll
 0004:000000a4       __imp_?_Gnavail@?$basic_streambuf@DU?$char_traits@D@std@@@std@@IBE_JXZ 0044e0a4     msvcprtd:MSVCP140D.dll
 0004:000000a8       __imp_??6?$basic_ostream@DU?$char_traits@D@std@@@std@@QAEAAV01@H@Z 0044e0a8     msvcprtd:MSVCP140D.dll
 0004:000000ac       __imp_??5?$basic_istream@DU?$char_traits@D@std@@@std@@QAEAAV01@AAH@Z 0044e0ac     msvcprtd:MSVCP140D.dll
 0004:000000b0       __imp_??0?$basic_iostream@DU?$char_traits@D@std@@@std@@QAE@PAV?$basic_streambuf@DU?$char_traits@D@std@@@1@@Z 0044e0b0     msvcprtd:MSVCP140D.dll
 0004:000000b4       __imp_??1?$basic_iostream@DU?$char_traits@D@std@@@std@@UAE@XZ 0044e0b4     msvcprtd:MSVCP140D.dll
 0004:000000b8       __imp_?_Fiopen@std@@YAPAU_iobuf@@PBDHH@Z 0044e0b8     msvcprtd:MSVCP140D.dll
 0004:000000bc       __imp_?id@?$ctype@D@std@@2V0locale@2@A 0044e0bc     msvcprtd:MSVCP140D.dll
 0004:000000c0       __imp_?id@?$codecvt@DDU_Mbstatet@@@std@@2V0locale@2@A 0044e0c0     msvcprtd:MSVCP140D.dll
 0004:000000c4       __imp_?_Xbad_alloc@std@@YAXXZ 0044e0c4     msvcprtd:MSVCP140D.dll
 0004:000000c8       __imp_?clear@?$basic_ios@DU?$char_traits@D@std@@@std@@QAEXH_N@Z 0044e0c8     msvcprtd:MSVCP140D.dll
 0004:000000cc       __imp_??0_Lockit@std@@QAE@H@Z 0044e0cc     msvcprtd:MSVCP140D.dll
 0004:000000d0       __imp_??1_Lockit@std@@QAE@XZ 0044e0d0     msvcprtd:MSVCP140D.dll
 0004:000000d4       __imp_?_Xlength_error@std@@YAXPBD@Z 0044e0d4     msvcprtd:MSVCP140D.dll
 0004:000000d8       __imp_?uncaught_exception@std@@YA_NXZ 0044e0d8     msvcprtd:MSVCP140D.dll
 0004:000000dc       __imp_?good@ios_base@std@@QBE_NXZ 0044e0dc     msvcprtd:MSVCP140D.dll
 0004:000000e0       __imp_?flags@ios_base@std@@QBEHXZ 0044e0e0     msvcprtd:MSVCP140D.dll
 0004:000000e4       __imp_?width@ios_base@std@@QBE_JXZ 0044e0e4     msvcprtd:MSVCP140D.dll
 0004:000000e8       __imp_?width@ios_base@std@@QAE_J_J@Z 0044e0e8     msvcprtd:MSVCP140D.dll
 0004:000000ec       __imp_?sputc@?$basic_streambuf@DU?$char_traits@D@std@@@std@@QAEHD@Z 0044e0ec     msvcprtd:MSVCP140D.dll
 0004:000000f0       __imp_?sputn@?$basic_streambuf@DU?$char_traits@D@std@@@std@@QAE_JPBD_J@Z 0044e0f0     msvcprtd:MSVCP140D.dll
 0004:000000f4       __imp_?setstate@?$basic_ios@DU?$char_traits@D@std@@@std@@QAEXH_N@Z 0044e0f4     msvcprtd:MSVCP140D.dll
 0004:000000f8       __imp_?tie@?$basic_ios@DU?$char_traits@D@std@@@std@@QBEPAV?$basic_ostream@DU?$char_traits@D@std@@@2@XZ 0044e0f8     msvcprtd:MSVCP140D.dll
 0004:000000fc       __imp_?rdbuf@?$basic_ios@DU?$char_traits@D@std@@@std@@QBEPAV?$basic_streambuf@DU?$char_traits@D@std@@@2@XZ 0044e0fc     msvcprtd:MSVCP140D.dll
 0004:00000100       __imp_?fill@?$basic_ios@DU?$char_traits@D@std@@@std@@QBEDXZ 0044e100     msvcprtd:MSVCP140D.dll
 0004:00000104       __imp_?widen@?$basic_ios@DU?$char_traits@D@std@@@std@@QBEDD@Z 0044e104     msvcprtd:MSVCP140D.dll
 0004:00000108       __imp_?_Osfx@?$basic_ostream@DU?$char_traits@D@std@@@std@@QAEXXZ 0044e108     msvcprtd:MSVCP140D.dll
 0004:0000010c       __imp_??6?$basic_ostream@DU?$char_traits@D@std@@@std@@QAEAAV01@P6AAAV01@AAV01@@Z@Z 0044e10c     msvcprtd:MSVCP140D.dll
 0004:00000110       __imp_?put@?$basic_ostream@DU?$char_traits@D@std@@@std@@QAEAAV12@D@Z 0044e110     msvcprtd:MSVCP140D.dll
 0004:00000114       __imp_?flush@?$basic_ostream@DU?$char_traits@D@std@@@std@@QAEAAV12@XZ 0044e114     msvcprtd:MSVCP140D.dll
 0004:00000118       __imp_?cout@std@@3V?$basic_ostream@DU?$char_traits@D@std@@@1@A 0044e118     msvcprtd:MSVCP140D.dll
 0004:0000011c       __imp_?_Xout_of_range@std@@YAXPBD@Z 0044e11c     msvcprtd:MSVCP140D.dll
 0004:00000120       __imp_??Bid@locale@std@@QAEIXZ 0044e120     msvcprtd:MSVCP140D.dll
 0004:00000124       __imp_?_Getgloballocale@locale@std@@CAPAV_Locimp@12@XZ 0044e124     msvcprtd:MSVCP140D.dll
 0004:00000128       __imp_?always_noconv@codecvt_base@std@@QBE_NXZ 0044e128     msvcprtd:MSVCP140D.dll
 0004:0000012c       __imp_?is@?$ctype@D@std@@QBE_NFD@Z 0044e12c     msvcprtd:MSVCP140D.dll
 0004:00000130       __imp_?_Getcat@?$ctype@D@std@@SAIPAPBVfacet@locale@2@PBV42@@Z 0044e130     msvcprtd:MSVCP140D.dll
 0004:00000134       __imp_?in@?$codecvt@DDU_Mbstatet@@@std@@QBEHAAU_Mbstatet@@PBD1AAPBDPAD3AAPAD@Z 0044e134     msvcprtd:MSVCP140D.dll
 0004:00000138       __imp_?out@?$codecvt@DDU_Mbstatet@@@std@@QBEHAAU_Mbstatet@@PBD1AAPBDPAD3AAPAD@Z 0044e138     msvcprtd:MSVCP140D.dll
 0004:0000013c       __imp_?unshift@?$codecvt@DDU_Mbstatet@@@std@@QBEHAAU_Mbstatet@@PAD1AAPAD@Z 0044e13c     msvcprtd:MSVCP140D.dll
 0004:00000140       __imp_?_Getcat@?$codecvt@DDU_Mbstatet@@@std@@SAIPAPBVfacet@locale@2@PBV42@@Z 0044e140     msvcprtd:MSVCP140D.dll
 0004:00000144       __imp_??Bios_base@std@@QBE_NXZ 0044e144     msvcprtd:MSVCP140D.dll
 0004:00000148       __imp_??7ios_base@std@@QBE_NXZ 0044e148     msvcprtd:MSVCP140D.dll
 0004:0000014c       __imp_?getloc@ios_base@std@@QBE?AVlocale@2@XZ 0044e14c     msvcprtd:MSVCP140D.dll
 0004:00000150       __imp_??0?$basic_streambuf@DU?$char_traits@D@std@@@std@@IAE@XZ 0044e150     msvcprtd:MSVCP140D.dll
 0004:00000154       __imp_??1?$basic_streambuf@DU?$char_traits@D@std@@@std@@UAE@XZ 0044e154     msvcprtd:MSVCP140D.dll
 0004:00000158       __imp_?getloc@?$basic_streambuf@DU?$char_traits@D@std@@@std@@QBE?AVlocale@2@XZ 0044e158     msvcprtd:MSVCP140D.dll
 0004:0000015c       __imp_?sbumpc@?$basic_streambuf@DU?$char_traits@D@std@@@std@@QAEHXZ 0044e15c     msvcprtd:MSVCP140D.dll
 0004:00000160       __imp_?sgetc@?$basic_streambuf@DU?$char_traits@D@std@@@std@@QAEHXZ 0044e160     msvcprtd:MSVCP140D.dll
 0004:00000164       __imp_?snextc@?$basic_streambuf@DU?$char_traits@D@std@@@std@@QAEHXZ 0044e164     msvcprtd:MSVCP140D.dll
 0004:00000168       __imp_?eback@?$basic_streambuf@DU?$char_traits@D@std@@@std@@IBEPADXZ 0044e168     msvcprtd:MSVCP140D.dll
 0004:0000016c       __imp_?gptr@?$basic_streambuf@DU?$char_traits@D@std@@@std@@IBEPADXZ 0044e16c     msvcprtd:MSVCP140D.dll
 0004:00000170       __imp_?pptr@?$basic_streambuf@DU?$char_traits@D@std@@@std@@IBEPADXZ 0044e170     msvcprtd:MSVCP140D.dll
 0004:00000174       __imp_?egptr@?$basic_streambuf@DU?$char_traits@D@std@@@std@@IBEPADXZ 0044e174     msvcprtd:MSVCP140D.dll
 0004:00000178       __imp_?gbump@?$basic_streambuf@DU?$char_traits@D@std@@@std@@IAEXH@Z 0044e178     msvcprtd:MSVCP140D.dll
 0004:0000017c       __imp_?setg@?$basic_streambuf@DU?$char_traits@D@std@@@std@@IAEXPAD00@Z 0044e17c     msvcprtd:MSVCP140D.dll
 0004:00000180       __imp_?epptr@?$basic_streambuf@DU?$char_traits@D@std@@@std@@IBEPADXZ 0044e180     msvcprtd:MSVCP140D.dll
 0004:00000184       __imp_?_Gndec@?$basic_streambuf@DU?$char_traits@D@std@@@std@@IAEPADXZ 0044e184     msvcprtd:MSVCP140D.dll
 0004:00000188       __imp_?_Gninc@?$basic_streambuf@DU?$char_traits@D@std@@@std@@IAEPADXZ 0044e188     msvcprtd:MSVCP140D.dll
 0004:0000018c       __imp_?showmanyc@?$basic_streambuf@DU?$char_traits@D@std@@@std@@MAE_JXZ 0044e18c     msvcprtd:MSVCP140D.dll
 0004:00000190       \177MSVCP140D_NULL_THUNK_DATA 0044e190     msvcprtd:MSVCP140D.dll
 0004:000001f0       __imp__SDL_ShowSimpleMessageBox 0044e1f0     SDL2:SDL2.dll
 0004:000001f4       __imp__SDL_CloseAudioDevice 0044e1f4     SDL2:SDL2.dll
 0004:000001f8       __imp__SDL_ClearQueuedAudio 0044e1f8     SDL2:SDL2.dll
 0004:000001fc       __imp__SDL_QueueAudio      0044e1fc     SDL2:SDL2.dll
 0004:00000200       __imp__SDL_FreeWAV         0044e200     SDL2:SDL2.dll
 0004:00000204       __imp__SDL_LoadWAV_RW      0044e204     SDL2:SDL2.dll
 0004:00000208       __imp__SDL_OpenAudioDevice 0044e208     SDL2:SDL2.dll
 0004:0000020c       __imp__SDL_RWFromFile      0044e20c     SDL2:SDL2.dll
 0004:00000210       __imp__SDL_PauseAudioDevice 0044e210     SDL2:SDL2.dll
 0004:00000214       __imp__SDL_SetClipRect     0044e214     SDL2:SDL2.dll
 0004:00000218       __imp__SDL_Init            0044e218     SDL2:SDL2.dll
 0004:0000021c       __imp__SDL_GetTicks        0044e21c     SDL2:SDL2.dll
 0004:00000220       __imp__SDL_RenderPresent   0044e220     SDL2:SDL2.dll
 0004:00000224       __imp__SDL_RenderCopy      0044e224     SDL2:SDL2.dll
 0004:00000228       __imp__SDL_UpdateTexture   0044e228     SDL2:SDL2.dll
 0004:0000022c       __imp__SDL_CreateRGBSurface 0044e22c     SDL2:SDL2.dll
 0004:00000230       __imp__SDL_CreateTexture   0044e230     SDL2:SDL2.dll
 0004:00000234       __imp__SDL_CreateRenderer  0044e234     SDL2:SDL2.dll
 0004:00000238       __imp__SDL_WaitEvent       0044e238     SDL2:SDL2.dll
 0004:0000023c       __imp__SDL_Quit            0044e23c     SDL2:SDL2.dll
 0004:00000240       __imp__SDL_PollEvent       0044e240     SDL2:SDL2.dll
 0004:00000244       __imp__SDL_CreateWindow    0044e244     SDL2:SDL2.dll
 0004:00000248       __imp__SDL_GetError        0044e248     SDL2:SDL2.dll
 0004:0000024c       __imp__SDL_FillRect        0044e24c     SDL2:SDL2.dll
 0004:00000250       __imp__SDL_UnlockSurface   0044e250     SDL2:SDL2.dll
 0004:00000254       __imp__SDL_LockSurface     0044e254     SDL2:SDL2.dll
 0004:00000258       __imp__SDL_UpperBlit       0044e258     SDL2:SDL2.dll
 0004:0000025c       __imp__SDL_FreeSurface     0044e25c     SDL2:SDL2.dll
 0004:00000260       __imp__SDL_UpperBlitScaled 0044e260     SDL2:SDL2.dll
 0004:00000264       __imp__SDL_SetMainReady    0044e264     SDL2:SDL2.dll
 0004:00000268       \177SDL2_NULL_THUNK_DATA   0044e268     SDL2:SDL2.dll
 0004:000002ac       __imp__IMG_Load            0044e2ac     SDL2_image:SDL2_image.dll
 0004:000002b0       \177SDL2_image_NULL_THUNK_DATA 0044e2b0     SDL2_image:SDL2_image.dll
 0004:000002dc       __imp__TTF_CloseFont       0044e2dc     SDL2_ttf:SDL2_ttf.dll
 0004:000002e0       __imp__TTF_OpenFont        0044e2e0     SDL2_ttf:SDL2_ttf.dll
 0004:000002e4       __imp__TTF_Quit            0044e2e4     SDL2_ttf:SDL2_ttf.dll
 0004:000002e8       __imp__TTF_RenderText_Solid 0044e2e8     SDL2_ttf:SDL2_ttf.dll
 0004:000002ec       __imp__TTF_Init            0044e2ec     SDL2_ttf:SDL2_ttf.dll
 0004:000002f0       \177SDL2_ttf_NULL_THUNK_DATA 0044e2f0     SDL2_ttf:SDL2_ttf.dll
 0004:00000320       __imp____current_exception 0044e320     vcruntimed:VCRUNTIME140D.dll
 0004:00000324       __imp____current_exception_context 0044e324     vcruntimed:VCRUNTIME140D.dll
 0004:00000328       __imp___except_handler4_common 0044e328     vcruntimed:VCRUNTIME140D.dll
 0004:0000032c       __imp____std_type_info_destroy_list 0044e32c     vcruntimed:VCRUNTIME140D.dll
 0004:00000330       __imp____CxxFrameHandler3  0044e330     vcruntimed:VCRUNTIME140D.dll
 0004:00000334       __imp__memcmp              0044e334     vcruntimed:VCRUNTIME140D.dll
 0004:00000338       __imp__memcpy              0044e338     vcruntimed:VCRUNTIME140D.dll
 0004:0000033c       __imp__memmove             0044e33c     vcruntimed:VCRUNTIME140D.dll
 0004:00000340       __imp__memset              0044e340     vcruntimed:VCRUNTIME140D.dll
 0004:00000344       __imp____std_exception_copy 0044e344     vcruntimed:VCRUNTIME140D.dll
 0004:00000348       __imp____std_exception_destroy 0044e348     vcruntimed:VCRUNTIME140D.dll
 0004:0000034c       __imp___CxxThrowException@8 0044e34c     vcruntimed:VCRUNTIME140D.dll
 0004:00000350       __imp____RTDynamicCast     0044e350     vcruntimed:VCRUNTIME140D.dll
 0004:00000354       __imp___purecall           0044e354     vcruntimed:VCRUNTIME140D.dll
 0004:00000358       \177VCRUNTIME140D_NULL_THUNK_DATA 0044e358     vcruntimed:VCRUNTIME140D.dll
 0004:0000038c       __imp__fclose              0044e38c     ucrtd:ucrtbased.dll
 0004:00000390       __imp__fflush              0044e390     ucrtd:ucrtbased.dll
 0004:00000394       __imp__fgetc               0044e394     ucrtd:ucrtbased.dll
 0004:00000398       __imp__fgetpos             0044e398     ucrtd:ucrtbased.dll
 0004:0000039c       __imp__fputc               0044e39c     ucrtd:ucrtbased.dll
 0004:000003a0       __imp__fread               0044e3a0     ucrtd:ucrtbased.dll
 0004:000003a4       __imp__fsetpos             0044e3a4     ucrtd:ucrtbased.dll
 0004:000003a8       __imp___fseeki64           0044e3a8     ucrtd:ucrtbased.dll
 0004:000003ac       __imp__fwrite              0044e3ac     ucrtd:ucrtbased.dll
 0004:000003b0       __imp__setvbuf             0044e3b0     ucrtd:ucrtbased.dll
 0004:000003b4       __imp__ungetc              0044e3b4     ucrtd:ucrtbased.dll
 0004:000003b8       __imp___lock_file          0044e3b8     ucrtd:ucrtbased.dll
 0004:000003bc       __imp___unlock_file        0044e3bc     ucrtd:ucrtbased.dll
 0004:000003c0       __imp__exit                0044e3c0     ucrtd:ucrtbased.dll
 0004:000003c4       __imp___free_dbg           0044e3c4     ucrtd:ucrtbased.dll
 0004:000003c8       __imp___malloc_dbg         0044e3c8     ucrtd:ucrtbased.dll
 0004:000003cc       __imp___seh_filter_exe     0044e3cc     ucrtd:ucrtbased.dll
 0004:000003d0       __imp___set_app_type       0044e3d0     ucrtd:ucrtbased.dll
 0004:000003d4       __imp____setusermatherr    0044e3d4     ucrtd:ucrtbased.dll
 0004:000003d8       __imp__perror              0044e3d8     ucrtd:ucrtbased.dll
 0004:000003dc       __imp___initialize_narrow_environment 0044e3dc     ucrtd:ucrtbased.dll
 0004:000003e0       __imp___get_initial_narrow_environment 0044e3e0     ucrtd:ucrtbased.dll
 0004:000003e4       __imp___initterm           0044e3e4     ucrtd:ucrtbased.dll
 0004:000003e8       __imp___initterm_e         0044e3e8     ucrtd:ucrtbased.dll
 0004:000003ec       __imp___exit               0044e3ec     ucrtd:ucrtbased.dll
 0004:000003f0       __imp___set_fmode          0044e3f0     ucrtd:ucrtbased.dll
 0004:000003f4       __imp____p___argc          0044e3f4     ucrtd:ucrtbased.dll
 0004:000003f8       __imp____p___argv          0044e3f8     ucrtd:ucrtbased.dll
 0004:000003fc       __imp___cexit              0044e3fc     ucrtd:ucrtbased.dll
 0004:00000400       __imp___c_exit             0044e400     ucrtd:ucrtbased.dll
 0004:00000404       __imp___register_thread_local_exe_atexit_callback 0044e404     ucrtd:ucrtbased.dll
 0004:00000408       __imp___configthreadlocale 0044e408     ucrtd:ucrtbased.dll
 0004:0000040c       __imp___set_new_mode       0044e40c     ucrtd:ucrtbased.dll
 0004:00000410       __imp____p__commode        0044e410     ucrtd:ucrtbased.dll
 0004:00000414       __imp___callnewh           0044e414     ucrtd:ucrtbased.dll
 0004:00000418       __imp__malloc              0044e418     ucrtd:ucrtbased.dll
 0004:0000041c       __imp___seh_filter_dll     0044e41c     ucrtd:ucrtbased.dll
 0004:00000420       __imp___initialize_onexit_table 0044e420     ucrtd:ucrtbased.dll
 0004:00000424       __imp___register_onexit_function 0044e424     ucrtd:ucrtbased.dll
 0004:00000428       __imp___execute_onexit_table 0044e428     ucrtd:ucrtbased.dll
 0004:0000042c       __imp___crt_atexit         0044e42c     ucrtd:ucrtbased.dll
 0004:00000430       __imp___crt_at_quick_exit  0044e430     ucrtd:ucrtbased.dll
 0004:00000434       __imp___controlfp_s        0044e434     ucrtd:ucrtbased.dll
 0004:00000438       __imp__terminate           0044e438     ucrtd:ucrtbased.dll
 0004:0000043c       __imp___get_stream_buffer_pointers 0044e43c     ucrtd:ucrtbased.dll
 0004:00000440       __imp__sqrt                0044e440     ucrtd:ucrtbased.dll
 0004:00000444       __imp__strcpy              0044e444     ucrtd:ucrtbased.dll
 0004:00000448       __imp__strcmp              0044e448     ucrtd:ucrtbased.dll
 0004:0000044c       __imp__puts                0044e44c     ucrtd:ucrtbased.dll
 0004:00000450       __imp___time64             0044e450     ucrtd:ucrtbased.dll
 0004:00000454       __imp____stdio_common_vsprintf 0044e454     ucrtd:ucrtbased.dll
 0004:00000458       __imp__srand               0044e458     ucrtd:ucrtbased.dll
 0004:0000045c       __imp___CrtDumpMemoryLeaks 0044e45c     ucrtd:ucrtbased.dll
 0004:00000460       __imp__sin                 0044e460     ucrtd:ucrtbased.dll
 0004:00000464       __imp__cos                 0044e464     ucrtd:ucrtbased.dll
 0004:00000468       __imp__atan                0044e468     ucrtd:ucrtbased.dll
 0004:0000046c       __imp__strlen              0044e46c     ucrtd:ucrtbased.dll
 0004:00000470       __imp____stdio_common_vfprintf 0044e470     ucrtd:ucrtbased.dll
 0004:00000474       __imp____acrt_iob_func     0044e474     ucrtd:ucrtbased.dll
 0004:00000478       __imp__rand                0044e478     ucrtd:ucrtbased.dll
 0004:0000047c       __imp___CrtDbgReport       0044e47c     ucrtd:ucrtbased.dll
 0004:00000480       __imp___invalid_parameter  0044e480     ucrtd:ucrtbased.dll
 0004:00000484       __imp___configure_narrow_argv 0044e484     ucrtd:ucrtbased.dll
 0004:00000488       \177ucrtbased_NULL_THUNK_DATA 0044e488     ucrtd:ucrtbased.dll
 0004:000004e4       __IMPORT_DESCRIPTOR_SDL2   0044e4e4     SDL2:SDL2.dll
 0004:000004f8       __IMPORT_DESCRIPTOR_SDL2_image 0044e4f8     SDL2_image:SDL2_image.dll
 0004:0000050c       __IMPORT_DESCRIPTOR_SDL2_ttf 0044e50c     SDL2_ttf:SDL2_ttf.dll
 0004:00000520       __IMPORT_DESCRIPTOR_MSVCP140D 0044e520     msvcprtd:MSVCP140D.dll
 0004:00000534       __IMPORT_DESCRIPTOR_VCRUNTIME140D 0044e534     vcruntimed:VCRUNTIME140D.dll
 0004:00000548       __IMPORT_DESCRIPTOR_ucrtbased 0044e548     ucrtd:ucrtbased.dll
 0004:0000055c       __IMPORT_DESCRIPTOR_KERNEL32 0044e55c     kernel32:KERNEL32.dll
 0004:00000570       __NULL_IMPORT_DESCRIPTOR   0044e570     SDL2:SDL2.dll
 0005:00000000       ___guard_check_icall_fptr  00451000     MSVCRTD:guard_support.obj
 0005:00000004       ___guard_xfg_check_icall_fptr 00451004     MSVCRTD:guard_support.obj

 entry point at        0001:000016c1

 Static symbols

 0002:fffc9000       __catchsym$??$?6U?$char_traits@D@std@@@std@@YAAAV?$basic_ostream@DU?$char_traits@D@std@@@0@AAV10@PBD@Z$3 00400000     AdvancedTileManager.obj
 0002:fffc9000       __catchsym$??$_Insert_string@DU?$char_traits@D@std@@I@std@@YAAAV?$basic_ostream@DU?$char_traits@D@std@@@0@AAV10@QBDI@Z$3 00400000     AdvancedTileManager.obj
 0002:fffc9000       __ehfuncinfo$??$_Deallocate@$07$0A@@std@@YAXPAXI@Z 00400000     AdvancedTileManager.obj
 0002:fffc9000       __ehfuncinfo$??$_Deallocate_plain@V?$allocator@U_Container_proxy@std@@@std@@@std@@YAXAAV?$allocator@U_Container_proxy@std@@@0@QAU_Container_proxy@0@@Z 00400000     AdvancedTileManager.obj
 0002:fffc9000       __ehfuncinfo$??$_Freenode0@V?$allocator@U?$_Tree_node@U?$pair@$$CBV?$basic_string@DU?$char_traits@D@std@@V?$allocator@D@2@@std@@V?$shared_ptr@VRawImageData@@@2@@std@@PAX@std@@@std@@@?$_Tree_node@U?$pair@$$CBV?$basic_string@DU?$char_traits@D@std@@V?$allocator@D@2@@std@@V?$shared_ptr@VRawImageData@@@2@@std@@PAX@std@@SAXAAV?$allocator@U?$_Tree_node@U?$pair@$$CBV?$basic_string@DU?$char_traits@D@std@@V?$allocator@D@2@@std@@V?$shared_ptr@VRawImageData@@@2@@std@@PAX@std@@@1@PAU01@@Z 00400000     AdvancedTileManager.obj
 0002:fffc9000       __ehfuncinfo$??$_Freenode0@V?$allocator@U?$_Tree_node@U?$pair@$$CBV?$basic_string@DU?$char_traits@D@std@@V?$allocator@D@2@@std@@V?$weak_ptr@VRawImageData@@@2@@std@@PAX@std@@@std@@@?$_Tree_node@U?$pair@$$CBV?$basic_string@DU?$char_traits@D@std@@V?$allocator@D@2@@std@@V?$weak_ptr@VRawImageData@@@2@@std@@PAX@std@@SAXAAV?$allocator@U?$_Tree_node@U?$pair@$$CBV?$basic_string@DU?$char_traits@D@std@@V?$allocator@D@2@@std@@V?$weak_ptr@VRawImageData@@@2@@std@@PAX@std@@@1@PAU01@@Z 00400000     AdvancedTileManager.obj
 0002:fffc9000       __ehfuncinfo$??$_Freenode@V?$allocator@U?$_Tree_node@U?$pair@$$CBV?$basic_string@DU?$char_traits@D@std@@V?$allocator@D@2@@std@@V?$shared_ptr@VRawImageData@@@2@@std@@PAX@std@@@std@@@?$_Tree_node@U?$pair@$$CBV?$basic_string@DU?$char_traits@D@std@@V?$allocator@D@2@@std@@V?$shared_ptr@VRawImageData@@@2@@std@@PAX@std@@SAXAAV?$allocator@U?$_Tree_node@U?$pair@$$CBV?$basic_string@DU?$char_traits@D@std@@V?$allocator@D@2@@std@@V?$shared_ptr@VRawImageData@@@2@@std@@PAX@std@@@1@PAU01@@Z 00400000     AdvancedTileManager.obj
 0002:fffc9000       __ehfuncinfo$??$_Freenode@V?$allocator@U?$_Tree_node@U?$pair@$$CBV?$basic_string@DU?$char_traits@D@std@@V?$allocator@D@2@@std@@V?$weak_ptr@VRawImageData@@@2@@std@@PAX@std@@@std@@@?$_Tree_node@U?$pair@$$CBV?$basic_string@DU?$char_traits@D@std@@V?$allocator@D@2@@std@@V?$weak_ptr@VRawImageData@@@2@@std@@PAX@std@@SAXAAV?$allocator@U?$_Tree_node@U?$pair@$$CBV?$basic_string@DU?$char_traits@D@std@@V?$allocator@D@2@@std@@V?$weak_ptr@VRawImageData@@@2@@std@@PAX@std@@@1@PAU01@@Z 00400000     AdvancedTileManager.obj
 0002:fffc9000       __ehfuncinfo$??$erase@V?$_Tree_iterator@V?$_Tree_val@U?$_Tree_simple_types@U?$pair@$$CBV?$basic_string@DU?$char_traits@D@std@@V?$allocator@D@2@@std@@V?$weak_ptr@VRawImageData@@@2@@std@@@std@@@std@@@std@@$0A@@?$_Tree@V?$_Tmap_traits@V?$basic_string@DU?$char_traits@D@std@@V?$allocator@D@2@@std@@V?$weak_ptr@VRawImageData@@@2@U?$less@V?$basic_string@DU?$char_traits@D@std@@V?$allocator@D@2@@std@@@2@V?$allocator@U?$pair@$$CBV?$basic_string@DU?$char_traits@D@std@@V?$allocator@D@2@@std@@V?$weak_ptr@VRawImageData@@@2@@std@@@2@$0A@@std@@@std@@QAE?AV?$_Tree_iterator@V?$_Tree_val@U?$_Tree_simple_types@U?$pair@$$CBV?$basic_string@DU?$char_traits@D@std@@V?$allocator@D@2@@std@@V?$weak_ptr@VRawImageData@@@2@@std@@@std@@@std@@@1@V21@@Z 00400000     AdvancedTileManager.obj
 0002:fffc9000       __ehfuncinfo$??0?$basic_string@DU?$char_traits@D@std@@V?$allocator@D@2@@std@@QAE@$$QAV01@@Z 00400000     AdvancedTileManager.obj
 0002:fffc9000       __ehfuncinfo$??1?$_Alloc_construct_ptr@V?$allocator@U?$_Tree_node@U?$pair@$$CBV?$basic_string@DU?$char_traits@D@std@@V?$allocator@D@2@@std@@V?$shared_ptr@VRawImageData@@@2@@std@@PAX@std@@@std@@@std@@QAE@XZ 00400000     AdvancedTileManager.obj
 0002:fffc9000       __ehfuncinfo$??1?$_Alloc_construct_ptr@V?$allocator@U?$_Tree_node@U?$pair@$$CBV?$basic_string@DU?$char_traits@D@std@@V?$allocator@D@2@@std@@V?$weak_ptr@VRawImageData@@@2@@std@@PAX@std@@@std@@@std@@QAE@XZ 00400000     AdvancedTileManager.obj
 0002:fffc9000       __ehfuncinfo$??1?$_Tree_temp_node@V?$allocator@U?$_Tree_node@U?$pair@$$CBV?$basic_string@DU?$char_traits@D@std@@V?$allocator@D@2@@std@@V?$shared_ptr@VRawImageData@@@2@@std@@PAX@std@@@std@@@std@@QAE@XZ 00400000     AdvancedTileManager.obj
 0002:fffc9000       __ehfuncinfo$??1?$_Tree_temp_node@V?$allocator@U?$_Tree_node@U?$pair@$$CBV?$basic_string@DU?$char_traits@D@std@@V?$allocator@D@2@@std@@V?$weak_ptr@VRawImageData@@@2@@std@@PAX@std@@@std@@@std@@QAE@XZ 00400000     AdvancedTileManager.obj
 0002:fffc9000       __ehfuncinfo$??1RawImageData@@QAE@XZ 00400000     AdvancedTileManager.obj
 0002:fffc9000       __ehfuncinfo$??1_Sentry_base@?$basic_ostream@DU?$char_traits@D@std@@@std@@QAE@XZ 00400000     AdvancedTileManager.obj
 0002:fffc9000       __ehfuncinfo$??1sentry@?$basic_ostream@DU?$char_traits@D@std@@@std@@QAE@XZ 00400000     AdvancedTileManager.obj
 0002:fffc9000       __ehfuncinfo$?_Erase_unchecked@?$_Tree@V?$_Tmap_traits@V?$basic_string@DU?$char_traits@D@std@@V?$allocator@D@2@@std@@V?$weak_ptr@VRawImageData@@@2@U?$less@V?$basic_string@DU?$char_traits@D@std@@V?$allocator@D@2@@std@@@2@V?$allocator@U?$pair@$$CBV?$basic_string@DU?$char_traits@D@std@@V?$allocator@D@2@@std@@V?$weak_ptr@VRawImageData@@@2@@std@@@2@$0A@@std@@@std@@AAEPAU?$_Tree_node@U?$pair@$$CBV?$basic_string@DU?$char_traits@D@std@@V?$allocator@D@2@@std@@V?$weak_ptr@VRawImageData@@@2@@std@@PAX@2@V?$_Tree_unchecked_const_iterator@V?$_Tree_val@U?$_Tree_simple_types@U?$pair@$$CBV?$basic_string@DU?$char_traits@D@std@@V?$allocator@D@2@@std@@V?$weak_ptr@VRawImageData@@@2@@std@@@std@@@std@@U_Iterator_base0@2@@2@@Z 00400000     AdvancedTileManager.obj
 0002:fffc9000       __ehfuncinfo$?_Extract@?$_Tree_val@U?$_Tree_simple_types@U?$pair@$$CBV?$basic_string@DU?$char_traits@D@std@@V?$allocator@D@2@@std@@V?$weak_ptr@VRawImageData@@@2@@std@@@std@@@std@@QAEPAU?$_Tree_node@U?$pair@$$CBV?$basic_string@DU?$char_traits@D@std@@V?$allocator@D@2@@std@@V?$weak_ptr@VRawImageData@@@2@@std@@PAX@2@V?$_Tree_unchecked_const_iterator@V?$_Tree_val@U?$_Tree_simple_types@U?$pair@$$CBV?$basic_string@DU?$char_traits@D@std@@V?$allocator@D@2@@std@@V?$weak_ptr@VRawImageData@@@2@@std@@@std@@@std@@U_Iterator_base0@2@@2@@Z 00400000     AdvancedTileManager.obj
 0002:fffc9000       __ehfuncinfo$?_Take_contents@?$basic_string@DU?$char_traits@D@std@@V?$allocator@D@2@@std@@AAEXAAV12@U?$integral_constant@_N$00@2@@Z 00400000     AdvancedTileManager.obj
 0002:fffc9000       __ehfuncinfo$?_Tidy_deallocate@?$basic_string@DU?$char_traits@D@std@@V?$allocator@D@2@@std@@AAEXXZ 00400000     AdvancedTileManager.obj
 0002:fffc9000       __ehfuncinfo$?getImagePtrbyURL@ImageManager@@QAE?AV?$shared_ptr@VRawImageData@@@std@@V?$basic_string@DU?$char_traits@D@std@@V?$allocator@D@2@@3@_N1@Z 00400000     AdvancedTileManager.obj
 0001:fffff000       __ehhandler$??$_Deallocate@$07$0A@@std@@YAXPAXI@Z 00400000 f   AdvancedTileManager.obj
 0001:fffff000       __ehhandler$??$_Deallocate_plain@V?$allocator@U_Container_proxy@std@@@std@@@std@@YAXAAV?$allocator@U_Container_proxy@std@@@0@QAU_Container_proxy@0@@Z 00400000 f   AdvancedTileManager.obj
 0001:fffff000       __ehhandler$??$_Freenode0@V?$allocator@U?$_Tree_node@U?$pair@$$CBV?$basic_string@DU?$char_traits@D@std@@V?$allocator@D@2@@std@@V?$shared_ptr@VRawImageData@@@2@@std@@PAX@std@@@std@@@?$_Tree_node@U?$pair@$$CBV?$basic_string@DU?$char_traits@D@std@@V?$allocator@D@2@@std@@V?$shared_ptr@VRawImageData@@@2@@std@@PAX@std@@SAXAAV?$allocator@U?$_Tree_node@U?$pair@$$CBV?$basic_string@DU?$char_traits@D@std@@V?$allocator@D@2@@std@@V?$shared_ptr@VRawImageData@@@2@@std@@PAX@std@@@1@PAU01@@Z 00400000 f   AdvancedTileManager.obj
 0001:fffff000       __ehhandler$??$_Freenode0@V?$allocator@U?$_Tree_node@U?$pair@$$CBV?$basic_string@DU?$char_traits@D@std@@V?$allocator@D@2@@std@@V?$weak_ptr@VRawImageData@@@2@@std@@PAX@std@@@std@@@?$_Tree_node@U?$pair@$$CBV?$basic_string@DU?$char_traits@D@std@@V?$allocator@D@2@@std@@V?$weak_ptr@VRawImageData@@@2@@std@@PAX@std@@SAXAAV?$allocator@U?$_Tree_node@U?$pair@$$CBV?$basic_string@DU?$char_traits@D@std@@V?$allocator@D@2@@std@@V?$weak_ptr@VRawImageData@@@2@@std@@PAX@std@@@1@PAU01@@Z 00400000 f   AdvancedTileManager.obj
 0001:fffff000       __ehhandler$??$_Freenode@V?$allocator@U?$_Tree_node@U?$pair@$$CBV?$basic_string@DU?$char_traits@D@std@@V?$allocator@D@2@@std@@V?$shared_ptr@VRawImageData@@@2@@std@@PAX@std@@@std@@@?$_Tree_node@U?$pair@$$CBV?$basic_string@DU?$char_traits@D@std@@V?$allocator@D@2@@std@@V?$shared_ptr@VRawImageData@@@2@@std@@PAX@std@@SAXAAV?$allocator@U?$_Tree_node@U?$pair@$$CBV?$basic_string@DU?$char_traits@D@std@@V?$allocator@D@2@@std@@V?$shared_ptr@VRawImageData@@@2@@std@@PAX@std@@@1@PAU01@@Z 00400000 f   AdvancedTileManager.obj
 0001:fffff000       __ehhandler$??$_Freenode@V?$allocator@U?$_Tree_node@U?$pair@$$CBV?$basic_string@DU?$char_traits@D@std@@V?$allocator@D@2@@std@@V?$weak_ptr@VRawImageData@@@2@@std@@PAX@std@@@std@@@?$_Tree_node@U?$pair@$$CBV?$basic_string@DU?$char_traits@D@std@@V?$allocator@D@2@@std@@V?$weak_ptr@VRawImageData@@@2@@std@@PAX@std@@SAXAAV?$allocator@U?$_Tree_node@U?$pair@$$CBV?$basic_string@DU?$char_traits@D@std@@V?$allocator@D@2@@std@@V?$weak_ptr@VRawImageData@@@2@@std@@PAX@std@@@1@PAU01@@Z 00400000 f   AdvancedTileManager.obj
 0001:fffff000       __ehhandler$??$erase@V?$_Tree_iterator@V?$_Tree_val@U?$_Tree_simple_types@U?$pair@$$CBV?$basic_string@DU?$char_traits@D@std@@V?$allocator@D@2@@std@@V?$weak_ptr@VRawImageData@@@2@@std@@@std@@@std@@@std@@$0A@@?$_Tree@V?$_Tmap_traits@V?$basic_string@DU?$char_traits@D@std@@V?$allocator@D@2@@std@@V?$weak_ptr@VRawImageData@@@2@U?$less@V?$basic_string@DU?$char_traits@D@std@@V?$allocator@D@2@@std@@@2@V?$allocator@U?$pair@$$CBV?$basic_string@DU?$char_traits@D@std@@V?$allocator@D@2@@std@@V?$weak_ptr@VRawImageData@@@2@@std@@@2@$0A@@std@@@std@@QAE?AV?$_Tree_iterator@V?$_Tree_val@U?$_Tree_simple_types@U?$pair@$$CBV?$basic_string@DU?$char_traits@D@std@@V?$allocator@D@2@@std@@V?$weak_ptr@VRawImageData@@@2@@std@@@std@@@std@@@1@V21@@Z 00400000 f   AdvancedTileManager.obj
 0001:fffff000       __ehhandler$??0?$basic_string@DU?$char_traits@D@std@@V?$allocator@D@2@@std@@QAE@$$QAV01@@Z 00400000 f   AdvancedTileManager.obj
 0001:fffff000       __ehhandler$??1?$_Alloc_construct_ptr@V?$allocator@U?$_Tree_node@U?$pair@$$CBV?$basic_string@DU?$char_traits@D@std@@V?$allocator@D@2@@std@@V?$shared_ptr@VRawImageData@@@2@@std@@PAX@std@@@std@@@std@@QAE@XZ 00400000 f   AdvancedTileManager.obj
 0001:fffff000       __ehhandler$??1?$_Alloc_construct_ptr@V?$allocator@U?$_Tree_node@U?$pair@$$CBV?$basic_string@DU?$char_traits@D@std@@V?$allocator@D@2@@std@@V?$weak_ptr@VRawImageData@@@2@@std@@PAX@std@@@std@@@std@@QAE@XZ 00400000 f   AdvancedTileManager.obj
 0001:fffff000       __ehhandler$??1?$_Tree_temp_node@V?$allocator@U?$_Tree_node@U?$pair@$$CBV?$basic_string@DU?$char_traits@D@std@@V?$allocator@D@2@@std@@V?$shared_ptr@VRawImageData@@@2@@std@@PAX@std@@@std@@@std@@QAE@XZ 00400000 f   AdvancedTileManager.obj
 0001:fffff000       __ehhandler$??1?$_Tree_temp_node@V?$allocator@U?$_Tree_node@U?$pair@$$CBV?$basic_string@DU?$char_traits@D@std@@V?$allocator@D@2@@std@@V?$weak_ptr@VRawImageData@@@2@@std@@PAX@std@@@std@@@std@@QAE@XZ 00400000 f   AdvancedTileManager.obj
 0001:fffff000       __ehhandler$??1RawImageData@@QAE@XZ 00400000 f   AdvancedTileManager.obj
 0001:fffff000       __ehhandler$??1_Sentry_base@?$basic_ostream@DU?$char_traits@D@std@@@std@@QAE@XZ 00400000 f   AdvancedTileManager.obj
 0001:fffff000       __ehhandler$??1sentry@?$basic_ostream@DU?$char_traits@D@std@@@std@@QAE@XZ 00400000 f   AdvancedTileManager.obj
 0001:fffff000       __ehhandler$?_Erase_unchecked@?$_Tree@V?$_Tmap_traits@V?$basic_string@DU?$char_traits@D@std@@V?$allocator@D@2@@std@@V?$weak_ptr@VRawImageData@@@2@U?$less@V?$basic_string@DU?$char_traits@D@std@@V?$allocator@D@2@@std@@@2@V?$allocator@U?$pair@$$CBV?$basic_string@DU?$char_traits@D@std@@V?$allocator@D@2@@std@@V?$weak_ptr@VRawImageData@@@2@@std@@@2@$0A@@std@@@std@@AAEPAU?$_Tree_node@U?$pair@$$CBV?$basic_string@DU?$char_traits@D@std@@V?$allocator@D@2@@std@@V?$weak_ptr@VRawImageData@@@2@@std@@PAX@2@V?$_Tree_unchecked_const_iterator@V?$_Tree_val@U?$_Tree_simple_types@U?$pair@$$CBV?$basic_string@DU?$char_traits@D@std@@V?$allocator@D@2@@std@@V?$weak_ptr@VRawImageData@@@2@@std@@@std@@@std@@U_Iterator_base0@2@@2@@Z 00400000 f   AdvancedTileManager.obj
 0001:fffff000       __ehhandler$?_Extract@?$_Tree_val@U?$_Tree_simple_types@U?$pair@$$CBV?$basic_string@DU?$char_traits@D@std@@V?$allocator@D@2@@std@@V?$weak_ptr@VRawImageData@@@2@@std@@@std@@@std@@QAEPAU?$_Tree_node@U?$pair@$$CBV?$basic_string@DU?$char_traits@D@std@@V?$allocator@D@2@@std@@V?$weak_ptr@VRawImageData@@@2@@std@@PAX@2@V?$_Tree_unchecked_const_iterator@V?$_Tree_val@U?$_Tree_simple_types@U?$pair@$$CBV?$basic_string@DU?$char_traits@D@std@@V?$allocator@D@2@@std@@V?$weak_ptr@VRawImageData@@@2@@std@@@std@@@std@@U_Iterator_base0@2@@2@@Z 00400000 f   AdvancedTileManager.obj
 0001:fffff000       __ehhandler$?_Take_contents@?$basic_string@DU?$char_traits@D@std@@V?$allocator@D@2@@std@@AAEXAAV12@U?$integral_constant@_N$00@2@@Z 00400000 f   AdvancedTileManager.obj
 0001:fffff000       __ehhandler$?_Tidy_deallocate@?$basic_string@DU?$char_traits@D@std@@V?$allocator@D@2@@std@@AAEXXZ 00400000 f   AdvancedTileManager.obj
 0001:fffff000       __unwindfunclet$??$?0U?$pair@V?$basic_string@DU?$char_traits@D@std@@V?$allocator@D@2@@std@@V?$shared_ptr@VRawImageData@@@2@@std@@@?$_Tree_temp_node@V?$allocator@U?$_Tree_node@U?$pair@$$CBV?$basic_string@DU?$char_traits@D@std@@V?$allocator@D@2@@std@@V?$shared_ptr@VRawImageData@@@2@@std@@PAX@std@@@std@@@std@@QAE@AAV?$allocator@U?$_Tree_node@U?$pair@$$CBV?$basic_string@DU?$char_traits@D@std@@V?$allocator@D@2@@std@@V?$shared_ptr@VRawImageData@@@2@@std@@PAX@std@@@1@PAU?$_Tree_node@U?$pair@$$CBV?$basic_string@DU?$char_traits@D@std@@V?$allocator@D@2@@std@@V?$shared_ptr@VRawImageData@@@2@@std@@PAX@1@$$QAU?$pair@V?$basic_string@DU?$char_traits@D@std@@V?$allocator@D@2@@std@@V?$shared_ptr@VRawImageData@@@2@@1@@Z$0 00400000 f   AdvancedTileManager.obj
 0001:fffff000       __unwindfunclet$??$?0U?$pair@V?$basic_string@DU?$char_traits@D@std@@V?$allocator@D@2@@std@@V?$weak_ptr@VRawImageData@@@2@@std@@@?$_Tree_temp_node@V?$allocator@U?$_Tree_node@U?$pair@$$CBV?$basic_string@DU?$char_traits@D@std@@V?$allocator@D@2@@std@@V?$weak_ptr@VRawImageData@@@2@@std@@PAX@std@@@std@@@std@@QAE@AAV?$allocator@U?$_Tree_node@U?$pair@$$CBV?$basic_string@DU?$char_traits@D@std@@V?$allocator@D@2@@std@@V?$weak_ptr@VRawImageData@@@2@@std@@PAX@std@@@1@PAU?$_Tree_node@U?$pair@$$CBV?$basic_string@DU?$char_traits@D@std@@V?$allocator@D@2@@std@@V?$weak_ptr@VRawImageData@@@2@@std@@PAX@1@$$QAU?$pair@V?$basic_string@DU?$char_traits@D@std@@V?$allocator@D@2@@std@@V?$weak_ptr@VRawImageData@@@2@@1@@Z$0 00400000 f   AdvancedTileManager.obj
 0001:fffff000       __unwindfunclet$??$?0VRawImageData@@$0A@@?$shared_ptr@VRawImageData@@@std@@QAE@PAVRawImageData@@@Z$0 00400000 f   AdvancedTileManager.obj
 0001:fffff000       __unwindfunclet$??$?6U?$char_traits@D@std@@@std@@YAAAV?$basic_ostream@DU?$char_traits@D@std@@@0@AAV10@PBD@Z$2 00400000 f   AdvancedTileManager.obj
 0001:fffff000       __unwindfunclet$??$_Insert_string@DU?$char_traits@D@std@@I@std@@YAAAV?$basic_ostream@DU?$char_traits@D@std@@@0@AAV10@QBDI@Z$2 00400000 f   AdvancedTileManager.obj
 0001:fffff000       __unwindfunclet$??0?$_Tree_temp_node_alloc@V?$allocator@U?$_Tree_node@U?$pair@$$CBV?$basic_string@DU?$char_traits@D@std@@V?$allocator@D@2@@std@@V?$shared_ptr@VRawImageData@@@2@@std@@PAX@std@@@std@@@std@@QAE@AAV?$allocator@U?$_Tree_node@U?$pair@$$CBV?$basic_string@DU?$char_traits@D@std@@V?$allocator@D@2@@std@@V?$shared_ptr@VRawImageData@@@2@@std@@PAX@std@@@1@@Z$0 00400000 f   AdvancedTileManager.obj
 0001:fffff000       __unwindfunclet$??0?$_Tree_temp_node_alloc@V?$allocator@U?$_Tree_node@U?$pair@$$CBV?$basic_string@DU?$char_traits@D@std@@V?$allocator@D@2@@std@@V?$weak_ptr@VRawImageData@@@2@@std@@PAX@std@@@std@@@std@@QAE@AAV?$allocator@U?$_Tree_node@U?$pair@$$CBV?$basic_string@DU?$char_traits@D@std@@V?$allocator@D@2@@std@@V?$weak_ptr@VRawImageData@@@2@@std@@PAX@std@@@1@@Z$0 00400000 f   AdvancedTileManager.obj
 0001:fffff000       __unwindfunclet$??0?$basic_string@DU?$char_traits@D@std@@V?$allocator@D@2@@std@@QAE@ABV01@@Z$0 00400000 f   AdvancedTileManager.obj
 0001:fffff000       __unwindfunclet$??0?$basic_string@DU?$char_traits@D@std@@V?$allocator@D@2@@std@@QAE@QBD@Z$0 00400000 f   AdvancedTileManager.obj
 0001:fffff000       __unwindfunclet$??0ImageManager@@QAE@XZ$0 00400000 f   AdvancedTileManager.obj
 0001:fffff000       __unwindfunclet$??0RawImageData@@QAE@V?$basic_string@DU?$char_traits@D@std@@V?$allocator@D@2@@std@@@Z$0 00400000 f   AdvancedTileManager.obj
 0001:fffff000       __unwindfunclet$??0sentry@?$basic_ostream@DU?$char_traits@D@std@@@std@@QAE@AAV12@@Z$0 00400000 f   AdvancedTileManager.obj
 0001:fffff000       __unwindfunclet$?_Alloc_sentinel_and_proxy@?$_Tree@V?$_Tmap_traits@V?$basic_string@DU?$char_traits@D@std@@V?$allocator@D@2@@std@@V?$shared_ptr@VRawImageData@@@2@U?$less@V?$basic_string@DU?$char_traits@D@std@@V?$allocator@D@2@@std@@@2@V?$allocator@U?$pair@$$CBV?$basic_string@DU?$char_traits@D@std@@V?$allocator@D@2@@std@@V?$shared_ptr@VRawImageData@@@2@@std@@@2@$0A@@std@@@std@@IAEXXZ$0 00400000 f   AdvancedTileManager.obj
 0001:fffff000       __unwindfunclet$?_Alloc_sentinel_and_proxy@?$_Tree@V?$_Tmap_traits@V?$basic_string@DU?$char_traits@D@std@@V?$allocator@D@2@@std@@V?$weak_ptr@VRawImageData@@@2@U?$less@V?$basic_string@DU?$char_traits@D@std@@V?$allocator@D@2@@std@@@2@V?$allocator@U?$pair@$$CBV?$basic_string@DU?$char_traits@D@std@@V?$allocator@D@2@@std@@V?$weak_ptr@VRawImageData@@@2@@std@@@2@$0A@@std@@@std@@IAEXXZ$0 00400000 f   AdvancedTileManager.obj
 0001:fffff000       __unwindfunclet$?get@ImageManager@@SAPAV1@XZ$0 00400000 f   AdvancedTileManager.obj
 0001:fffff000       __unwindfunclet$?getImagePtrbyURL@ImageManager@@QAE?AV?$shared_ptr@VRawImageData@@@std@@V?$basic_string@DU?$char_traits@D@std@@V?$allocator@D@2@@3@_N1@Z$0 00400000 f   AdvancedTileManager.obj
 0001:fffff000       __unwindfunclet$?getImagebyURL@ImageManager@@QAE?AVSimpleImage@@V?$basic_string@DU?$char_traits@D@std@@V?$allocator@D@2@@std@@_N1@Z$0 00400000 f   AdvancedTileManager.obj
 0001:fffff000       __unwindfunclet$?loadAsNew@ImageManager@@QAE?AV?$shared_ptr@VRawImageData@@@std@@V?$basic_string@DU?$char_traits@D@std@@V?$allocator@D@2@@3@@Z$0 00400000 f   AdvancedTileManager.obj
 0001:fffff000       __unwindfunclet$?loadImage@ImageManager@@SA?AVSimpleImage@@V?$basic_string@DU?$char_traits@D@std@@V?$allocator@D@2@@std@@_N@Z$0 00400000 f   AdvancedTileManager.obj
 0001:fffff000       __unwindfunclet$?loadImage@RawImageData@@QAE_NV?$basic_string@DU?$char_traits@D@std@@V?$allocator@D@2@@std@@HHHHH_N@Z$0 00400000 f   AdvancedTileManager.obj
 0002:fffc9000       __unwindtable$??$?0U?$pair@V?$basic_string@DU?$char_traits@D@std@@V?$allocator@D@2@@std@@V?$shared_ptr@VRawImageData@@@2@@std@@@?$_Tree_temp_node@V?$allocator@U?$_Tree_node@U?$pair@$$CBV?$basic_string@DU?$char_traits@D@std@@V?$allocator@D@2@@std@@V?$shared_ptr@VRawImageData@@@2@@std@@PAX@std@@@std@@@std@@QAE@AAV?$allocator@U?$_Tree_node@U?$pair@$$CBV?$basic_string@DU?$char_traits@D@std@@V?$allocator@D@2@@std@@V?$shared_ptr@VRawImageData@@@2@@std@@PAX@std@@@1@PAU?$_Tree_node@U?$pair@$$CBV?$basic_string@DU?$char_traits@D@std@@V?$allocator@D@2@@std@@V?$shared_ptr@VRawImageData@@@2@@std@@PAX@1@$$QAU?$pair@V?$basic_string@DU?$char_traits@D@std@@V?$allocator@D@2@@std@@V?$shared_ptr@VRawImageData@@@2@@1@@Z 00400000     AdvancedTileManager.obj
 0002:fffc9000       __unwindtable$??$?0U?$pair@V?$basic_string@DU?$char_traits@D@std@@V?$allocator@D@2@@std@@V?$weak_ptr@VRawImageData@@@2@@std@@@?$_Tree_temp_node@V?$allocator@U?$_Tree_node@U?$pair@$$CBV?$basic_string@DU?$char_traits@D@std@@V?$allocator@D@2@@std@@V?$weak_ptr@VRawImageData@@@2@@std@@PAX@std@@@std@@@std@@QAE@AAV?$allocator@U?$_Tree_node@U?$pair@$$CBV?$basic_string@DU?$char_traits@D@std@@V?$allocator@D@2@@std@@V?$weak_ptr@VRawImageData@@@2@@std@@PAX@std@@@1@PAU?$_Tree_node@U?$pair@$$CBV?$basic_string@DU?$char_traits@D@std@@V?$allocator@D@2@@std@@V?$weak_ptr@VRawImageData@@@2@@std@@PAX@1@$$QAU?$pair@V?$basic_string@DU?$char_traits@D@std@@V?$allocator@D@2@@std@@V?$weak_ptr@VRawImageData@@@2@@1@@Z 00400000     AdvancedTileManager.obj
 0002:fffc9000       __unwindtable$??$?0VRawImageData@@$0A@@?$shared_ptr@VRawImageData@@@std@@QAE@PAVRawImageData@@@Z 00400000     AdvancedTileManager.obj
 0002:fffc9000       __unwindtable$??0?$_Tree_temp_node_alloc@V?$allocator@U?$_Tree_node@U?$pair@$$CBV?$basic_string@DU?$char_traits@D@std@@V?$allocator@D@2@@std@@V?$shared_ptr@VRawImageData@@@2@@std@@PAX@std@@@std@@@std@@QAE@AAV?$allocator@U?$_Tree_node@U?$pair@$$CBV?$basic_string@DU?$char_traits@D@std@@V?$allocator@D@2@@std@@V?$shared_ptr@VRawImageData@@@2@@std@@PAX@std@@@1@@Z 00400000     AdvancedTileManager.obj
 0002:fffc9000       __unwindtable$??0?$_Tree_temp_node_alloc@V?$allocator@U?$_Tree_node@U?$pair@$$CBV?$basic_string@DU?$char_traits@D@std@@V?$allocator@D@2@@std@@V?$weak_ptr@VRawImageData@@@2@@std@@PAX@std@@@std@@@std@@QAE@AAV?$allocator@U?$_Tree_node@U?$pair@$$CBV?$basic_string@DU?$char_traits@D@std@@V?$allocator@D@2@@std@@V?$weak_ptr@VRawImageData@@@2@@std@@PAX@std@@@1@@Z 00400000     AdvancedTileManager.obj
 0002:fffc9000       __unwindtable$??0?$basic_string@DU?$char_traits@D@std@@V?$allocator@D@2@@std@@QAE@ABV01@@Z 00400000     AdvancedTileManager.obj
 0002:fffc9000       __unwindtable$??0?$basic_string@DU?$char_traits@D@std@@V?$allocator@D@2@@std@@QAE@QBD@Z 00400000     AdvancedTileManager.obj
 0002:fffc9000       __unwindtable$??0ImageManager@@QAE@XZ 00400000     AdvancedTileManager.obj
 0002:fffc9000       __unwindtable$??0RawImageData@@QAE@V?$basic_string@DU?$char_traits@D@std@@V?$allocator@D@2@@std@@@Z 00400000     AdvancedTileManager.obj
 0002:fffc9000       __unwindtable$??0sentry@?$basic_ostream@DU?$char_traits@D@std@@@std@@QAE@AAV12@@Z 00400000     AdvancedTileManager.obj
 0002:fffc9000       __unwindtable$?_Alloc_sentinel_and_proxy@?$_Tree@V?$_Tmap_traits@V?$basic_string@DU?$char_traits@D@std@@V?$allocator@D@2@@std@@V?$shared_ptr@VRawImageData@@@2@U?$less@V?$basic_string@DU?$char_traits@D@std@@V?$allocator@D@2@@std@@@2@V?$allocator@U?$pair@$$CBV?$basic_string@DU?$char_traits@D@std@@V?$allocator@D@2@@std@@V?$shared_ptr@VRawImageData@@@2@@std@@@2@$0A@@std@@@std@@IAEXXZ 00400000     AdvancedTileManager.obj
 0002:fffc9000       __unwindtable$?_Alloc_sentinel_and_proxy@?$_Tree@V?$_Tmap_traits@V?$basic_string@DU?$char_traits@D@std@@V?$allocator@D@2@@std@@V?$weak_ptr@VRawImageData@@@2@U?$less@V?$basic_string@DU?$char_traits@D@std@@V?$allocator@D@2@@std@@@2@V?$allocator@U?$pair@$$CBV?$basic_string@DU?$char_traits@D@std@@V?$allocator@D@2@@std@@V?$weak_ptr@VRawImageData@@@2@@std@@@2@$0A@@std@@@std@@IAEXXZ 00400000     AdvancedTileManager.obj
 0002:fffc9000       __unwindtable$?get@ImageManager@@SAPAV1@XZ 00400000     AdvancedTileManager.obj
 0002:fffc9000       __unwindtable$?getImagebyURL@ImageManager@@QAE?AVSimpleImage@@V?$basic_string@DU?$char_traits@D@std@@V?$allocator@D@2@@std@@_N1@Z 00400000     AdvancedTileManager.obj
 0002:fffc9000       __unwindtable$?loadAsNew@ImageManager@@QAE?AV?$shared_ptr@VRawImageData@@@std@@V?$basic_string@DU?$char_traits@D@std@@V?$allocator@D@2@@3@@Z 00400000     AdvancedTileManager.obj
 0002:fffc9000       __unwindtable$?loadImage@ImageManager@@SA?AVSimpleImage@@V?$basic_string@DU?$char_traits@D@std@@V?$allocator@D@2@@std@@_N@Z 00400000     AdvancedTileManager.obj
 0002:fffc9000       __unwindtable$?loadImage@RawImageData@@QAE_NV?$basic_string@DU?$char_traits@D@std@@V?$allocator@D@2@@std@@HHHHH_N@Z 00400000     AdvancedTileManager.obj
 0002:fffc9000       __ehfuncinfo$??$_Deallocate@$07$0A@@std@@YAXPAXI@Z 00400000     BaseEngine.obj
 0002:fffc9000       __ehfuncinfo$??$_Deallocate_plain@V?$allocator@U_Container_proxy@std@@@std@@@std@@YAXAAV?$allocator@U_Container_proxy@std@@@0@QAU_Container_proxy@0@@Z 00400000     BaseEngine.obj
 0001:fffff000       __ehhandler$??$_Deallocate@$07$0A@@std@@YAXPAXI@Z 00400000 f   BaseEngine.obj
 0001:fffff000       __ehhandler$??$_Deallocate_plain@V?$allocator@U_Container_proxy@std@@@std@@@std@@YAXAAV?$allocator@U_Container_proxy@std@@@0@QAU_Container_proxy@0@@Z 00400000 f   BaseEngine.obj
 0002:fffc9000       __catchsym$??$?6U?$char_traits@D@std@@@std@@YAAAV?$basic_ostream@DU?$char_traits@D@std@@@0@AAV10@PBD@Z$3 00400000     Bullet.obj
 0002:fffc9000       __catchsym$??$_Insert_string@DU?$char_traits@D@std@@I@std@@YAAAV?$basic_ostream@DU?$char_traits@D@std@@@0@AAV10@QBDI@Z$3 00400000     Bullet.obj
 0002:fffc9000       __ehfuncinfo$??$_Deallocate@$07$0A@@std@@YAXPAXI@Z 00400000     Bullet.obj
 0002:fffc9000       __ehfuncinfo$??$_Deallocate_plain@V?$allocator@U_Container_proxy@std@@@std@@@std@@YAXAAV?$allocator@U_Container_proxy@std@@@0@QAU_Container_proxy@0@@Z 00400000     Bullet.obj
 0002:fffc9000       __ehfuncinfo$??$_Freenode0@V?$allocator@U?$_Tree_node@U?$pair@$$CBV?$basic_string@DU?$char_traits@D@std@@V?$allocator@D@2@@std@@V?$shared_ptr@VRawImageData@@@2@@std@@PAX@std@@@std@@@?$_Tree_node@U?$pair@$$CBV?$basic_string@DU?$char_traits@D@std@@V?$allocator@D@2@@std@@V?$shared_ptr@VRawImageData@@@2@@std@@PAX@std@@SAXAAV?$allocator@U?$_Tree_node@U?$pair@$$CBV?$basic_string@DU?$char_traits@D@std@@V?$allocator@D@2@@std@@V?$shared_ptr@VRawImageData@@@2@@std@@PAX@std@@@1@PAU01@@Z 00400000     Bullet.obj
 0002:fffc9000       __ehfuncinfo$??$_Freenode0@V?$allocator@U?$_Tree_node@U?$pair@$$CBV?$basic_string@DU?$char_traits@D@std@@V?$allocator@D@2@@std@@V?$weak_ptr@VRawImageData@@@2@@std@@PAX@std@@@std@@@?$_Tree_node@U?$pair@$$CBV?$basic_string@DU?$char_traits@D@std@@V?$allocator@D@2@@std@@V?$weak_ptr@VRawImageData@@@2@@std@@PAX@std@@SAXAAV?$allocator@U?$_Tree_node@U?$pair@$$CBV?$basic_string@DU?$char_traits@D@std@@V?$allocator@D@2@@std@@V?$weak_ptr@VRawImageData@@@2@@std@@PAX@std@@@1@PAU01@@Z 00400000     Bullet.obj
 0002:fffc9000       __ehfuncinfo$??$_Freenode@V?$allocator@U?$_Tree_node@U?$pair@$$CBV?$basic_string@DU?$char_traits@D@std@@V?$allocator@D@2@@std@@V?$shared_ptr@VRawImageData@@@2@@std@@PAX@std@@@std@@@?$_Tree_node@U?$pair@$$CBV?$basic_string@DU?$char_traits@D@std@@V?$allocator@D@2@@std@@V?$shared_ptr@VRawImageData@@@2@@std@@PAX@std@@SAXAAV?$allocator@U?$_Tree_node@U?$pair@$$CBV?$basic_string@DU?$char_traits@D@std@@V?$allocator@D@2@@std@@V?$shared_ptr@VRawImageData@@@2@@std@@PAX@std@@@1@PAU01@@Z 00400000     Bullet.obj
 0002:fffc9000       __ehfuncinfo$??$_Freenode@V?$allocator@U?$_Tree_node@U?$pair@$$CBV?$basic_string@DU?$char_traits@D@std@@V?$allocator@D@2@@std@@V?$weak_ptr@VRawImageData@@@2@@std@@PAX@std@@@std@@@?$_Tree_node@U?$pair@$$CBV?$basic_string@DU?$char_traits@D@std@@V?$allocator@D@2@@std@@V?$weak_ptr@VRawImageData@@@2@@std@@PAX@std@@SAXAAV?$allocator@U?$_Tree_node@U?$pair@$$CBV?$basic_string@DU?$char_traits@D@std@@V?$allocator@D@2@@std@@V?$weak_ptr@VRawImageData@@@2@@std@@PAX@std@@@1@PAU01@@Z 00400000     Bullet.obj
 0002:fffc9000       __ehfuncinfo$??$erase@V?$_Tree_iterator@V?$_Tree_val@U?$_Tree_simple_types@U?$pair@$$CBV?$basic_string@DU?$char_traits@D@std@@V?$allocator@D@2@@std@@V?$weak_ptr@VRawImageData@@@2@@std@@@std@@@std@@@std@@$0A@@?$_Tree@V?$_Tmap_traits@V?$basic_string@DU?$char_traits@D@std@@V?$allocator@D@2@@std@@V?$weak_ptr@VRawImageData@@@2@U?$less@V?$basic_string@DU?$char_traits@D@std@@V?$allocator@D@2@@std@@@2@V?$allocator@U?$pair@$$CBV?$basic_string@DU?$char_traits@D@std@@V?$allocator@D@2@@std@@V?$weak_ptr@VRawImageData@@@2@@std@@@2@$0A@@std@@@std@@QAE?AV?$_Tree_iterator@V?$_Tree_val@U?$_Tree_simple_types@U?$pair@$$CBV?$basic_string@DU?$char_traits@D@std@@V?$allocator@D@2@@std@@V?$weak_ptr@VRawImageData@@@2@@std@@@std@@@std@@@1@V21@@Z 00400000     Bullet.obj
 0002:fffc9000       __ehfuncinfo$??0?$basic_string@DU?$char_traits@D@std@@V?$allocator@D@2@@std@@QAE@$$QAV01@@Z 00400000     Bullet.obj
 0002:fffc9000       __ehfuncinfo$??1?$_Alloc_construct_ptr@V?$allocator@U?$_Tree_node@U?$pair@$$CBV?$basic_string@DU?$char_traits@D@std@@V?$allocator@D@2@@std@@V?$shared_ptr@VRawImageData@@@2@@std@@PAX@std@@@std@@@std@@QAE@XZ 00400000     Bullet.obj
 0002:fffc9000       __ehfuncinfo$??1?$_Alloc_construct_ptr@V?$allocator@U?$_Tree_node@U?$pair@$$CBV?$basic_string@DU?$char_traits@D@std@@V?$allocator@D@2@@std@@V?$weak_ptr@VRawImageData@@@2@@std@@PAX@std@@@std@@@std@@QAE@XZ 00400000     Bullet.obj
 0002:fffc9000       __ehfuncinfo$??1?$_Tree_temp_node@V?$allocator@U?$_Tree_node@U?$pair@$$CBV?$basic_string@DU?$char_traits@D@std@@V?$allocator@D@2@@std@@V?$shared_ptr@VRawImageData@@@2@@std@@PAX@std@@@std@@@std@@QAE@XZ 00400000     Bullet.obj
 0002:fffc9000       __ehfuncinfo$??1?$_Tree_temp_node@V?$allocator@U?$_Tree_node@U?$pair@$$CBV?$basic_string@DU?$char_traits@D@std@@V?$allocator@D@2@@std@@V?$weak_ptr@VRawImageData@@@2@@std@@PAX@std@@@std@@@std@@QAE@XZ 00400000     Bullet.obj
 0002:fffc9000       __ehfuncinfo$??1RawImageData@@QAE@XZ 00400000     Bullet.obj
 0002:fffc9000       __ehfuncinfo$??1_Sentry_base@?$basic_ostream@DU?$char_traits@D@std@@@std@@QAE@XZ 00400000     Bullet.obj
 0002:fffc9000       __ehfuncinfo$??1sentry@?$basic_ostream@DU?$char_traits@D@std@@@std@@QAE@XZ 00400000     Bullet.obj
 0002:fffc9000       __ehfuncinfo$?_Erase_unchecked@?$_Tree@V?$_Tmap_traits@V?$basic_string@DU?$char_traits@D@std@@V?$allocator@D@2@@std@@V?$weak_ptr@VRawImageData@@@2@U?$less@V?$basic_string@DU?$char_traits@D@std@@V?$allocator@D@2@@std@@@2@V?$allocator@U?$pair@$$CBV?$basic_string@DU?$char_traits@D@std@@V?$allocator@D@2@@std@@V?$weak_ptr@VRawImageData@@@2@@std@@@2@$0A@@std@@@std@@AAEPAU?$_Tree_node@U?$pair@$$CBV?$basic_string@DU?$char_traits@D@std@@V?$allocator@D@2@@std@@V?$weak_ptr@VRawImageData@@@2@@std@@PAX@2@V?$_Tree_unchecked_const_iterator@V?$_Tree_val@U?$_Tree_simple_types@U?$pair@$$CBV?$basic_string@DU?$char_traits@D@std@@V?$allocator@D@2@@std@@V?$weak_ptr@VRawImageData@@@2@@std@@@std@@@std@@U_Iterator_base0@2@@2@@Z 00400000     Bullet.obj
 0002:fffc9000       __ehfuncinfo$?_Extract@?$_Tree_val@U?$_Tree_simple_types@U?$pair@$$CBV?$basic_string@DU?$char_traits@D@std@@V?$allocator@D@2@@std@@V?$weak_ptr@VRawImageData@@@2@@std@@@std@@@std@@QAEPAU?$_Tree_node@U?$pair@$$CBV?$basic_string@DU?$char_traits@D@std@@V?$allocator@D@2@@std@@V?$weak_ptr@VRawImageData@@@2@@std@@PAX@2@V?$_Tree_unchecked_const_iterator@V?$_Tree_val@U?$_Tree_simple_types@U?$pair@$$CBV?$basic_string@DU?$char_traits@D@std@@V?$allocator@D@2@@std@@V?$weak_ptr@VRawImageData@@@2@@std@@@std@@@std@@U_Iterator_base0@2@@2@@Z 00400000     Bullet.obj
 0002:fffc9000       __ehfuncinfo$?_Take_contents@?$basic_string@DU?$char_traits@D@std@@V?$allocator@D@2@@std@@AAEXAAV12@U?$integral_constant@_N$00@2@@Z 00400000     Bullet.obj
 0002:fffc9000       __ehfuncinfo$?_Tidy_deallocate@?$basic_string@DU?$char_traits@D@std@@V?$allocator@D@2@@std@@AAEXXZ 00400000     Bullet.obj
 0002:fffc9000       __ehfuncinfo$?getImagePtrbyURL@ImageManager@@QAE?AV?$shared_ptr@VRawImageData@@@std@@V?$basic_string@DU?$char_traits@D@std@@V?$allocator@D@2@@3@_N1@Z 00400000     Bullet.obj
 0001:fffff000       __ehhandler$??$_Deallocate@$07$0A@@std@@YAXPAXI@Z 00400000 f   Bullet.obj
 0001:fffff000       __ehhandler$??$_Deallocate_plain@V?$allocator@U_Container_proxy@std@@@std@@@std@@YAXAAV?$allocator@U_Container_proxy@std@@@0@QAU_Container_proxy@0@@Z 00400000 f   Bullet.obj
 0001:fffff000       __ehhandler$??$_Freenode0@V?$allocator@U?$_Tree_node@U?$pair@$$CBV?$basic_string@DU?$char_traits@D@std@@V?$allocator@D@2@@std@@V?$shared_ptr@VRawImageData@@@2@@std@@PAX@std@@@std@@@?$_Tree_node@U?$pair@$$CBV?$basic_string@DU?$char_traits@D@std@@V?$allocator@D@2@@std@@V?$shared_ptr@VRawImageData@@@2@@std@@PAX@std@@SAXAAV?$allocator@U?$_Tree_node@U?$pair@$$CBV?$basic_string@DU?$char_traits@D@std@@V?$allocator@D@2@@std@@V?$shared_ptr@VRawImageData@@@2@@std@@PAX@std@@@1@PAU01@@Z 00400000 f   Bullet.obj
 0001:fffff000       __ehhandler$??$_Freenode0@V?$allocator@U?$_Tree_node@U?$pair@$$CBV?$basic_string@DU?$char_traits@D@std@@V?$allocator@D@2@@std@@V?$weak_ptr@VRawImageData@@@2@@std@@PAX@std@@@std@@@?$_Tree_node@U?$pair@$$CBV?$basic_string@DU?$char_traits@D@std@@V?$allocator@D@2@@std@@V?$weak_ptr@VRawImageData@@@2@@std@@PAX@std@@SAXAAV?$allocator@U?$_Tree_node@U?$pair@$$CBV?$basic_string@DU?$char_traits@D@std@@V?$allocator@D@2@@std@@V?$weak_ptr@VRawImageData@@@2@@std@@PAX@std@@@1@PAU01@@Z 00400000 f   Bullet.obj
 0001:fffff000       __ehhandler$??$_Freenode@V?$allocator@U?$_Tree_node@U?$pair@$$CBV?$basic_string@DU?$char_traits@D@std@@V?$allocator@D@2@@std@@V?$shared_ptr@VRawImageData@@@2@@std@@PAX@std@@@std@@@?$_Tree_node@U?$pair@$$CBV?$basic_string@DU?$char_traits@D@std@@V?$allocator@D@2@@std@@V?$shared_ptr@VRawImageData@@@2@@std@@PAX@std@@SAXAAV?$allocator@U?$_Tree_node@U?$pair@$$CBV?$basic_string@DU?$char_traits@D@std@@V?$allocator@D@2@@std@@V?$shared_ptr@VRawImageData@@@2@@std@@PAX@std@@@1@PAU01@@Z 00400000 f   Bullet.obj
 0001:fffff000       __ehhandler$??$_Freenode@V?$allocator@U?$_Tree_node@U?$pair@$$CBV?$basic_string@DU?$char_traits@D@std@@V?$allocator@D@2@@std@@V?$weak_ptr@VRawImageData@@@2@@std@@PAX@std@@@std@@@?$_Tree_node@U?$pair@$$CBV?$basic_string@DU?$char_traits@D@std@@V?$allocator@D@2@@std@@V?$weak_ptr@VRawImageData@@@2@@std@@PAX@std@@SAXAAV?$allocator@U?$_Tree_node@U?$pair@$$CBV?$basic_string@DU?$char_traits@D@std@@V?$allocator@D@2@@std@@V?$weak_ptr@VRawImageData@@@2@@std@@PAX@std@@@1@PAU01@@Z 00400000 f   Bullet.obj
 0001:fffff000       __ehhandler$??$erase@V?$_Tree_iterator@V?$_Tree_val@U?$_Tree_simple_types@U?$pair@$$CBV?$basic_string@DU?$char_traits@D@std@@V?$allocator@D@2@@std@@V?$weak_ptr@VRawImageData@@@2@@std@@@std@@@std@@@std@@$0A@@?$_Tree@V?$_Tmap_traits@V?$basic_string@DU?$char_traits@D@std@@V?$allocator@D@2@@std@@V?$weak_ptr@VRawImageData@@@2@U?$less@V?$basic_string@DU?$char_traits@D@std@@V?$allocator@D@2@@std@@@2@V?$allocator@U?$pair@$$CBV?$basic_string@DU?$char_traits@D@std@@V?$allocator@D@2@@std@@V?$weak_ptr@VRawImageData@@@2@@std@@@2@$0A@@std@@@std@@QAE?AV?$_Tree_iterator@V?$_Tree_val@U?$_Tree_simple_types@U?$pair@$$CBV?$basic_string@DU?$char_traits@D@std@@V?$allocator@D@2@@std@@V?$weak_ptr@VRawImageData@@@2@@std@@@std@@@std@@@1@V21@@Z 00400000 f   Bullet.obj
 0001:fffff000       __ehhandler$??0?$basic_string@DU?$char_traits@D@std@@V?$allocator@D@2@@std@@QAE@$$QAV01@@Z 00400000 f   Bullet.obj
 0001:fffff000       __ehhandler$??1?$_Alloc_construct_ptr@V?$allocator@U?$_Tree_node@U?$pair@$$CBV?$basic_string@DU?$char_traits@D@std@@V?$allocator@D@2@@std@@V?$shared_ptr@VRawImageData@@@2@@std@@PAX@std@@@std@@@std@@QAE@XZ 00400000 f   Bullet.obj
 0001:fffff000       __ehhandler$??1?$_Alloc_construct_ptr@V?$allocator@U?$_Tree_node@U?$pair@$$CBV?$basic_string@DU?$char_traits@D@std@@V?$allocator@D@2@@std@@V?$weak_ptr@VRawImageData@@@2@@std@@PAX@std@@@std@@@std@@QAE@XZ 00400000 f   Bullet.obj
 0001:fffff000       __ehhandler$??1?$_Tree_temp_node@V?$allocator@U?$_Tree_node@U?$pair@$$CBV?$basic_string@DU?$char_traits@D@std@@V?$allocator@D@2@@std@@V?$shared_ptr@VRawImageData@@@2@@std@@PAX@std@@@std@@@std@@QAE@XZ 00400000 f   Bullet.obj
 0001:fffff000       __ehhandler$??1?$_Tree_temp_node@V?$allocator@U?$_Tree_node@U?$pair@$$CBV?$basic_string@DU?$char_traits@D@std@@V?$allocator@D@2@@std@@V?$weak_ptr@VRawImageData@@@2@@std@@PAX@std@@@std@@@std@@QAE@XZ 00400000 f   Bullet.obj
 0001:fffff000       __ehhandler$??1RawImageData@@QAE@XZ 00400000 f   Bullet.obj
 0001:fffff000       __ehhandler$??1_Sentry_base@?$basic_ostream@DU?$char_traits@D@std@@@std@@QAE@XZ 00400000 f   Bullet.obj
 0001:fffff000       __ehhandler$??1sentry@?$basic_ostream@DU?$char_traits@D@std@@@std@@QAE@XZ 00400000 f   Bullet.obj
 0001:fffff000       __ehhandler$?_Erase_unchecked@?$_Tree@V?$_Tmap_traits@V?$basic_string@DU?$char_traits@D@std@@V?$allocator@D@2@@std@@V?$weak_ptr@VRawImageData@@@2@U?$less@V?$basic_string@DU?$char_traits@D@std@@V?$allocator@D@2@@std@@@2@V?$allocator@U?$pair@$$CBV?$basic_string@DU?$char_traits@D@std@@V?$allocator@D@2@@std@@V?$weak_ptr@VRawImageData@@@2@@std@@@2@$0A@@std@@@std@@AAEPAU?$_Tree_node@U?$pair@$$CBV?$basic_string@DU?$char_traits@D@std@@V?$allocator@D@2@@std@@V?$weak_ptr@VRawImageData@@@2@@std@@PAX@2@V?$_Tree_unchecked_const_iterator@V?$_Tree_val@U?$_Tree_simple_types@U?$pair@$$CBV?$basic_string@DU?$char_traits@D@std@@V?$allocator@D@2@@std@@V?$weak_ptr@VRawImageData@@@2@@std@@@std@@@std@@U_Iterator_base0@2@@2@@Z 00400000 f   Bullet.obj
 0001:fffff000       __ehhandler$?_Extract@?$_Tree_val@U?$_Tree_simple_types@U?$pair@$$CBV?$basic_string@DU?$char_traits@D@std@@V?$allocator@D@2@@std@@V?$weak_ptr@VRawImageData@@@2@@std@@@std@@@std@@QAEPAU?$_Tree_node@U?$pair@$$CBV?$basic_string@DU?$char_traits@D@std@@V?$allocator@D@2@@std@@V?$weak_ptr@VRawImageData@@@2@@std@@PAX@2@V?$_Tree_unchecked_const_iterator@V?$_Tree_val@U?$_Tree_simple_types@U?$pair@$$CBV?$basic_string@DU?$char_traits@D@std@@V?$allocator@D@2@@std@@V?$weak_ptr@VRawImageData@@@2@@std@@@std@@@std@@U_Iterator_base0@2@@2@@Z 00400000 f   Bullet.obj
 0001:fffff000       __ehhandler$?_Take_contents@?$basic_string@DU?$char_traits@D@std@@V?$allocator@D@2@@std@@AAEXAAV12@U?$integral_constant@_N$00@2@@Z 00400000 f   Bullet.obj
 0001:fffff000       __ehhandler$?_Tidy_deallocate@?$basic_string@DU?$char_traits@D@std@@V?$allocator@D@2@@std@@AAEXXZ 00400000 f   Bullet.obj
 0001:fffff000       __unwindfunclet$??$?0U?$pair@V?$basic_string@DU?$char_traits@D@std@@V?$allocator@D@2@@std@@V?$shared_ptr@VRawImageData@@@2@@std@@@?$_Tree_temp_node@V?$allocator@U?$_Tree_node@U?$pair@$$CBV?$basic_string@DU?$char_traits@D@std@@V?$allocator@D@2@@std@@V?$shared_ptr@VRawImageData@@@2@@std@@PAX@std@@@std@@@std@@QAE@AAV?$allocator@U?$_Tree_node@U?$pair@$$CBV?$basic_string@DU?$char_traits@D@std@@V?$allocator@D@2@@std@@V?$shared_ptr@VRawImageData@@@2@@std@@PAX@std@@@1@PAU?$_Tree_node@U?$pair@$$CBV?$basic_string@DU?$char_traits@D@std@@V?$allocator@D@2@@std@@V?$shared_ptr@VRawImageData@@@2@@std@@PAX@1@$$QAU?$pair@V?$basic_string@DU?$char_traits@D@std@@V?$allocator@D@2@@std@@V?$shared_ptr@VRawImageData@@@2@@1@@Z$0 00400000 f   Bullet.obj
 0001:fffff000       __unwindfunclet$??$?0U?$pair@V?$basic_string@DU?$char_traits@D@std@@V?$allocator@D@2@@std@@V?$weak_ptr@VRawImageData@@@2@@std@@@?$_Tree_temp_node@V?$allocator@U?$_Tree_node@U?$pair@$$CBV?$basic_string@DU?$char_traits@D@std@@V?$allocator@D@2@@std@@V?$weak_ptr@VRawImageData@@@2@@std@@PAX@std@@@std@@@std@@QAE@AAV?$allocator@U?$_Tree_node@U?$pair@$$CBV?$basic_string@DU?$char_traits@D@std@@V?$allocator@D@2@@std@@V?$weak_ptr@VRawImageData@@@2@@std@@PAX@std@@@1@PAU?$_Tree_node@U?$pair@$$CBV?$basic_string@DU?$char_traits@D@std@@V?$allocator@D@2@@std@@V?$weak_ptr@VRawImageData@@@2@@std@@PAX@1@$$QAU?$pair@V?$basic_string@DU?$char_traits@D@std@@V?$allocator@D@2@@std@@V?$weak_ptr@VRawImageData@@@2@@1@@Z$0 00400000 f   Bullet.obj
 0001:fffff000       __unwindfunclet$??$?0VRawImageData@@$0A@@?$shared_ptr@VRawImageData@@@std@@QAE@PAVRawImageData@@@Z$0 00400000 f   Bullet.obj
 0001:fffff000       __unwindfunclet$??$?6U?$char_traits@D@std@@@std@@YAAAV?$basic_ostream@DU?$char_traits@D@std@@@0@AAV10@PBD@Z$2 00400000 f   Bullet.obj
 0001:fffff000       __unwindfunclet$??$_Insert_string@DU?$char_traits@D@std@@I@std@@YAAAV?$basic_ostream@DU?$char_traits@D@std@@@0@AAV10@QBDI@Z$2 00400000 f   Bullet.obj
 0001:fffff000       __unwindfunclet$??0?$_Tree_temp_node_alloc@V?$allocator@U?$_Tree_node@U?$pair@$$CBV?$basic_string@DU?$char_traits@D@std@@V?$allocator@D@2@@std@@V?$shared_ptr@VRawImageData@@@2@@std@@PAX@std@@@std@@@std@@QAE@AAV?$allocator@U?$_Tree_node@U?$pair@$$CBV?$basic_string@DU?$char_traits@D@std@@V?$allocator@D@2@@std@@V?$shared_ptr@VRawImageData@@@2@@std@@PAX@std@@@1@@Z$0 00400000 f   Bullet.obj
 0001:fffff000       __unwindfunclet$??0?$_Tree_temp_node_alloc@V?$allocator@U?$_Tree_node@U?$pair@$$CBV?$basic_string@DU?$char_traits@D@std@@V?$allocator@D@2@@std@@V?$weak_ptr@VRawImageData@@@2@@std@@PAX@std@@@std@@@std@@QAE@AAV?$allocator@U?$_Tree_node@U?$pair@$$CBV?$basic_string@DU?$char_traits@D@std@@V?$allocator@D@2@@std@@V?$weak_ptr@VRawImageData@@@2@@std@@PAX@std@@@1@@Z$0 00400000 f   Bullet.obj
 0001:fffff000       __unwindfunclet$??0?$basic_string@DU?$char_traits@D@std@@V?$allocator@D@2@@std@@QAE@ABV01@@Z$0 00400000 f   Bullet.obj
 0001:fffff000       __unwindfunclet$??0?$basic_string@DU?$char_traits@D@std@@V?$allocator@D@2@@std@@QAE@QBD@Z$0 00400000 f   Bullet.obj
 0001:fffff000       __unwindfunclet$??0ImageManager@@QAE@XZ$0 00400000 f   Bullet.obj
 0001:fffff000       __unwindfunclet$??0RawImageData@@QAE@V?$basic_string@DU?$char_traits@D@std@@V?$allocator@D@2@@std@@@Z$0 00400000 f   Bullet.obj
 0001:fffff000       __unwindfunclet$??0sentry@?$basic_ostream@DU?$char_traits@D@std@@@std@@QAE@AAV12@@Z$0 00400000 f   Bullet.obj
 0001:fffff000       __unwindfunclet$?_Alloc_sentinel_and_proxy@?$_Tree@V?$_Tmap_traits@V?$basic_string@DU?$char_traits@D@std@@V?$allocator@D@2@@std@@V?$shared_ptr@VRawImageData@@@2@U?$less@V?$basic_string@DU?$char_traits@D@std@@V?$allocator@D@2@@std@@@2@V?$allocator@U?$pair@$$CBV?$basic_string@DU?$char_traits@D@std@@V?$allocator@D@2@@std@@V?$shared_ptr@VRawImageData@@@2@@std@@@2@$0A@@std@@@std@@IAEXXZ$0 00400000 f   Bullet.obj
 0001:fffff000       __unwindfunclet$?_Alloc_sentinel_and_proxy@?$_Tree@V?$_Tmap_traits@V?$basic_string@DU?$char_traits@D@std@@V?$allocator@D@2@@std@@V?$weak_ptr@VRawImageData@@@2@U?$less@V?$basic_string@DU?$char_traits@D@std@@V?$allocator@D@2@@std@@@2@V?$allocator@U?$pair@$$CBV?$basic_string@DU?$char_traits@D@std@@V?$allocator@D@2@@std@@V?$weak_ptr@VRawImageData@@@2@@std@@@2@$0A@@std@@@std@@IAEXXZ$0 00400000 f   Bullet.obj
 0001:fffff000       __unwindfunclet$?get@ImageManager@@SAPAV1@XZ$0 00400000 f   Bullet.obj
 0001:fffff000       __unwindfunclet$?getImagePtrbyURL@ImageManager@@QAE?AV?$shared_ptr@VRawImageData@@@std@@V?$basic_string@DU?$char_traits@D@std@@V?$allocator@D@2@@3@_N1@Z$0 00400000 f   Bullet.obj
 0001:fffff000       __unwindfunclet$?getImagebyURL@ImageManager@@QAE?AVSimpleImage@@V?$basic_string@DU?$char_traits@D@std@@V?$allocator@D@2@@std@@_N1@Z$0 00400000 f   Bullet.obj
 0001:fffff000       __unwindfunclet$?loadAsNew@ImageManager@@QAE?AV?$shared_ptr@VRawImageData@@@std@@V?$basic_string@DU?$char_traits@D@std@@V?$allocator@D@2@@3@@Z$0 00400000 f   Bullet.obj
 0001:fffff000       __unwindfunclet$?loadImage@ImageManager@@SA?AVSimpleImage@@V?$basic_string@DU?$char_traits@D@std@@V?$allocator@D@2@@std@@_N@Z$0 00400000 f   Bullet.obj
 0001:fffff000       __unwindfunclet$?loadImage@RawImageData@@QAE_NV?$basic_string@DU?$char_traits@D@std@@V?$allocator@D@2@@std@@HHHHH_N@Z$0 00400000 f   Bullet.obj
 0002:fffc9000       __unwindtable$??$?0U?$pair@V?$basic_string@DU?$char_traits@D@std@@V?$allocator@D@2@@std@@V?$shared_ptr@VRawImageData@@@2@@std@@@?$_Tree_temp_node@V?$allocator@U?$_Tree_node@U?$pair@$$CBV?$basic_string@DU?$char_traits@D@std@@V?$allocator@D@2@@std@@V?$shared_ptr@VRawImageData@@@2@@std@@PAX@std@@@std@@@std@@QAE@AAV?$allocator@U?$_Tree_node@U?$pair@$$CBV?$basic_string@DU?$char_traits@D@std@@V?$allocator@D@2@@std@@V?$shared_ptr@VRawImageData@@@2@@std@@PAX@std@@@1@PAU?$_Tree_node@U?$pair@$$CBV?$basic_string@DU?$char_traits@D@std@@V?$allocator@D@2@@std@@V?$shared_ptr@VRawImageData@@@2@@std@@PAX@1@$$QAU?$pair@V?$basic_string@DU?$char_traits@D@std@@V?$allocator@D@2@@std@@V?$shared_ptr@VRawImageData@@@2@@1@@Z 00400000     Bullet.obj
 0002:fffc9000       __unwindtable$??$?0U?$pair@V?$basic_string@DU?$char_traits@D@std@@V?$allocator@D@2@@std@@V?$weak_ptr@VRawImageData@@@2@@std@@@?$_Tree_temp_node@V?$allocator@U?$_Tree_node@U?$pair@$$CBV?$basic_string@DU?$char_traits@D@std@@V?$allocator@D@2@@std@@V?$weak_ptr@VRawImageData@@@2@@std@@PAX@std@@@std@@@std@@QAE@AAV?$allocator@U?$_Tree_node@U?$pair@$$CBV?$basic_string@DU?$char_traits@D@std@@V?$allocator@D@2@@std@@V?$weak_ptr@VRawImageData@@@2@@std@@PAX@std@@@1@PAU?$_Tree_node@U?$pair@$$CBV?$basic_string@DU?$char_traits@D@std@@V?$allocator@D@2@@std@@V?$weak_ptr@VRawImageData@@@2@@std@@PAX@1@$$QAU?$pair@V?$basic_string@DU?$char_traits@D@std@@V?$allocator@D@2@@std@@V?$weak_ptr@VRawImageData@@@2@@1@@Z 00400000     Bullet.obj
 0002:fffc9000       __unwindtable$??$?0VRawImageData@@$0A@@?$shared_ptr@VRawImageData@@@std@@QAE@PAVRawImageData@@@Z 00400000     Bullet.obj
 0002:fffc9000       __unwindtable$??0?$_Tree_temp_node_alloc@V?$allocator@U?$_Tree_node@U?$pair@$$CBV?$basic_string@DU?$char_traits@D@std@@V?$allocator@D@2@@std@@V?$shared_ptr@VRawImageData@@@2@@std@@PAX@std@@@std@@@std@@QAE@AAV?$allocator@U?$_Tree_node@U?$pair@$$CBV?$basic_string@DU?$char_traits@D@std@@V?$allocator@D@2@@std@@V?$shared_ptr@VRawImageData@@@2@@std@@PAX@std@@@1@@Z 00400000     Bullet.obj
 0002:fffc9000       __unwindtable$??0?$_Tree_temp_node_alloc@V?$allocator@U?$_Tree_node@U?$pair@$$CBV?$basic_string@DU?$char_traits@D@std@@V?$allocator@D@2@@std@@V?$weak_ptr@VRawImageData@@@2@@std@@PAX@std@@@std@@@std@@QAE@AAV?$allocator@U?$_Tree_node@U?$pair@$$CBV?$basic_string@DU?$char_traits@D@std@@V?$allocator@D@2@@std@@V?$weak_ptr@VRawImageData@@@2@@std@@PAX@std@@@1@@Z 00400000     Bullet.obj
 0002:fffc9000       __unwindtable$??0?$basic_string@DU?$char_traits@D@std@@V?$allocator@D@2@@std@@QAE@ABV01@@Z 00400000     Bullet.obj
 0002:fffc9000       __unwindtable$??0?$basic_string@DU?$char_traits@D@std@@V?$allocator@D@2@@std@@QAE@QBD@Z 00400000     Bullet.obj
 0002:fffc9000       __unwindtable$??0ImageManager@@QAE@XZ 00400000     Bullet.obj
 0002:fffc9000       __unwindtable$??0RawImageData@@QAE@V?$basic_string@DU?$char_traits@D@std@@V?$allocator@D@2@@std@@@Z 00400000     Bullet.obj
 0002:fffc9000       __unwindtable$??0sentry@?$basic_ostream@DU?$char_traits@D@std@@@std@@QAE@AAV12@@Z 00400000     Bullet.obj
 0002:fffc9000       __unwindtable$?_Alloc_sentinel_and_proxy@?$_Tree@V?$_Tmap_traits@V?$basic_string@DU?$char_traits@D@std@@V?$allocator@D@2@@std@@V?$shared_ptr@VRawImageData@@@2@U?$less@V?$basic_string@DU?$char_traits@D@std@@V?$allocator@D@2@@std@@@2@V?$allocator@U?$pair@$$CBV?$basic_string@DU?$char_traits@D@std@@V?$allocator@D@2@@std@@V?$shared_ptr@VRawImageData@@@2@@std@@@2@$0A@@std@@@std@@IAEXXZ 00400000     Bullet.obj
 0002:fffc9000       __unwindtable$?_Alloc_sentinel_and_proxy@?$_Tree@V?$_Tmap_traits@V?$basic_string@DU?$char_traits@D@std@@V?$allocator@D@2@@std@@V?$weak_ptr@VRawImageData@@@2@U?$less@V?$basic_string@DU?$char_traits@D@std@@V?$allocator@D@2@@std@@@2@V?$allocator@U?$pair@$$CBV?$basic_string@DU?$char_traits@D@std@@V?$allocator@D@2@@std@@V?$weak_ptr@VRawImageData@@@2@@std@@@2@$0A@@std@@@std@@IAEXXZ 00400000     Bullet.obj
 0002:fffc9000       __unwindtable$?get@ImageManager@@SAPAV1@XZ 00400000     Bullet.obj
 0002:fffc9000       __unwindtable$?getImagebyURL@ImageManager@@QAE?AVSimpleImage@@V?$basic_string@DU?$char_traits@D@std@@V?$allocator@D@2@@std@@_N1@Z 00400000     Bullet.obj
 0002:fffc9000       __unwindtable$?loadAsNew@ImageManager@@QAE?AV?$shared_ptr@VRawImageData@@@std@@V?$basic_string@DU?$char_traits@D@std@@V?$allocator@D@2@@3@@Z 00400000     Bullet.obj
 0002:fffc9000       __unwindtable$?loadImage@ImageManager@@SA?AVSimpleImage@@V?$basic_string@DU?$char_traits@D@std@@V?$allocator@D@2@@std@@_N@Z 00400000     Bullet.obj
 0002:fffc9000       __unwindtable$?loadImage@RawImageData@@QAE_NV?$basic_string@DU?$char_traits@D@std@@V?$allocator@D@2@@std@@HHHHH_N@Z 00400000     Bullet.obj
 0002:fffc9000       __catchsym$??$?6U?$char_traits@D@std@@@std@@YAAAV?$basic_ostream@DU?$char_traits@D@std@@@0@AAV10@PBD@Z$3 00400000     DisplayableObject.obj
 0002:fffc9000       __ehfuncinfo$??1_Sentry_base@?$basic_ostream@DU?$char_traits@D@std@@@std@@QAE@XZ 00400000     DisplayableObject.obj
 0002:fffc9000       __ehfuncinfo$??1sentry@?$basic_ostream@DU?$char_traits@D@std@@@std@@QAE@XZ 00400000     DisplayableObject.obj
 0001:fffff000       __ehhandler$??1_Sentry_base@?$basic_ostream@DU?$char_traits@D@std@@@std@@QAE@XZ 00400000 f   DisplayableObject.obj
 0001:fffff000       __ehhandler$??1sentry@?$basic_ostream@DU?$char_traits@D@std@@@std@@QAE@XZ 00400000 f   DisplayableObject.obj
 0001:fffff000       __unwindfunclet$??$?6U?$char_traits@D@std@@@std@@YAAAV?$basic_ostream@DU?$char_traits@D@std@@@0@AAV10@PBD@Z$2 00400000 f   DisplayableObject.obj
 0001:fffff000       __unwindfunclet$??0sentry@?$basic_ostream@DU?$char_traits@D@std@@@std@@QAE@AAV12@@Z$0 00400000 f   DisplayableObject.obj
 0002:fffc9000       __unwindtable$??0sentry@?$basic_ostream@DU?$char_traits@D@std@@@std@@QAE@AAV12@@Z 00400000     DisplayableObject.obj
 0002:fffc9000       __catchsym$??$?6U?$char_traits@D@std@@@std@@YAAAV?$basic_ostream@DU?$char_traits@D@std@@@0@AAV10@PBD@Z$3 00400000     DrawingSurface.obj
 0002:fffc9000       __ehfuncinfo$??1_Sentry_base@?$basic_ostream@DU?$char_traits@D@std@@@std@@QAE@XZ 00400000     DrawingSurface.obj
 0002:fffc9000       __ehfuncinfo$??1sentry@?$basic_ostream@DU?$char_traits@D@std@@@std@@QAE@XZ 00400000     DrawingSurface.obj
 0001:fffff000       __ehhandler$??1_Sentry_base@?$basic_ostream@DU?$char_traits@D@std@@@std@@QAE@XZ 00400000 f   DrawingSurface.obj
 0001:fffff000       __ehhandler$??1sentry@?$basic_ostream@DU?$char_traits@D@std@@@std@@QAE@XZ 00400000 f   DrawingSurface.obj
 0001:fffff000       __unwindfunclet$??$?6U?$char_traits@D@std@@@std@@YAAAV?$basic_ostream@DU?$char_traits@D@std@@@0@AAV10@PBD@Z$2 00400000 f   DrawingSurface.obj
 0001:fffff000       __unwindfunclet$??0sentry@?$basic_ostream@DU?$char_traits@D@std@@@std@@QAE@AAV12@@Z$0 00400000 f   DrawingSurface.obj
 0002:fffc9000       __unwindtable$??0sentry@?$basic_ostream@DU?$char_traits@D@std@@@std@@QAE@AAV12@@Z 00400000     DrawingSurface.obj
 0002:fffc9000       __ehfuncinfo$??$_Deallocate@$07$0A@@std@@YAXPAXI@Z 00400000     EndState.obj
 0002:fffc9000       __ehfuncinfo$??$_Deallocate_plain@V?$allocator@U_Container_proxy@std@@@std@@@std@@YAXAAV?$allocator@U_Container_proxy@std@@@0@QAU_Container_proxy@0@@Z 00400000     EndState.obj
 0002:fffc9000       __ehfuncinfo$?_Take_contents@?$basic_string@DU?$char_traits@D@std@@V?$allocator@D@2@@std@@AAEXAAV12@U?$integral_constant@_N$00@2@@Z 00400000     EndState.obj
 0002:fffc9000       __ehfuncinfo$?_Tidy_deallocate@?$basic_string@DU?$char_traits@D@std@@V?$allocator@D@2@@std@@AAEXXZ 00400000     EndState.obj
 0001:fffff000       __ehhandler$??$_Deallocate@$07$0A@@std@@YAXPAXI@Z 00400000 f   EndState.obj
 0001:fffff000       __ehhandler$??$_Deallocate_plain@V?$allocator@U_Container_proxy@std@@@std@@@std@@YAXAAV?$allocator@U_Container_proxy@std@@@0@QAU_Container_proxy@0@@Z 00400000 f   EndState.obj
 0001:fffff000       __ehhandler$?_Take_contents@?$basic_string@DU?$char_traits@D@std@@V?$allocator@D@2@@std@@AAEXAAV12@U?$integral_constant@_N$00@2@@Z 00400000 f   EndState.obj
 0001:fffff000       __ehhandler$?_Tidy_deallocate@?$basic_string@DU?$char_traits@D@std@@V?$allocator@D@2@@std@@AAEXXZ 00400000 f   EndState.obj
 0002:fffc9000       __catchsym$??$?6U?$char_traits@D@std@@@std@@YAAAV?$basic_ostream@DU?$char_traits@D@std@@@0@AAV10@PBD@Z$3 00400000     GameEngine.obj
 0002:fffc9000       __catchsym$??$_Insert_string@DU?$char_traits@D@std@@I@std@@YAAAV?$basic_ostream@DU?$char_traits@D@std@@@0@AAV10@QBDI@Z$3 00400000     GameEngine.obj
 0002:fffc9000       __ehfuncinfo$??$_Deallocate@$07$0A@@std@@YAXPAXI@Z 00400000     GameEngine.obj
 0002:fffc9000       __ehfuncinfo$??$_Deallocate_plain@V?$allocator@U_Container_proxy@std@@@std@@@std@@YAXAAV?$allocator@U_Container_proxy@std@@@0@QAU_Container_proxy@0@@Z 00400000     GameEngine.obj
 0002:fffc9000       __ehfuncinfo$??$_Freenode0@V?$allocator@U?$_Tree_node@U?$pair@$$CBV?$basic_string@DU?$char_traits@D@std@@V?$allocator@D@2@@std@@V?$shared_ptr@VRawImageData@@@2@@std@@PAX@std@@@std@@@?$_Tree_node@U?$pair@$$CBV?$basic_string@DU?$char_traits@D@std@@V?$allocator@D@2@@std@@V?$shared_ptr@VRawImageData@@@2@@std@@PAX@std@@SAXAAV?$allocator@U?$_Tree_node@U?$pair@$$CBV?$basic_string@DU?$char_traits@D@std@@V?$allocator@D@2@@std@@V?$shared_ptr@VRawImageData@@@2@@std@@PAX@std@@@1@PAU01@@Z 00400000     GameEngine.obj
 0002:fffc9000       __ehfuncinfo$??$_Freenode0@V?$allocator@U?$_Tree_node@U?$pair@$$CBV?$basic_string@DU?$char_traits@D@std@@V?$allocator@D@2@@std@@V?$weak_ptr@VRawImageData@@@2@@std@@PAX@std@@@std@@@?$_Tree_node@U?$pair@$$CBV?$basic_string@DU?$char_traits@D@std@@V?$allocator@D@2@@std@@V?$weak_ptr@VRawImageData@@@2@@std@@PAX@std@@SAXAAV?$allocator@U?$_Tree_node@U?$pair@$$CBV?$basic_string@DU?$char_traits@D@std@@V?$allocator@D@2@@std@@V?$weak_ptr@VRawImageData@@@2@@std@@PAX@std@@@1@PAU01@@Z 00400000     GameEngine.obj
 0002:fffc9000       __ehfuncinfo$??$_Freenode@V?$allocator@U?$_Tree_node@U?$pair@$$CBV?$basic_string@DU?$char_traits@D@std@@V?$allocator@D@2@@std@@V?$shared_ptr@VRawImageData@@@2@@std@@PAX@std@@@std@@@?$_Tree_node@U?$pair@$$CBV?$basic_string@DU?$char_traits@D@std@@V?$allocator@D@2@@std@@V?$shared_ptr@VRawImageData@@@2@@std@@PAX@std@@SAXAAV?$allocator@U?$_Tree_node@U?$pair@$$CBV?$basic_string@DU?$char_traits@D@std@@V?$allocator@D@2@@std@@V?$shared_ptr@VRawImageData@@@2@@std@@PAX@std@@@1@PAU01@@Z 00400000     GameEngine.obj
 0002:fffc9000       __ehfuncinfo$??$_Freenode@V?$allocator@U?$_Tree_node@U?$pair@$$CBV?$basic_string@DU?$char_traits@D@std@@V?$allocator@D@2@@std@@V?$weak_ptr@VRawImageData@@@2@@std@@PAX@std@@@std@@@?$_Tree_node@U?$pair@$$CBV?$basic_string@DU?$char_traits@D@std@@V?$allocator@D@2@@std@@V?$weak_ptr@VRawImageData@@@2@@std@@PAX@std@@SAXAAV?$allocator@U?$_Tree_node@U?$pair@$$CBV?$basic_string@DU?$char_traits@D@std@@V?$allocator@D@2@@std@@V?$weak_ptr@VRawImageData@@@2@@std@@PAX@std@@@1@PAU01@@Z 00400000     GameEngine.obj
 0002:fffc9000       __ehfuncinfo$??$erase@V?$_Tree_iterator@V?$_Tree_val@U?$_Tree_simple_types@U?$pair@$$CBV?$basic_string@DU?$char_traits@D@std@@V?$allocator@D@2@@std@@V?$weak_ptr@VRawImageData@@@2@@std@@@std@@@std@@@std@@$0A@@?$_Tree@V?$_Tmap_traits@V?$basic_string@DU?$char_traits@D@std@@V?$allocator@D@2@@std@@V?$weak_ptr@VRawImageData@@@2@U?$less@V?$basic_string@DU?$char_traits@D@std@@V?$allocator@D@2@@std@@@2@V?$allocator@U?$pair@$$CBV?$basic_string@DU?$char_traits@D@std@@V?$allocator@D@2@@std@@V?$weak_ptr@VRawImageData@@@2@@std@@@2@$0A@@std@@@std@@QAE?AV?$_Tree_iterator@V?$_Tree_val@U?$_Tree_simple_types@U?$pair@$$CBV?$basic_string@DU?$char_traits@D@std@@V?$allocator@D@2@@std@@V?$weak_ptr@VRawImageData@@@2@@std@@@std@@@std@@@1@V21@@Z 00400000     GameEngine.obj
 0002:fffc9000       __ehfuncinfo$??0?$basic_string@DU?$char_traits@D@std@@V?$allocator@D@2@@std@@QAE@$$QAV01@@Z 00400000     GameEngine.obj
 0002:fffc9000       __ehfuncinfo$??1?$_Alloc_construct_ptr@V?$allocator@U?$_Tree_node@U?$pair@$$CBV?$basic_string@DU?$char_traits@D@std@@V?$allocator@D@2@@std@@V?$shared_ptr@VRawImageData@@@2@@std@@PAX@std@@@std@@@std@@QAE@XZ 00400000     GameEngine.obj
 0002:fffc9000       __ehfuncinfo$??1?$_Alloc_construct_ptr@V?$allocator@U?$_Tree_node@U?$pair@$$CBV?$basic_string@DU?$char_traits@D@std@@V?$allocator@D@2@@std@@V?$weak_ptr@VRawImageData@@@2@@std@@PAX@std@@@std@@@std@@QAE@XZ 00400000     GameEngine.obj
 0002:fffc9000       __ehfuncinfo$??1?$_Tree_temp_node@V?$allocator@U?$_Tree_node@U?$pair@$$CBV?$basic_string@DU?$char_traits@D@std@@V?$allocator@D@2@@std@@V?$shared_ptr@VRawImageData@@@2@@std@@PAX@std@@@std@@@std@@QAE@XZ 00400000     GameEngine.obj
 0002:fffc9000       __ehfuncinfo$??1?$_Tree_temp_node@V?$allocator@U?$_Tree_node@U?$pair@$$CBV?$basic_string@DU?$char_traits@D@std@@V?$allocator@D@2@@std@@V?$weak_ptr@VRawImageData@@@2@@std@@PAX@std@@@std@@@std@@QAE@XZ 00400000     GameEngine.obj
 0002:fffc9000       __ehfuncinfo$??1RawImageData@@QAE@XZ 00400000     GameEngine.obj
 0002:fffc9000       __ehfuncinfo$??1_Sentry_base@?$basic_ostream@DU?$char_traits@D@std@@@std@@QAE@XZ 00400000     GameEngine.obj
 0002:fffc9000       __ehfuncinfo$??1sentry@?$basic_ostream@DU?$char_traits@D@std@@@std@@QAE@XZ 00400000     GameEngine.obj
 0002:fffc9000       __ehfuncinfo$?_Erase_unchecked@?$_Tree@V?$_Tmap_traits@V?$basic_string@DU?$char_traits@D@std@@V?$allocator@D@2@@std@@V?$weak_ptr@VRawImageData@@@2@U?$less@V?$basic_string@DU?$char_traits@D@std@@V?$allocator@D@2@@std@@@2@V?$allocator@U?$pair@$$CBV?$basic_string@DU?$char_traits@D@std@@V?$allocator@D@2@@std@@V?$weak_ptr@VRawImageData@@@2@@std@@@2@$0A@@std@@@std@@AAEPAU?$_Tree_node@U?$pair@$$CBV?$basic_string@DU?$char_traits@D@std@@V?$allocator@D@2@@std@@V?$weak_ptr@VRawImageData@@@2@@std@@PAX@2@V?$_Tree_unchecked_const_iterator@V?$_Tree_val@U?$_Tree_simple_types@U?$pair@$$CBV?$basic_string@DU?$char_traits@D@std@@V?$allocator@D@2@@std@@V?$weak_ptr@VRawImageData@@@2@@std@@@std@@@std@@U_Iterator_base0@2@@2@@Z 00400000     GameEngine.obj
 0002:fffc9000       __ehfuncinfo$?_Extract@?$_Tree_val@U?$_Tree_simple_types@U?$pair@$$CBV?$basic_string@DU?$char_traits@D@std@@V?$allocator@D@2@@std@@V?$weak_ptr@VRawImageData@@@2@@std@@@std@@@std@@QAEPAU?$_Tree_node@U?$pair@$$CBV?$basic_string@DU?$char_traits@D@std@@V?$allocator@D@2@@std@@V?$weak_ptr@VRawImageData@@@2@@std@@PAX@2@V?$_Tree_unchecked_const_iterator@V?$_Tree_val@U?$_Tree_simple_types@U?$pair@$$CBV?$basic_string@DU?$char_traits@D@std@@V?$allocator@D@2@@std@@V?$weak_ptr@VRawImageData@@@2@@std@@@std@@@std@@U_Iterator_base0@2@@2@@Z 00400000     GameEngine.obj
 0002:fffc9000       __ehfuncinfo$?_Take_contents@?$basic_string@DU?$char_traits@D@std@@V?$allocator@D@2@@std@@AAEXAAV12@U?$integral_constant@_N$00@2@@Z 00400000     GameEngine.obj
 0002:fffc9000       __ehfuncinfo$?_Tidy_deallocate@?$basic_string@DU?$char_traits@D@std@@V?$allocator@D@2@@std@@AAEXXZ 00400000     GameEngine.obj
 0002:fffc9000       __ehfuncinfo$?getImagePtrbyURL@ImageManager@@QAE?AV?$shared_ptr@VRawImageData@@@std@@V?$basic_string@DU?$char_traits@D@std@@V?$allocator@D@2@@3@_N1@Z 00400000     GameEngine.obj
 0001:fffff000       __ehhandler$??$_Deallocate@$07$0A@@std@@YAXPAXI@Z 00400000 f   GameEngine.obj
 0001:fffff000       __ehhandler$??$_Deallocate_plain@V?$allocator@U_Container_proxy@std@@@std@@@std@@YAXAAV?$allocator@U_Container_proxy@std@@@0@QAU_Container_proxy@0@@Z 00400000 f   GameEngine.obj
 0001:fffff000       __ehhandler$??$_Freenode0@V?$allocator@U?$_Tree_node@U?$pair@$$CBV?$basic_string@DU?$char_traits@D@std@@V?$allocator@D@2@@std@@V?$shared_ptr@VRawImageData@@@2@@std@@PAX@std@@@std@@@?$_Tree_node@U?$pair@$$CBV?$basic_string@DU?$char_traits@D@std@@V?$allocator@D@2@@std@@V?$shared_ptr@VRawImageData@@@2@@std@@PAX@std@@SAXAAV?$allocator@U?$_Tree_node@U?$pair@$$CBV?$basic_string@DU?$char_traits@D@std@@V?$allocator@D@2@@std@@V?$shared_ptr@VRawImageData@@@2@@std@@PAX@std@@@1@PAU01@@Z 00400000 f   GameEngine.obj
 0001:fffff000       __ehhandler$??$_Freenode0@V?$allocator@U?$_Tree_node@U?$pair@$$CBV?$basic_string@DU?$char_traits@D@std@@V?$allocator@D@2@@std@@V?$weak_ptr@VRawImageData@@@2@@std@@PAX@std@@@std@@@?$_Tree_node@U?$pair@$$CBV?$basic_string@DU?$char_traits@D@std@@V?$allocator@D@2@@std@@V?$weak_ptr@VRawImageData@@@2@@std@@PAX@std@@SAXAAV?$allocator@U?$_Tree_node@U?$pair@$$CBV?$basic_string@DU?$char_traits@D@std@@V?$allocator@D@2@@std@@V?$weak_ptr@VRawImageData@@@2@@std@@PAX@std@@@1@PAU01@@Z 00400000 f   GameEngine.obj
 0001:fffff000       __ehhandler$??$_Freenode@V?$allocator@U?$_Tree_node@U?$pair@$$CBV?$basic_string@DU?$char_traits@D@std@@V?$allocator@D@2@@std@@V?$shared_ptr@VRawImageData@@@2@@std@@PAX@std@@@std@@@?$_Tree_node@U?$pair@$$CBV?$basic_string@DU?$char_traits@D@std@@V?$allocator@D@2@@std@@V?$shared_ptr@VRawImageData@@@2@@std@@PAX@std@@SAXAAV?$allocator@U?$_Tree_node@U?$pair@$$CBV?$basic_string@DU?$char_traits@D@std@@V?$allocator@D@2@@std@@V?$shared_ptr@VRawImageData@@@2@@std@@PAX@std@@@1@PAU01@@Z 00400000 f   GameEngine.obj
 0001:fffff000       __ehhandler$??$_Freenode@V?$allocator@U?$_Tree_node@U?$pair@$$CBV?$basic_string@DU?$char_traits@D@std@@V?$allocator@D@2@@std@@V?$weak_ptr@VRawImageData@@@2@@std@@PAX@std@@@std@@@?$_Tree_node@U?$pair@$$CBV?$basic_string@DU?$char_traits@D@std@@V?$allocator@D@2@@std@@V?$weak_ptr@VRawImageData@@@2@@std@@PAX@std@@SAXAAV?$allocator@U?$_Tree_node@U?$pair@$$CBV?$basic_string@DU?$char_traits@D@std@@V?$allocator@D@2@@std@@V?$weak_ptr@VRawImageData@@@2@@std@@PAX@std@@@1@PAU01@@Z 00400000 f   GameEngine.obj
 0001:fffff000       __ehhandler$??$erase@V?$_Tree_iterator@V?$_Tree_val@U?$_Tree_simple_types@U?$pair@$$CBV?$basic_string@DU?$char_traits@D@std@@V?$allocator@D@2@@std@@V?$weak_ptr@VRawImageData@@@2@@std@@@std@@@std@@@std@@$0A@@?$_Tree@V?$_Tmap_traits@V?$basic_string@DU?$char_traits@D@std@@V?$allocator@D@2@@std@@V?$weak_ptr@VRawImageData@@@2@U?$less@V?$basic_string@DU?$char_traits@D@std@@V?$allocator@D@2@@std@@@2@V?$allocator@U?$pair@$$CBV?$basic_string@DU?$char_traits@D@std@@V?$allocator@D@2@@std@@V?$weak_ptr@VRawImageData@@@2@@std@@@2@$0A@@std@@@std@@QAE?AV?$_Tree_iterator@V?$_Tree_val@U?$_Tree_simple_types@U?$pair@$$CBV?$basic_string@DU?$char_traits@D@std@@V?$allocator@D@2@@std@@V?$weak_ptr@VRawImageData@@@2@@std@@@std@@@std@@@1@V21@@Z 00400000 f   GameEngine.obj
 0001:fffff000       __ehhandler$??0?$basic_string@DU?$char_traits@D@std@@V?$allocator@D@2@@std@@QAE@$$QAV01@@Z 00400000 f   GameEngine.obj
 0001:fffff000       __ehhandler$??1?$_Alloc_construct_ptr@V?$allocator@U?$_Tree_node@U?$pair@$$CBV?$basic_string@DU?$char_traits@D@std@@V?$allocator@D@2@@std@@V?$shared_ptr@VRawImageData@@@2@@std@@PAX@std@@@std@@@std@@QAE@XZ 00400000 f   GameEngine.obj
 0001:fffff000       __ehhandler$??1?$_Alloc_construct_ptr@V?$allocator@U?$_Tree_node@U?$pair@$$CBV?$basic_string@DU?$char_traits@D@std@@V?$allocator@D@2@@std@@V?$weak_ptr@VRawImageData@@@2@@std@@PAX@std@@@std@@@std@@QAE@XZ 00400000 f   GameEngine.obj
 0001:fffff000       __ehhandler$??1?$_Tree_temp_node@V?$allocator@U?$_Tree_node@U?$pair@$$CBV?$basic_string@DU?$char_traits@D@std@@V?$allocator@D@2@@std@@V?$shared_ptr@VRawImageData@@@2@@std@@PAX@std@@@std@@@std@@QAE@XZ 00400000 f   GameEngine.obj
 0001:fffff000       __ehhandler$??1?$_Tree_temp_node@V?$allocator@U?$_Tree_node@U?$pair@$$CBV?$basic_string@DU?$char_traits@D@std@@V?$allocator@D@2@@std@@V?$weak_ptr@VRawImageData@@@2@@std@@PAX@std@@@std@@@std@@QAE@XZ 00400000 f   GameEngine.obj
 0001:fffff000       __ehhandler$??1RawImageData@@QAE@XZ 00400000 f   GameEngine.obj
 0001:fffff000       __ehhandler$??1_Sentry_base@?$basic_ostream@DU?$char_traits@D@std@@@std@@QAE@XZ 00400000 f   GameEngine.obj
 0001:fffff000       __ehhandler$??1sentry@?$basic_ostream@DU?$char_traits@D@std@@@std@@QAE@XZ 00400000 f   GameEngine.obj
 0001:fffff000       __ehhandler$?_Erase_unchecked@?$_Tree@V?$_Tmap_traits@V?$basic_string@DU?$char_traits@D@std@@V?$allocator@D@2@@std@@V?$weak_ptr@VRawImageData@@@2@U?$less@V?$basic_string@DU?$char_traits@D@std@@V?$allocator@D@2@@std@@@2@V?$allocator@U?$pair@$$CBV?$basic_string@DU?$char_traits@D@std@@V?$allocator@D@2@@std@@V?$weak_ptr@VRawImageData@@@2@@std@@@2@$0A@@std@@@std@@AAEPAU?$_Tree_node@U?$pair@$$CBV?$basic_string@DU?$char_traits@D@std@@V?$allocator@D@2@@std@@V?$weak_ptr@VRawImageData@@@2@@std@@PAX@2@V?$_Tree_unchecked_const_iterator@V?$_Tree_val@U?$_Tree_simple_types@U?$pair@$$CBV?$basic_string@DU?$char_traits@D@std@@V?$allocator@D@2@@std@@V?$weak_ptr@VRawImageData@@@2@@std@@@std@@@std@@U_Iterator_base0@2@@2@@Z 00400000 f   GameEngine.obj
 0001:fffff000       __ehhandler$?_Extract@?$_Tree_val@U?$_Tree_simple_types@U?$pair@$$CBV?$basic_string@DU?$char_traits@D@std@@V?$allocator@D@2@@std@@V?$weak_ptr@VRawImageData@@@2@@std@@@std@@@std@@QAEPAU?$_Tree_node@U?$pair@$$CBV?$basic_string@DU?$char_traits@D@std@@V?$allocator@D@2@@std@@V?$weak_ptr@VRawImageData@@@2@@std@@PAX@2@V?$_Tree_unchecked_const_iterator@V?$_Tree_val@U?$_Tree_simple_types@U?$pair@$$CBV?$basic_string@DU?$char_traits@D@std@@V?$allocator@D@2@@std@@V?$weak_ptr@VRawImageData@@@2@@std@@@std@@@std@@U_Iterator_base0@2@@2@@Z 00400000 f   GameEngine.obj
 0001:fffff000       __ehhandler$?_Take_contents@?$basic_string@DU?$char_traits@D@std@@V?$allocator@D@2@@std@@AAEXAAV12@U?$integral_constant@_N$00@2@@Z 00400000 f   GameEngine.obj
 0001:fffff000       __ehhandler$?_Tidy_deallocate@?$basic_string@DU?$char_traits@D@std@@V?$allocator@D@2@@std@@AAEXXZ 00400000 f   GameEngine.obj
 0001:fffff000       __unwindfunclet$??$?0U?$pair@V?$basic_string@DU?$char_traits@D@std@@V?$allocator@D@2@@std@@V?$shared_ptr@VRawImageData@@@2@@std@@@?$_Tree_temp_node@V?$allocator@U?$_Tree_node@U?$pair@$$CBV?$basic_string@DU?$char_traits@D@std@@V?$allocator@D@2@@std@@V?$shared_ptr@VRawImageData@@@2@@std@@PAX@std@@@std@@@std@@QAE@AAV?$allocator@U?$_Tree_node@U?$pair@$$CBV?$basic_string@DU?$char_traits@D@std@@V?$allocator@D@2@@std@@V?$shared_ptr@VRawImageData@@@2@@std@@PAX@std@@@1@PAU?$_Tree_node@U?$pair@$$CBV?$basic_string@DU?$char_traits@D@std@@V?$allocator@D@2@@std@@V?$shared_ptr@VRawImageData@@@2@@std@@PAX@1@$$QAU?$pair@V?$basic_string@DU?$char_traits@D@std@@V?$allocator@D@2@@std@@V?$shared_ptr@VRawImageData@@@2@@1@@Z$0 00400000 f   GameEngine.obj
 0001:fffff000       __unwindfunclet$??$?0U?$pair@V?$basic_string@DU?$char_traits@D@std@@V?$allocator@D@2@@std@@V?$weak_ptr@VRawImageData@@@2@@std@@@?$_Tree_temp_node@V?$allocator@U?$_Tree_node@U?$pair@$$CBV?$basic_string@DU?$char_traits@D@std@@V?$allocator@D@2@@std@@V?$weak_ptr@VRawImageData@@@2@@std@@PAX@std@@@std@@@std@@QAE@AAV?$allocator@U?$_Tree_node@U?$pair@$$CBV?$basic_string@DU?$char_traits@D@std@@V?$allocator@D@2@@std@@V?$weak_ptr@VRawImageData@@@2@@std@@PAX@std@@@1@PAU?$_Tree_node@U?$pair@$$CBV?$basic_string@DU?$char_traits@D@std@@V?$allocator@D@2@@std@@V?$weak_ptr@VRawImageData@@@2@@std@@PAX@1@$$QAU?$pair@V?$basic_string@DU?$char_traits@D@std@@V?$allocator@D@2@@std@@V?$weak_ptr@VRawImageData@@@2@@1@@Z$0 00400000 f   GameEngine.obj
 0001:fffff000       __unwindfunclet$??$?0VRawImageData@@$0A@@?$shared_ptr@VRawImageData@@@std@@QAE@PAVRawImageData@@@Z$0 00400000 f   GameEngine.obj
 0001:fffff000       __unwindfunclet$??$?6U?$char_traits@D@std@@@std@@YAAAV?$basic_ostream@DU?$char_traits@D@std@@@0@AAV10@PBD@Z$2 00400000 f   GameEngine.obj
 0001:fffff000       __unwindfunclet$??$_Insert_string@DU?$char_traits@D@std@@I@std@@YAAAV?$basic_ostream@DU?$char_traits@D@std@@@0@AAV10@QBDI@Z$2 00400000 f   GameEngine.obj
 0001:fffff000       __unwindfunclet$??0?$_Tree_temp_node_alloc@V?$allocator@U?$_Tree_node@U?$pair@$$CBV?$basic_string@DU?$char_traits@D@std@@V?$allocator@D@2@@std@@V?$shared_ptr@VRawImageData@@@2@@std@@PAX@std@@@std@@@std@@QAE@AAV?$allocator@U?$_Tree_node@U?$pair@$$CBV?$basic_string@DU?$char_traits@D@std@@V?$allocator@D@2@@std@@V?$shared_ptr@VRawImageData@@@2@@std@@PAX@std@@@1@@Z$0 00400000 f   GameEngine.obj
 0001:fffff000       __unwindfunclet$??0?$_Tree_temp_node_alloc@V?$allocator@U?$_Tree_node@U?$pair@$$CBV?$basic_string@DU?$char_traits@D@std@@V?$allocator@D@2@@std@@V?$weak_ptr@VRawImageData@@@2@@std@@PAX@std@@@std@@@std@@QAE@AAV?$allocator@U?$_Tree_node@U?$pair@$$CBV?$basic_string@DU?$char_traits@D@std@@V?$allocator@D@2@@std@@V?$weak_ptr@VRawImageData@@@2@@std@@PAX@std@@@1@@Z$0 00400000 f   GameEngine.obj
 0001:fffff000       __unwindfunclet$??0?$basic_string@DU?$char_traits@D@std@@V?$allocator@D@2@@std@@QAE@ABV01@@Z$0 00400000 f   GameEngine.obj
 0001:fffff000       __unwindfunclet$??0?$basic_string@DU?$char_traits@D@std@@V?$allocator@D@2@@std@@QAE@QBD@Z$0 00400000 f   GameEngine.obj
 0001:fffff000       __unwindfunclet$??0ImageManager@@QAE@XZ$0 00400000 f   GameEngine.obj
 0001:fffff000       __unwindfunclet$??0RawImageData@@QAE@V?$basic_string@DU?$char_traits@D@std@@V?$allocator@D@2@@std@@@Z$0 00400000 f   GameEngine.obj
 0001:fffff000       __unwindfunclet$??0sentry@?$basic_ostream@DU?$char_traits@D@std@@@std@@QAE@AAV12@@Z$0 00400000 f   GameEngine.obj
 0001:fffff000       __unwindfunclet$??E?$_Vector_const_iterator@V?$_Vector_val@U?$_Simple_types@PAVDisplayableObject@@@std@@@std@@@std@@QAE?AV01@H@Z$0 00400000 f   GameEngine.obj
 0001:fffff000       __unwindfunclet$?_Alloc_sentinel_and_proxy@?$_Tree@V?$_Tmap_traits@V?$basic_string@DU?$char_traits@D@std@@V?$allocator@D@2@@std@@V?$shared_ptr@VRawImageData@@@2@U?$less@V?$basic_string@DU?$char_traits@D@std@@V?$allocator@D@2@@std@@@2@V?$allocator@U?$pair@$$CBV?$basic_string@DU?$char_traits@D@std@@V?$allocator@D@2@@std@@V?$shared_ptr@VRawImageData@@@2@@std@@@2@$0A@@std@@@std@@IAEXXZ$0 00400000 f   GameEngine.obj
 0001:fffff000       __unwindfunclet$?_Alloc_sentinel_and_proxy@?$_Tree@V?$_Tmap_traits@V?$basic_string@DU?$char_traits@D@std@@V?$allocator@D@2@@std@@V?$weak_ptr@VRawImageData@@@2@U?$less@V?$basic_string@DU?$char_traits@D@std@@V?$allocator@D@2@@std@@@2@V?$allocator@U?$pair@$$CBV?$basic_string@DU?$char_traits@D@std@@V?$allocator@D@2@@std@@V?$weak_ptr@VRawImageData@@@2@@std@@@2@$0A@@std@@@std@@IAEXXZ$0 00400000 f   GameEngine.obj
 0001:fffff000       __unwindfunclet$?get@ImageManager@@SAPAV1@XZ$0 00400000 f   GameEngine.obj
 0001:fffff000       __unwindfunclet$?getImagePtrbyURL@ImageManager@@QAE?AV?$shared_ptr@VRawImageData@@@std@@V?$basic_string@DU?$char_traits@D@std@@V?$allocator@D@2@@3@_N1@Z$0 00400000 f   GameEngine.obj
 0001:fffff000       __unwindfunclet$?getImagebyURL@ImageManager@@QAE?AVSimpleImage@@V?$basic_string@DU?$char_traits@D@std@@V?$allocator@D@2@@std@@_N1@Z$0 00400000 f   GameEngine.obj
 0001:fffff000       __unwindfunclet$?loadAsNew@ImageManager@@QAE?AV?$shared_ptr@VRawImageData@@@std@@V?$basic_string@DU?$char_traits@D@std@@V?$allocator@D@2@@3@@Z$0 00400000 f   GameEngine.obj
 0001:fffff000       __unwindfunclet$?loadImage@ImageManager@@SA?AVSimpleImage@@V?$basic_string@DU?$char_traits@D@std@@V?$allocator@D@2@@std@@_N@Z$0 00400000 f   GameEngine.obj
 0001:fffff000       __unwindfunclet$?loadImage@RawImageData@@QAE_NV?$basic_string@DU?$char_traits@D@std@@V?$allocator@D@2@@std@@HHHHH_N@Z$0 00400000 f   GameEngine.obj
 0001:fffff000       __unwindfunclet$?setAllObjectsVisible@DisplayableObjectContainer@@QBEX_N@Z$0 00400000 f   GameEngine.obj
 0002:fffc9000       __unwindtable$??$?0U?$pair@V?$basic_string@DU?$char_traits@D@std@@V?$allocator@D@2@@std@@V?$shared_ptr@VRawImageData@@@2@@std@@@?$_Tree_temp_node@V?$allocator@U?$_Tree_node@U?$pair@$$CBV?$basic_string@DU?$char_traits@D@std@@V?$allocator@D@2@@std@@V?$shared_ptr@VRawImageData@@@2@@std@@PAX@std@@@std@@@std@@QAE@AAV?$allocator@U?$_Tree_node@U?$pair@$$CBV?$basic_string@DU?$char_traits@D@std@@V?$allocator@D@2@@std@@V?$shared_ptr@VRawImageData@@@2@@std@@PAX@std@@@1@PAU?$_Tree_node@U?$pair@$$CBV?$basic_string@DU?$char_traits@D@std@@V?$allocator@D@2@@std@@V?$shared_ptr@VRawImageData@@@2@@std@@PAX@1@$$QAU?$pair@V?$basic_string@DU?$char_traits@D@std@@V?$allocator@D@2@@std@@V?$shared_ptr@VRawImageData@@@2@@1@@Z 00400000     GameEngine.obj
 0002:fffc9000       __unwindtable$??$?0U?$pair@V?$basic_string@DU?$char_traits@D@std@@V?$allocator@D@2@@std@@V?$weak_ptr@VRawImageData@@@2@@std@@@?$_Tree_temp_node@V?$allocator@U?$_Tree_node@U?$pair@$$CBV?$basic_string@DU?$char_traits@D@std@@V?$allocator@D@2@@std@@V?$weak_ptr@VRawImageData@@@2@@std@@PAX@std@@@std@@@std@@QAE@AAV?$allocator@U?$_Tree_node@U?$pair@$$CBV?$basic_string@DU?$char_traits@D@std@@V?$allocator@D@2@@std@@V?$weak_ptr@VRawImageData@@@2@@std@@PAX@std@@@1@PAU?$_Tree_node@U?$pair@$$CBV?$basic_string@DU?$char_traits@D@std@@V?$allocator@D@2@@std@@V?$weak_ptr@VRawImageData@@@2@@std@@PAX@1@$$QAU?$pair@V?$basic_string@DU?$char_traits@D@std@@V?$allocator@D@2@@std@@V?$weak_ptr@VRawImageData@@@2@@1@@Z 00400000     GameEngine.obj
 0002:fffc9000       __unwindtable$??$?0VRawImageData@@$0A@@?$shared_ptr@VRawImageData@@@std@@QAE@PAVRawImageData@@@Z 00400000     GameEngine.obj
 0002:fffc9000       __unwindtable$??0?$_Tree_temp_node_alloc@V?$allocator@U?$_Tree_node@U?$pair@$$CBV?$basic_string@DU?$char_traits@D@std@@V?$allocator@D@2@@std@@V?$shared_ptr@VRawImageData@@@2@@std@@PAX@std@@@std@@@std@@QAE@AAV?$allocator@U?$_Tree_node@U?$pair@$$CBV?$basic_string@DU?$char_traits@D@std@@V?$allocator@D@2@@std@@V?$shared_ptr@VRawImageData@@@2@@std@@PAX@std@@@1@@Z 00400000     GameEngine.obj
 0002:fffc9000       __unwindtable$??0?$_Tree_temp_node_alloc@V?$allocator@U?$_Tree_node@U?$pair@$$CBV?$basic_string@DU?$char_traits@D@std@@V?$allocator@D@2@@std@@V?$weak_ptr@VRawImageData@@@2@@std@@PAX@std@@@std@@@std@@QAE@AAV?$allocator@U?$_Tree_node@U?$pair@$$CBV?$basic_string@DU?$char_traits@D@std@@V?$allocator@D@2@@std@@V?$weak_ptr@VRawImageData@@@2@@std@@PAX@std@@@1@@Z 00400000     GameEngine.obj
 0002:fffc9000       __unwindtable$??0?$basic_string@DU?$char_traits@D@std@@V?$allocator@D@2@@std@@QAE@ABV01@@Z 00400000     GameEngine.obj
 0002:fffc9000       __unwindtable$??0?$basic_string@DU?$char_traits@D@std@@V?$allocator@D@2@@std@@QAE@QBD@Z 00400000     GameEngine.obj
 0002:fffc9000       __unwindtable$??0ImageManager@@QAE@XZ 00400000     GameEngine.obj
 0002:fffc9000       __unwindtable$??0RawImageData@@QAE@V?$basic_string@DU?$char_traits@D@std@@V?$allocator@D@2@@std@@@Z 00400000     GameEngine.obj
 0002:fffc9000       __unwindtable$??0sentry@?$basic_ostream@DU?$char_traits@D@std@@@std@@QAE@AAV12@@Z 00400000     GameEngine.obj
 0002:fffc9000       __unwindtable$??E?$_Vector_const_iterator@V?$_Vector_val@U?$_Simple_types@PAVDisplayableObject@@@std@@@std@@@std@@QAE?AV01@H@Z 00400000     GameEngine.obj
 0002:fffc9000       __unwindtable$?_Alloc_sentinel_and_proxy@?$_Tree@V?$_Tmap_traits@V?$basic_string@DU?$char_traits@D@std@@V?$allocator@D@2@@std@@V?$shared_ptr@VRawImageData@@@2@U?$less@V?$basic_string@DU?$char_traits@D@std@@V?$allocator@D@2@@std@@@2@V?$allocator@U?$pair@$$CBV?$basic_string@DU?$char_traits@D@std@@V?$allocator@D@2@@std@@V?$shared_ptr@VRawImageData@@@2@@std@@@2@$0A@@std@@@std@@IAEXXZ 00400000     GameEngine.obj
 0002:fffc9000       __unwindtable$?_Alloc_sentinel_and_proxy@?$_Tree@V?$_Tmap_traits@V?$basic_string@DU?$char_traits@D@std@@V?$allocator@D@2@@std@@V?$weak_ptr@VRawImageData@@@2@U?$less@V?$basic_string@DU?$char_traits@D@std@@V?$allocator@D@2@@std@@@2@V?$allocator@U?$pair@$$CBV?$basic_string@DU?$char_traits@D@std@@V?$allocator@D@2@@std@@V?$weak_ptr@VRawImageData@@@2@@std@@@2@$0A@@std@@@std@@IAEXXZ 00400000     GameEngine.obj
 0002:fffc9000       __unwindtable$?get@ImageManager@@SAPAV1@XZ 00400000     GameEngine.obj
 0002:fffc9000       __unwindtable$?getImagebyURL@ImageManager@@QAE?AVSimpleImage@@V?$basic_string@DU?$char_traits@D@std@@V?$allocator@D@2@@std@@_N1@Z 00400000     GameEngine.obj
 0002:fffc9000       __unwindtable$?loadAsNew@ImageManager@@QAE?AV?$shared_ptr@VRawImageData@@@std@@V?$basic_string@DU?$char_traits@D@std@@V?$allocator@D@2@@3@@Z 00400000     GameEngine.obj
 0002:fffc9000       __unwindtable$?loadImage@ImageManager@@SA?AVSimpleImage@@V?$basic_string@DU?$char_traits@D@std@@V?$allocator@D@2@@std@@_N@Z 00400000     GameEngine.obj
 0002:fffc9000       __unwindtable$?loadImage@RawImageData@@QAE_NV?$basic_string@DU?$char_traits@D@std@@V?$allocator@D@2@@std@@HHHHH_N@Z 00400000     GameEngine.obj
 0002:fffc9000       __unwindtable$?setAllObjectsVisible@DisplayableObjectContainer@@QBEX_N@Z 00400000     GameEngine.obj
 0002:fffc9000       __catchsym$??$?6U?$char_traits@D@std@@@std@@YAAAV?$basic_ostream@DU?$char_traits@D@std@@@0@AAV10@PBD@Z$3 00400000     GameMainObject.obj
 0002:fffc9000       __catchsym$??$_Insert_string@DU?$char_traits@D@std@@I@std@@YAAAV?$basic_ostream@DU?$char_traits@D@std@@@0@AAV10@QBDI@Z$3 00400000     GameMainObject.obj
 0002:fffc9000       __ehfuncinfo$??$_Deallocate@$07$0A@@std@@YAXPAXI@Z 00400000     GameMainObject.obj
 0002:fffc9000       __ehfuncinfo$??$_Deallocate_plain@V?$allocator@U_Container_proxy@std@@@std@@@std@@YAXAAV?$allocator@U_Container_proxy@std@@@0@QAU_Container_proxy@0@@Z 00400000     GameMainObject.obj
 0002:fffc9000       __ehfuncinfo$??$_Freenode0@V?$allocator@U?$_Tree_node@U?$pair@$$CBV?$basic_string@DU?$char_traits@D@std@@V?$allocator@D@2@@std@@V?$shared_ptr@VRawImageData@@@2@@std@@PAX@std@@@std@@@?$_Tree_node@U?$pair@$$CBV?$basic_string@DU?$char_traits@D@std@@V?$allocator@D@2@@std@@V?$shared_ptr@VRawImageData@@@2@@std@@PAX@std@@SAXAAV?$allocator@U?$_Tree_node@U?$pair@$$CBV?$basic_string@DU?$char_traits@D@std@@V?$allocator@D@2@@std@@V?$shared_ptr@VRawImageData@@@2@@std@@PAX@std@@@1@PAU01@@Z 00400000     GameMainObject.obj
 0002:fffc9000       __ehfuncinfo$??$_Freenode0@V?$allocator@U?$_Tree_node@U?$pair@$$CBV?$basic_string@DU?$char_traits@D@std@@V?$allocator@D@2@@std@@V?$weak_ptr@VRawImageData@@@2@@std@@PAX@std@@@std@@@?$_Tree_node@U?$pair@$$CBV?$basic_string@DU?$char_traits@D@std@@V?$allocator@D@2@@std@@V?$weak_ptr@VRawImageData@@@2@@std@@PAX@std@@SAXAAV?$allocator@U?$_Tree_node@U?$pair@$$CBV?$basic_string@DU?$char_traits@D@std@@V?$allocator@D@2@@std@@V?$weak_ptr@VRawImageData@@@2@@std@@PAX@std@@@1@PAU01@@Z 00400000     GameMainObject.obj
 0002:fffc9000       __ehfuncinfo$??$_Freenode@V?$allocator@U?$_Tree_node@U?$pair@$$CBV?$basic_string@DU?$char_traits@D@std@@V?$allocator@D@2@@std@@V?$shared_ptr@VRawImageData@@@2@@std@@PAX@std@@@std@@@?$_Tree_node@U?$pair@$$CBV?$basic_string@DU?$char_traits@D@std@@V?$allocator@D@2@@std@@V?$shared_ptr@VRawImageData@@@2@@std@@PAX@std@@SAXAAV?$allocator@U?$_Tree_node@U?$pair@$$CBV?$basic_string@DU?$char_traits@D@std@@V?$allocator@D@2@@std@@V?$shared_ptr@VRawImageData@@@2@@std@@PAX@std@@@1@PAU01@@Z 00400000     GameMainObject.obj
 0002:fffc9000       __ehfuncinfo$??$_Freenode@V?$allocator@U?$_Tree_node@U?$pair@$$CBV?$basic_string@DU?$char_traits@D@std@@V?$allocator@D@2@@std@@V?$weak_ptr@VRawImageData@@@2@@std@@PAX@std@@@std@@@?$_Tree_node@U?$pair@$$CBV?$basic_string@DU?$char_traits@D@std@@V?$allocator@D@2@@std@@V?$weak_ptr@VRawImageData@@@2@@std@@PAX@std@@SAXAAV?$allocator@U?$_Tree_node@U?$pair@$$CBV?$basic_string@DU?$char_traits@D@std@@V?$allocator@D@2@@std@@V?$weak_ptr@VRawImageData@@@2@@std@@PAX@std@@@1@PAU01@@Z 00400000     GameMainObject.obj
 0002:fffc9000       __ehfuncinfo$??$erase@V?$_Tree_iterator@V?$_Tree_val@U?$_Tree_simple_types@U?$pair@$$CBV?$basic_string@DU?$char_traits@D@std@@V?$allocator@D@2@@std@@V?$weak_ptr@VRawImageData@@@2@@std@@@std@@@std@@@std@@$0A@@?$_Tree@V?$_Tmap_traits@V?$basic_string@DU?$char_traits@D@std@@V?$allocator@D@2@@std@@V?$weak_ptr@VRawImageData@@@2@U?$less@V?$basic_string@DU?$char_traits@D@std@@V?$allocator@D@2@@std@@@2@V?$allocator@U?$pair@$$CBV?$basic_string@DU?$char_traits@D@std@@V?$allocator@D@2@@std@@V?$weak_ptr@VRawImageData@@@2@@std@@@2@$0A@@std@@@std@@QAE?AV?$_Tree_iterator@V?$_Tree_val@U?$_Tree_simple_types@U?$pair@$$CBV?$basic_string@DU?$char_traits@D@std@@V?$allocator@D@2@@std@@V?$weak_ptr@VRawImageData@@@2@@std@@@std@@@std@@@1@V21@@Z 00400000     GameMainObject.obj
 0002:fffc9000       __ehfuncinfo$??0?$basic_string@DU?$char_traits@D@std@@V?$allocator@D@2@@std@@QAE@$$QAV01@@Z 00400000     GameMainObject.obj
 0002:fffc9000       __ehfuncinfo$??1?$_Alloc_construct_ptr@V?$allocator@U?$_Tree_node@U?$pair@$$CBV?$basic_string@DU?$char_traits@D@std@@V?$allocator@D@2@@std@@V?$shared_ptr@VRawImageData@@@2@@std@@PAX@std@@@std@@@std@@QAE@XZ 00400000     GameMainObject.obj
 0002:fffc9000       __ehfuncinfo$??1?$_Alloc_construct_ptr@V?$allocator@U?$_Tree_node@U?$pair@$$CBV?$basic_string@DU?$char_traits@D@std@@V?$allocator@D@2@@std@@V?$weak_ptr@VRawImageData@@@2@@std@@PAX@std@@@std@@@std@@QAE@XZ 00400000     GameMainObject.obj
 0002:fffc9000       __ehfuncinfo$??1?$_Tree_temp_node@V?$allocator@U?$_Tree_node@U?$pair@$$CBV?$basic_string@DU?$char_traits@D@std@@V?$allocator@D@2@@std@@V?$shared_ptr@VRawImageData@@@2@@std@@PAX@std@@@std@@@std@@QAE@XZ 00400000     GameMainObject.obj
 0002:fffc9000       __ehfuncinfo$??1?$_Tree_temp_node@V?$allocator@U?$_Tree_node@U?$pair@$$CBV?$basic_string@DU?$char_traits@D@std@@V?$allocator@D@2@@std@@V?$weak_ptr@VRawImageData@@@2@@std@@PAX@std@@@std@@@std@@QAE@XZ 00400000     GameMainObject.obj
 0002:fffc9000       __ehfuncinfo$??1RawImageData@@QAE@XZ 00400000     GameMainObject.obj
 0002:fffc9000       __ehfuncinfo$??1_Sentry_base@?$basic_ostream@DU?$char_traits@D@std@@@std@@QAE@XZ 00400000     GameMainObject.obj
 0002:fffc9000       __ehfuncinfo$??1sentry@?$basic_ostream@DU?$char_traits@D@std@@@std@@QAE@XZ 00400000     GameMainObject.obj
 0002:fffc9000       __ehfuncinfo$?_Erase_unchecked@?$_Tree@V?$_Tmap_traits@V?$basic_string@DU?$char_traits@D@std@@V?$allocator@D@2@@std@@V?$weak_ptr@VRawImageData@@@2@U?$less@V?$basic_string@DU?$char_traits@D@std@@V?$allocator@D@2@@std@@@2@V?$allocator@U?$pair@$$CBV?$basic_string@DU?$char_traits@D@std@@V?$allocator@D@2@@std@@V?$weak_ptr@VRawImageData@@@2@@std@@@2@$0A@@std@@@std@@AAEPAU?$_Tree_node@U?$pair@$$CBV?$basic_string@DU?$char_traits@D@std@@V?$allocator@D@2@@std@@V?$weak_ptr@VRawImageData@@@2@@std@@PAX@2@V?$_Tree_unchecked_const_iterator@V?$_Tree_val@U?$_Tree_simple_types@U?$pair@$$CBV?$basic_string@DU?$char_traits@D@std@@V?$allocator@D@2@@std@@V?$weak_ptr@VRawImageData@@@2@@std@@@std@@@std@@U_Iterator_base0@2@@2@@Z 00400000     GameMainObject.obj
 0002:fffc9000       __ehfuncinfo$?_Extract@?$_Tree_val@U?$_Tree_simple_types@U?$pair@$$CBV?$basic_string@DU?$char_traits@D@std@@V?$allocator@D@2@@std@@V?$weak_ptr@VRawImageData@@@2@@std@@@std@@@std@@QAEPAU?$_Tree_node@U?$pair@$$CBV?$basic_string@DU?$char_traits@D@std@@V?$allocator@D@2@@std@@V?$weak_ptr@VRawImageData@@@2@@std@@PAX@2@V?$_Tree_unchecked_const_iterator@V?$_Tree_val@U?$_Tree_simple_types@U?$pair@$$CBV?$basic_string@DU?$char_traits@D@std@@V?$allocator@D@2@@std@@V?$weak_ptr@VRawImageData@@@2@@std@@@std@@@std@@U_Iterator_base0@2@@2@@Z 00400000     GameMainObject.obj
 0002:fffc9000       __ehfuncinfo$?_Take_contents@?$basic_string@DU?$char_traits@D@std@@V?$allocator@D@2@@std@@AAEXAAV12@U?$integral_constant@_N$00@2@@Z 00400000     GameMainObject.obj
 0002:fffc9000       __ehfuncinfo$?_Tidy_deallocate@?$basic_string@DU?$char_traits@D@std@@V?$allocator@D@2@@std@@AAEXXZ 00400000     GameMainObject.obj
 0002:fffc9000       __ehfuncinfo$?getImagePtrbyURL@ImageManager@@QAE?AV?$shared_ptr@VRawImageData@@@std@@V?$basic_string@DU?$char_traits@D@std@@V?$allocator@D@2@@3@_N1@Z 00400000     GameMainObject.obj
 0001:fffff000       __ehhandler$??$_Deallocate@$07$0A@@std@@YAXPAXI@Z 00400000 f   GameMainObject.obj
 0001:fffff000       __ehhandler$??$_Deallocate_plain@V?$allocator@U_Container_proxy@std@@@std@@@std@@YAXAAV?$allocator@U_Container_proxy@std@@@0@QAU_Container_proxy@0@@Z 00400000 f   GameMainObject.obj
 0001:fffff000       __ehhandler$??$_Freenode0@V?$allocator@U?$_Tree_node@U?$pair@$$CBV?$basic_string@DU?$char_traits@D@std@@V?$allocator@D@2@@std@@V?$shared_ptr@VRawImageData@@@2@@std@@PAX@std@@@std@@@?$_Tree_node@U?$pair@$$CBV?$basic_string@DU?$char_traits@D@std@@V?$allocator@D@2@@std@@V?$shared_ptr@VRawImageData@@@2@@std@@PAX@std@@SAXAAV?$allocator@U?$_Tree_node@U?$pair@$$CBV?$basic_string@DU?$char_traits@D@std@@V?$allocator@D@2@@std@@V?$shared_ptr@VRawImageData@@@2@@std@@PAX@std@@@1@PAU01@@Z 00400000 f   GameMainObject.obj
 0001:fffff000       __ehhandler$??$_Freenode0@V?$allocator@U?$_Tree_node@U?$pair@$$CBV?$basic_string@DU?$char_traits@D@std@@V?$allocator@D@2@@std@@V?$weak_ptr@VRawImageData@@@2@@std@@PAX@std@@@std@@@?$_Tree_node@U?$pair@$$CBV?$basic_string@DU?$char_traits@D@std@@V?$allocator@D@2@@std@@V?$weak_ptr@VRawImageData@@@2@@std@@PAX@std@@SAXAAV?$allocator@U?$_Tree_node@U?$pair@$$CBV?$basic_string@DU?$char_traits@D@std@@V?$allocator@D@2@@std@@V?$weak_ptr@VRawImageData@@@2@@std@@PAX@std@@@1@PAU01@@Z 00400000 f   GameMainObject.obj
 0001:fffff000       __ehhandler$??$_Freenode@V?$allocator@U?$_Tree_node@U?$pair@$$CBV?$basic_string@DU?$char_traits@D@std@@V?$allocator@D@2@@std@@V?$shared_ptr@VRawImageData@@@2@@std@@PAX@std@@@std@@@?$_Tree_node@U?$pair@$$CBV?$basic_string@DU?$char_traits@D@std@@V?$allocator@D@2@@std@@V?$shared_ptr@VRawImageData@@@2@@std@@PAX@std@@SAXAAV?$allocator@U?$_Tree_node@U?$pair@$$CBV?$basic_string@DU?$char_traits@D@std@@V?$allocator@D@2@@std@@V?$shared_ptr@VRawImageData@@@2@@std@@PAX@std@@@1@PAU01@@Z 00400000 f   GameMainObject.obj
 0001:fffff000       __ehhandler$??$_Freenode@V?$allocator@U?$_Tree_node@U?$pair@$$CBV?$basic_string@DU?$char_traits@D@std@@V?$allocator@D@2@@std@@V?$weak_ptr@VRawImageData@@@2@@std@@PAX@std@@@std@@@?$_Tree_node@U?$pair@$$CBV?$basic_string@DU?$char_traits@D@std@@V?$allocator@D@2@@std@@V?$weak_ptr@VRawImageData@@@2@@std@@PAX@std@@SAXAAV?$allocator@U?$_Tree_node@U?$pair@$$CBV?$basic_string@DU?$char_traits@D@std@@V?$allocator@D@2@@std@@V?$weak_ptr@VRawImageData@@@2@@std@@PAX@std@@@1@PAU01@@Z 00400000 f   GameMainObject.obj
 0001:fffff000       __ehhandler$??$erase@V?$_Tree_iterator@V?$_Tree_val@U?$_Tree_simple_types@U?$pair@$$CBV?$basic_string@DU?$char_traits@D@std@@V?$allocator@D@2@@std@@V?$weak_ptr@VRawImageData@@@2@@std@@@std@@@std@@@std@@$0A@@?$_Tree@V?$_Tmap_traits@V?$basic_string@DU?$char_traits@D@std@@V?$allocator@D@2@@std@@V?$weak_ptr@VRawImageData@@@2@U?$less@V?$basic_string@DU?$char_traits@D@std@@V?$allocator@D@2@@std@@@2@V?$allocator@U?$pair@$$CBV?$basic_string@DU?$char_traits@D@std@@V?$allocator@D@2@@std@@V?$weak_ptr@VRawImageData@@@2@@std@@@2@$0A@@std@@@std@@QAE?AV?$_Tree_iterator@V?$_Tree_val@U?$_Tree_simple_types@U?$pair@$$CBV?$basic_string@DU?$char_traits@D@std@@V?$allocator@D@2@@std@@V?$weak_ptr@VRawImageData@@@2@@std@@@std@@@std@@@1@V21@@Z 00400000 f   GameMainObject.obj
 0001:fffff000       __ehhandler$??0?$basic_string@DU?$char_traits@D@std@@V?$allocator@D@2@@std@@QAE@$$QAV01@@Z 00400000 f   GameMainObject.obj
 0001:fffff000       __ehhandler$??1?$_Alloc_construct_ptr@V?$allocator@U?$_Tree_node@U?$pair@$$CBV?$basic_string@DU?$char_traits@D@std@@V?$allocator@D@2@@std@@V?$shared_ptr@VRawImageData@@@2@@std@@PAX@std@@@std@@@std@@QAE@XZ 00400000 f   GameMainObject.obj
 0001:fffff000       __ehhandler$??1?$_Alloc_construct_ptr@V?$allocator@U?$_Tree_node@U?$pair@$$CBV?$basic_string@DU?$char_traits@D@std@@V?$allocator@D@2@@std@@V?$weak_ptr@VRawImageData@@@2@@std@@PAX@std@@@std@@@std@@QAE@XZ 00400000 f   GameMainObject.obj
 0001:fffff000       __ehhandler$??1?$_Tree_temp_node@V?$allocator@U?$_Tree_node@U?$pair@$$CBV?$basic_string@DU?$char_traits@D@std@@V?$allocator@D@2@@std@@V?$shared_ptr@VRawImageData@@@2@@std@@PAX@std@@@std@@@std@@QAE@XZ 00400000 f   GameMainObject.obj
 0001:fffff000       __ehhandler$??1?$_Tree_temp_node@V?$allocator@U?$_Tree_node@U?$pair@$$CBV?$basic_string@DU?$char_traits@D@std@@V?$allocator@D@2@@std@@V?$weak_ptr@VRawImageData@@@2@@std@@PAX@std@@@std@@@std@@QAE@XZ 00400000 f   GameMainObject.obj
 0001:fffff000       __ehhandler$??1RawImageData@@QAE@XZ 00400000 f   GameMainObject.obj
 0001:fffff000       __ehhandler$??1_Sentry_base@?$basic_ostream@DU?$char_traits@D@std@@@std@@QAE@XZ 00400000 f   GameMainObject.obj
 0001:fffff000       __ehhandler$??1sentry@?$basic_ostream@DU?$char_traits@D@std@@@std@@QAE@XZ 00400000 f   GameMainObject.obj
 0001:fffff000       __ehhandler$?_Erase_unchecked@?$_Tree@V?$_Tmap_traits@V?$basic_string@DU?$char_traits@D@std@@V?$allocator@D@2@@std@@V?$weak_ptr@VRawImageData@@@2@U?$less@V?$basic_string@DU?$char_traits@D@std@@V?$allocator@D@2@@std@@@2@V?$allocator@U?$pair@$$CBV?$basic_string@DU?$char_traits@D@std@@V?$allocator@D@2@@std@@V?$weak_ptr@VRawImageData@@@2@@std@@@2@$0A@@std@@@std@@AAEPAU?$_Tree_node@U?$pair@$$CBV?$basic_string@DU?$char_traits@D@std@@V?$allocator@D@2@@std@@V?$weak_ptr@VRawImageData@@@2@@std@@PAX@2@V?$_Tree_unchecked_const_iterator@V?$_Tree_val@U?$_Tree_simple_types@U?$pair@$$CBV?$basic_string@DU?$char_traits@D@std@@V?$allocator@D@2@@std@@V?$weak_ptr@VRawImageData@@@2@@std@@@std@@@std@@U_Iterator_base0@2@@2@@Z 00400000 f   GameMainObject.obj
 0001:fffff000       __ehhandler$?_Extract@?$_Tree_val@U?$_Tree_simple_types@U?$pair@$$CBV?$basic_string@DU?$char_traits@D@std@@V?$allocator@D@2@@std@@V?$weak_ptr@VRawImageData@@@2@@std@@@std@@@std@@QAEPAU?$_Tree_node@U?$pair@$$CBV?$basic_string@DU?$char_traits@D@std@@V?$allocator@D@2@@std@@V?$weak_ptr@VRawImageData@@@2@@std@@PAX@2@V?$_Tree_unchecked_const_iterator@V?$_Tree_val@U?$_Tree_simple_types@U?$pair@$$CBV?$basic_string@DU?$char_traits@D@std@@V?$allocator@D@2@@std@@V?$weak_ptr@VRawImageData@@@2@@std@@@std@@@std@@U_Iterator_base0@2@@2@@Z 00400000 f   GameMainObject.obj
 0001:fffff000       __ehhandler$?_Take_contents@?$basic_string@DU?$char_traits@D@std@@V?$allocator@D@2@@std@@AAEXAAV12@U?$integral_constant@_N$00@2@@Z 00400000 f   GameMainObject.obj
 0001:fffff000       __ehhandler$?_Tidy_deallocate@?$basic_string@DU?$char_traits@D@std@@V?$allocator@D@2@@std@@AAEXXZ 00400000 f   GameMainObject.obj
 0001:fffff000       __unwindfunclet$??$?0U?$pair@V?$basic_string@DU?$char_traits@D@std@@V?$allocator@D@2@@std@@V?$shared_ptr@VRawImageData@@@2@@std@@@?$_Tree_temp_node@V?$allocator@U?$_Tree_node@U?$pair@$$CBV?$basic_string@DU?$char_traits@D@std@@V?$allocator@D@2@@std@@V?$shared_ptr@VRawImageData@@@2@@std@@PAX@std@@@std@@@std@@QAE@AAV?$allocator@U?$_Tree_node@U?$pair@$$CBV?$basic_string@DU?$char_traits@D@std@@V?$allocator@D@2@@std@@V?$shared_ptr@VRawImageData@@@2@@std@@PAX@std@@@1@PAU?$_Tree_node@U?$pair@$$CBV?$basic_string@DU?$char_traits@D@std@@V?$allocator@D@2@@std@@V?$shared_ptr@VRawImageData@@@2@@std@@PAX@1@$$QAU?$pair@V?$basic_string@DU?$char_traits@D@std@@V?$allocator@D@2@@std@@V?$shared_ptr@VRawImageData@@@2@@1@@Z$0 00400000 f   GameMainObject.obj
 0001:fffff000       __unwindfunclet$??$?0U?$pair@V?$basic_string@DU?$char_traits@D@std@@V?$allocator@D@2@@std@@V?$weak_ptr@VRawImageData@@@2@@std@@@?$_Tree_temp_node@V?$allocator@U?$_Tree_node@U?$pair@$$CBV?$basic_string@DU?$char_traits@D@std@@V?$allocator@D@2@@std@@V?$weak_ptr@VRawImageData@@@2@@std@@PAX@std@@@std@@@std@@QAE@AAV?$allocator@U?$_Tree_node@U?$pair@$$CBV?$basic_string@DU?$char_traits@D@std@@V?$allocator@D@2@@std@@V?$weak_ptr@VRawImageData@@@2@@std@@PAX@std@@@1@PAU?$_Tree_node@U?$pair@$$CBV?$basic_string@DU?$char_traits@D@std@@V?$allocator@D@2@@std@@V?$weak_ptr@VRawImageData@@@2@@std@@PAX@1@$$QAU?$pair@V?$basic_string@DU?$char_traits@D@std@@V?$allocator@D@2@@std@@V?$weak_ptr@VRawImageData@@@2@@1@@Z$0 00400000 f   GameMainObject.obj
 0001:fffff000       __unwindfunclet$??$?0VRawImageData@@$0A@@?$shared_ptr@VRawImageData@@@std@@QAE@PAVRawImageData@@@Z$0 00400000 f   GameMainObject.obj
 0001:fffff000       __unwindfunclet$??$?6U?$char_traits@D@std@@@std@@YAAAV?$basic_ostream@DU?$char_traits@D@std@@@0@AAV10@PBD@Z$2 00400000 f   GameMainObject.obj
 0001:fffff000       __unwindfunclet$??$_Insert_string@DU?$char_traits@D@std@@I@std@@YAAAV?$basic_ostream@DU?$char_traits@D@std@@@0@AAV10@QBDI@Z$2 00400000 f   GameMainObject.obj
 0001:fffff000       __unwindfunclet$??0?$_Tree_temp_node_alloc@V?$allocator@U?$_Tree_node@U?$pair@$$CBV?$basic_string@DU?$char_traits@D@std@@V?$allocator@D@2@@std@@V?$shared_ptr@VRawImageData@@@2@@std@@PAX@std@@@std@@@std@@QAE@AAV?$allocator@U?$_Tree_node@U?$pair@$$CBV?$basic_string@DU?$char_traits@D@std@@V?$allocator@D@2@@std@@V?$shared_ptr@VRawImageData@@@2@@std@@PAX@std@@@1@@Z$0 00400000 f   GameMainObject.obj
 0001:fffff000       __unwindfunclet$??0?$_Tree_temp_node_alloc@V?$allocator@U?$_Tree_node@U?$pair@$$CBV?$basic_string@DU?$char_traits@D@std@@V?$allocator@D@2@@std@@V?$weak_ptr@VRawImageData@@@2@@std@@PAX@std@@@std@@@std@@QAE@AAV?$allocator@U?$_Tree_node@U?$pair@$$CBV?$basic_string@DU?$char_traits@D@std@@V?$allocator@D@2@@std@@V?$weak_ptr@VRawImageData@@@2@@std@@PAX@std@@@1@@Z$0 00400000 f   GameMainObject.obj
 0001:fffff000       __unwindfunclet$??0?$basic_string@DU?$char_traits@D@std@@V?$allocator@D@2@@std@@QAE@ABV01@@Z$0 00400000 f   GameMainObject.obj
 0001:fffff000       __unwindfunclet$??0?$basic_string@DU?$char_traits@D@std@@V?$allocator@D@2@@std@@QAE@QBD@Z$0 00400000 f   GameMainObject.obj
 0001:fffff000       __unwindfunclet$??0ImageManager@@QAE@XZ$0 00400000 f   GameMainObject.obj
 0001:fffff000       __unwindfunclet$??0RawImageData@@QAE@V?$basic_string@DU?$char_traits@D@std@@V?$allocator@D@2@@std@@@Z$0 00400000 f   GameMainObject.obj
 0001:fffff000       __unwindfunclet$??0sentry@?$basic_ostream@DU?$char_traits@D@std@@@std@@QAE@AAV12@@Z$0 00400000 f   GameMainObject.obj
 0001:fffff000       __unwindfunclet$?_Alloc_sentinel_and_proxy@?$_Tree@V?$_Tmap_traits@V?$basic_string@DU?$char_traits@D@std@@V?$allocator@D@2@@std@@V?$shared_ptr@VRawImageData@@@2@U?$less@V?$basic_string@DU?$char_traits@D@std@@V?$allocator@D@2@@std@@@2@V?$allocator@U?$pair@$$CBV?$basic_string@DU?$char_traits@D@std@@V?$allocator@D@2@@std@@V?$shared_ptr@VRawImageData@@@2@@std@@@2@$0A@@std@@@std@@IAEXXZ$0 00400000 f   GameMainObject.obj
 0001:fffff000       __unwindfunclet$?_Alloc_sentinel_and_proxy@?$_Tree@V?$_Tmap_traits@V?$basic_string@DU?$char_traits@D@std@@V?$allocator@D@2@@std@@V?$weak_ptr@VRawImageData@@@2@U?$less@V?$basic_string@DU?$char_traits@D@std@@V?$allocator@D@2@@std@@@2@V?$allocator@U?$pair@$$CBV?$basic_string@DU?$char_traits@D@std@@V?$allocator@D@2@@std@@V?$weak_ptr@VRawImageData@@@2@@std@@@2@$0A@@std@@@std@@IAEXXZ$0 00400000 f   GameMainObject.obj
 0001:fffff000       __unwindfunclet$?get@ImageManager@@SAPAV1@XZ$0 00400000 f   GameMainObject.obj
 0001:fffff000       __unwindfunclet$?getImagePtrbyURL@ImageManager@@QAE?AV?$shared_ptr@VRawImageData@@@std@@V?$basic_string@DU?$char_traits@D@std@@V?$allocator@D@2@@3@_N1@Z$0 00400000 f   GameMainObject.obj
 0001:fffff000       __unwindfunclet$?getImagebyURL@ImageManager@@QAE?AVSimpleImage@@V?$basic_string@DU?$char_traits@D@std@@V?$allocator@D@2@@std@@_N1@Z$0 00400000 f   GameMainObject.obj
 0001:fffff000       __unwindfunclet$?loadAsNew@ImageManager@@QAE?AV?$shared_ptr@VRawImageData@@@std@@V?$basic_string@DU?$char_traits@D@std@@V?$allocator@D@2@@3@@Z$0 00400000 f   GameMainObject.obj
 0001:fffff000       __unwindfunclet$?loadImage@ImageManager@@SA?AVSimpleImage@@V?$basic_string@DU?$char_traits@D@std@@V?$allocator@D@2@@std@@_N@Z$0 00400000 f   GameMainObject.obj
 0001:fffff000       __unwindfunclet$?loadImage@RawImageData@@QAE_NV?$basic_string@DU?$char_traits@D@std@@V?$allocator@D@2@@std@@HHHHH_N@Z$0 00400000 f   GameMainObject.obj
 0002:fffc9000       __unwindtable$??$?0U?$pair@V?$basic_string@DU?$char_traits@D@std@@V?$allocator@D@2@@std@@V?$shared_ptr@VRawImageData@@@2@@std@@@?$_Tree_temp_node@V?$allocator@U?$_Tree_node@U?$pair@$$CBV?$basic_string@DU?$char_traits@D@std@@V?$allocator@D@2@@std@@V?$shared_ptr@VRawImageData@@@2@@std@@PAX@std@@@std@@@std@@QAE@AAV?$allocator@U?$_Tree_node@U?$pair@$$CBV?$basic_string@DU?$char_traits@D@std@@V?$allocator@D@2@@std@@V?$shared_ptr@VRawImageData@@@2@@std@@PAX@std@@@1@PAU?$_Tree_node@U?$pair@$$CBV?$basic_string@DU?$char_traits@D@std@@V?$allocator@D@2@@std@@V?$shared_ptr@VRawImageData@@@2@@std@@PAX@1@$$QAU?$pair@V?$basic_string@DU?$char_traits@D@std@@V?$allocator@D@2@@std@@V?$shared_ptr@VRawImageData@@@2@@1@@Z 00400000     GameMainObject.obj
 0002:fffc9000       __unwindtable$??$?0U?$pair@V?$basic_string@DU?$char_traits@D@std@@V?$allocator@D@2@@std@@V?$weak_ptr@VRawImageData@@@2@@std@@@?$_Tree_temp_node@V?$allocator@U?$_Tree_node@U?$pair@$$CBV?$basic_string@DU?$char_traits@D@std@@V?$allocator@D@2@@std@@V?$weak_ptr@VRawImageData@@@2@@std@@PAX@std@@@std@@@std@@QAE@AAV?$allocator@U?$_Tree_node@U?$pair@$$CBV?$basic_string@DU?$char_traits@D@std@@V?$allocator@D@2@@std@@V?$weak_ptr@VRawImageData@@@2@@std@@PAX@std@@@1@PAU?$_Tree_node@U?$pair@$$CBV?$basic_string@DU?$char_traits@D@std@@V?$allocator@D@2@@std@@V?$weak_ptr@VRawImageData@@@2@@std@@PAX@1@$$QAU?$pair@V?$basic_string@DU?$char_traits@D@std@@V?$allocator@D@2@@std@@V?$weak_ptr@VRawImageData@@@2@@1@@Z 00400000     GameMainObject.obj
 0002:fffc9000       __unwindtable$??$?0VRawImageData@@$0A@@?$shared_ptr@VRawImageData@@@std@@QAE@PAVRawImageData@@@Z 00400000     GameMainObject.obj
 0002:fffc9000       __unwindtable$??0?$_Tree_temp_node_alloc@V?$allocator@U?$_Tree_node@U?$pair@$$CBV?$basic_string@DU?$char_traits@D@std@@V?$allocator@D@2@@std@@V?$shared_ptr@VRawImageData@@@2@@std@@PAX@std@@@std@@@std@@QAE@AAV?$allocator@U?$_Tree_node@U?$pair@$$CBV?$basic_string@DU?$char_traits@D@std@@V?$allocator@D@2@@std@@V?$shared_ptr@VRawImageData@@@2@@std@@PAX@std@@@1@@Z 00400000     GameMainObject.obj
 0002:fffc9000       __unwindtable$??0?$_Tree_temp_node_alloc@V?$allocator@U?$_Tree_node@U?$pair@$$CBV?$basic_string@DU?$char_traits@D@std@@V?$allocator@D@2@@std@@V?$weak_ptr@VRawImageData@@@2@@std@@PAX@std@@@std@@@std@@QAE@AAV?$allocator@U?$_Tree_node@U?$pair@$$CBV?$basic_string@DU?$char_traits@D@std@@V?$allocator@D@2@@std@@V?$weak_ptr@VRawImageData@@@2@@std@@PAX@std@@@1@@Z 00400000     GameMainObject.obj
 0002:fffc9000       __unwindtable$??0?$basic_string@DU?$char_traits@D@std@@V?$allocator@D@2@@std@@QAE@ABV01@@Z 00400000     GameMainObject.obj
 0002:fffc9000       __unwindtable$??0?$basic_string@DU?$char_traits@D@std@@V?$allocator@D@2@@std@@QAE@QBD@Z 00400000     GameMainObject.obj
 0002:fffc9000       __unwindtable$??0ImageManager@@QAE@XZ 00400000     GameMainObject.obj
 0002:fffc9000       __unwindtable$??0RawImageData@@QAE@V?$basic_string@DU?$char_traits@D@std@@V?$allocator@D@2@@std@@@Z 00400000     GameMainObject.obj
 0002:fffc9000       __unwindtable$??0sentry@?$basic_ostream@DU?$char_traits@D@std@@@std@@QAE@AAV12@@Z 00400000     GameMainObject.obj
 0002:fffc9000       __unwindtable$?_Alloc_sentinel_and_proxy@?$_Tree@V?$_Tmap_traits@V?$basic_string@DU?$char_traits@D@std@@V?$allocator@D@2@@std@@V?$shared_ptr@VRawImageData@@@2@U?$less@V?$basic_string@DU?$char_traits@D@std@@V?$allocator@D@2@@std@@@2@V?$allocator@U?$pair@$$CBV?$basic_string@DU?$char_traits@D@std@@V?$allocator@D@2@@std@@V?$shared_ptr@VRawImageData@@@2@@std@@@2@$0A@@std@@@std@@IAEXXZ 00400000     GameMainObject.obj
 0002:fffc9000       __unwindtable$?_Alloc_sentinel_and_proxy@?$_Tree@V?$_Tmap_traits@V?$basic_string@DU?$char_traits@D@std@@V?$allocator@D@2@@std@@V?$weak_ptr@VRawImageData@@@2@U?$less@V?$basic_string@DU?$char_traits@D@std@@V?$allocator@D@2@@std@@@2@V?$allocator@U?$pair@$$CBV?$basic_string@DU?$char_traits@D@std@@V?$allocator@D@2@@std@@V?$weak_ptr@VRawImageData@@@2@@std@@@2@$0A@@std@@@std@@IAEXXZ 00400000     GameMainObject.obj
 0002:fffc9000       __unwindtable$?get@ImageManager@@SAPAV1@XZ 00400000     GameMainObject.obj
 0002:fffc9000       __unwindtable$?getImagebyURL@ImageManager@@QAE?AVSimpleImage@@V?$basic_string@DU?$char_traits@D@std@@V?$allocator@D@2@@std@@_N1@Z 00400000     GameMainObject.obj
 0002:fffc9000       __unwindtable$?loadAsNew@ImageManager@@QAE?AV?$shared_ptr@VRawImageData@@@std@@V?$basic_string@DU?$char_traits@D@std@@V?$allocator@D@2@@3@@Z 00400000     GameMainObject.obj
 0002:fffc9000       __unwindtable$?loadImage@ImageManager@@SA?AVSimpleImage@@V?$basic_string@DU?$char_traits@D@std@@V?$allocator@D@2@@std@@_N@Z 00400000     GameMainObject.obj
 0002:fffc9000       __unwindtable$?loadImage@RawImageData@@QAE_NV?$basic_string@DU?$char_traits@D@std@@V?$allocator@D@2@@std@@HHHHH_N@Z 00400000     GameMainObject.obj
 0002:fffc9000       __catchsym$??$?6U?$char_traits@D@std@@@std@@YAAAV?$basic_ostream@DU?$char_traits@D@std@@@0@AAV10@PBD@Z$3 00400000     Guard.obj
 0002:fffc9000       __catchsym$??$_Insert_string@DU?$char_traits@D@std@@I@std@@YAAAV?$basic_ostream@DU?$char_traits@D@std@@@0@AAV10@QBDI@Z$3 00400000     Guard.obj
 0002:fffc9000       __ehfuncinfo$??$_Deallocate@$07$0A@@std@@YAXPAXI@Z 00400000     Guard.obj
 0002:fffc9000       __ehfuncinfo$??$_Deallocate_plain@V?$allocator@U_Container_proxy@std@@@std@@@std@@YAXAAV?$allocator@U_Container_proxy@std@@@0@QAU_Container_proxy@0@@Z 00400000     Guard.obj
 0002:fffc9000       __ehfuncinfo$??$_Freenode0@V?$allocator@U?$_Tree_node@U?$pair@$$CBV?$basic_string@DU?$char_traits@D@std@@V?$allocator@D@2@@std@@V?$shared_ptr@VRawImageData@@@2@@std@@PAX@std@@@std@@@?$_Tree_node@U?$pair@$$CBV?$basic_string@DU?$char_traits@D@std@@V?$allocator@D@2@@std@@V?$shared_ptr@VRawImageData@@@2@@std@@PAX@std@@SAXAAV?$allocator@U?$_Tree_node@U?$pair@$$CBV?$basic_string@DU?$char_traits@D@std@@V?$allocator@D@2@@std@@V?$shared_ptr@VRawImageData@@@2@@std@@PAX@std@@@1@PAU01@@Z 00400000     Guard.obj
 0002:fffc9000       __ehfuncinfo$??$_Freenode0@V?$allocator@U?$_Tree_node@U?$pair@$$CBV?$basic_string@DU?$char_traits@D@std@@V?$allocator@D@2@@std@@V?$weak_ptr@VRawImageData@@@2@@std@@PAX@std@@@std@@@?$_Tree_node@U?$pair@$$CBV?$basic_string@DU?$char_traits@D@std@@V?$allocator@D@2@@std@@V?$weak_ptr@VRawImageData@@@2@@std@@PAX@std@@SAXAAV?$allocator@U?$_Tree_node@U?$pair@$$CBV?$basic_string@DU?$char_traits@D@std@@V?$allocator@D@2@@std@@V?$weak_ptr@VRawImageData@@@2@@std@@PAX@std@@@1@PAU01@@Z 00400000     Guard.obj
 0002:fffc9000       __ehfuncinfo$??$_Freenode@V?$allocator@U?$_Tree_node@U?$pair@$$CBV?$basic_string@DU?$char_traits@D@std@@V?$allocator@D@2@@std@@V?$shared_ptr@VRawImageData@@@2@@std@@PAX@std@@@std@@@?$_Tree_node@U?$pair@$$CBV?$basic_string@DU?$char_traits@D@std@@V?$allocator@D@2@@std@@V?$shared_ptr@VRawImageData@@@2@@std@@PAX@std@@SAXAAV?$allocator@U?$_Tree_node@U?$pair@$$CBV?$basic_string@DU?$char_traits@D@std@@V?$allocator@D@2@@std@@V?$shared_ptr@VRawImageData@@@2@@std@@PAX@std@@@1@PAU01@@Z 00400000     Guard.obj
 0002:fffc9000       __ehfuncinfo$??$_Freenode@V?$allocator@U?$_Tree_node@U?$pair@$$CBV?$basic_string@DU?$char_traits@D@std@@V?$allocator@D@2@@std@@V?$weak_ptr@VRawImageData@@@2@@std@@PAX@std@@@std@@@?$_Tree_node@U?$pair@$$CBV?$basic_string@DU?$char_traits@D@std@@V?$allocator@D@2@@std@@V?$weak_ptr@VRawImageData@@@2@@std@@PAX@std@@SAXAAV?$allocator@U?$_Tree_node@U?$pair@$$CBV?$basic_string@DU?$char_traits@D@std@@V?$allocator@D@2@@std@@V?$weak_ptr@VRawImageData@@@2@@std@@PAX@std@@@1@PAU01@@Z 00400000     Guard.obj
 0002:fffc9000       __ehfuncinfo$??$erase@V?$_Tree_iterator@V?$_Tree_val@U?$_Tree_simple_types@U?$pair@$$CBV?$basic_string@DU?$char_traits@D@std@@V?$allocator@D@2@@std@@V?$weak_ptr@VRawImageData@@@2@@std@@@std@@@std@@@std@@$0A@@?$_Tree@V?$_Tmap_traits@V?$basic_string@DU?$char_traits@D@std@@V?$allocator@D@2@@std@@V?$weak_ptr@VRawImageData@@@2@U?$less@V?$basic_string@DU?$char_traits@D@std@@V?$allocator@D@2@@std@@@2@V?$allocator@U?$pair@$$CBV?$basic_string@DU?$char_traits@D@std@@V?$allocator@D@2@@std@@V?$weak_ptr@VRawImageData@@@2@@std@@@2@$0A@@std@@@std@@QAE?AV?$_Tree_iterator@V?$_Tree_val@U?$_Tree_simple_types@U?$pair@$$CBV?$basic_string@DU?$char_traits@D@std@@V?$allocator@D@2@@std@@V?$weak_ptr@VRawImageData@@@2@@std@@@std@@@std@@@1@V21@@Z 00400000     Guard.obj
 0002:fffc9000       __ehfuncinfo$??0?$basic_string@DU?$char_traits@D@std@@V?$allocator@D@2@@std@@QAE@$$QAV01@@Z 00400000     Guard.obj
 0002:fffc9000       __ehfuncinfo$??1?$_Alloc_construct_ptr@V?$allocator@U?$_Tree_node@U?$pair@$$CBV?$basic_string@DU?$char_traits@D@std@@V?$allocator@D@2@@std@@V?$shared_ptr@VRawImageData@@@2@@std@@PAX@std@@@std@@@std@@QAE@XZ 00400000     Guard.obj
 0002:fffc9000       __ehfuncinfo$??1?$_Alloc_construct_ptr@V?$allocator@U?$_Tree_node@U?$pair@$$CBV?$basic_string@DU?$char_traits@D@std@@V?$allocator@D@2@@std@@V?$weak_ptr@VRawImageData@@@2@@std@@PAX@std@@@std@@@std@@QAE@XZ 00400000     Guard.obj
 0002:fffc9000       __ehfuncinfo$??1?$_Tree_temp_node@V?$allocator@U?$_Tree_node@U?$pair@$$CBV?$basic_string@DU?$char_traits@D@std@@V?$allocator@D@2@@std@@V?$shared_ptr@VRawImageData@@@2@@std@@PAX@std@@@std@@@std@@QAE@XZ 00400000     Guard.obj
 0002:fffc9000       __ehfuncinfo$??1?$_Tree_temp_node@V?$allocator@U?$_Tree_node@U?$pair@$$CBV?$basic_string@DU?$char_traits@D@std@@V?$allocator@D@2@@std@@V?$weak_ptr@VRawImageData@@@2@@std@@PAX@std@@@std@@@std@@QAE@XZ 00400000     Guard.obj
 0002:fffc9000       __ehfuncinfo$??1RawImageData@@QAE@XZ 00400000     Guard.obj
 0002:fffc9000       __ehfuncinfo$??1_Sentry_base@?$basic_ostream@DU?$char_traits@D@std@@@std@@QAE@XZ 00400000     Guard.obj
 0002:fffc9000       __ehfuncinfo$??1sentry@?$basic_ostream@DU?$char_traits@D@std@@@std@@QAE@XZ 00400000     Guard.obj
 0002:fffc9000       __ehfuncinfo$?_Erase_unchecked@?$_Tree@V?$_Tmap_traits@V?$basic_string@DU?$char_traits@D@std@@V?$allocator@D@2@@std@@V?$weak_ptr@VRawImageData@@@2@U?$less@V?$basic_string@DU?$char_traits@D@std@@V?$allocator@D@2@@std@@@2@V?$allocator@U?$pair@$$CBV?$basic_string@DU?$char_traits@D@std@@V?$allocator@D@2@@std@@V?$weak_ptr@VRawImageData@@@2@@std@@@2@$0A@@std@@@std@@AAEPAU?$_Tree_node@U?$pair@$$CBV?$basic_string@DU?$char_traits@D@std@@V?$allocator@D@2@@std@@V?$weak_ptr@VRawImageData@@@2@@std@@PAX@2@V?$_Tree_unchecked_const_iterator@V?$_Tree_val@U?$_Tree_simple_types@U?$pair@$$CBV?$basic_string@DU?$char_traits@D@std@@V?$allocator@D@2@@std@@V?$weak_ptr@VRawImageData@@@2@@std@@@std@@@std@@U_Iterator_base0@2@@2@@Z 00400000     Guard.obj
 0002:fffc9000       __ehfuncinfo$?_Extract@?$_Tree_val@U?$_Tree_simple_types@U?$pair@$$CBV?$basic_string@DU?$char_traits@D@std@@V?$allocator@D@2@@std@@V?$weak_ptr@VRawImageData@@@2@@std@@@std@@@std@@QAEPAU?$_Tree_node@U?$pair@$$CBV?$basic_string@DU?$char_traits@D@std@@V?$allocator@D@2@@std@@V?$weak_ptr@VRawImageData@@@2@@std@@PAX@2@V?$_Tree_unchecked_const_iterator@V?$_Tree_val@U?$_Tree_simple_types@U?$pair@$$CBV?$basic_string@DU?$char_traits@D@std@@V?$allocator@D@2@@std@@V?$weak_ptr@VRawImageData@@@2@@std@@@std@@@std@@U_Iterator_base0@2@@2@@Z 00400000     Guard.obj
 0002:fffc9000       __ehfuncinfo$?_Take_contents@?$basic_string@DU?$char_traits@D@std@@V?$allocator@D@2@@std@@AAEXAAV12@U?$integral_constant@_N$00@2@@Z 00400000     Guard.obj
 0002:fffc9000       __ehfuncinfo$?_Tidy_deallocate@?$basic_string@DU?$char_traits@D@std@@V?$allocator@D@2@@std@@AAEXXZ 00400000     Guard.obj
 0002:fffc9000       __ehfuncinfo$?getImagePtrbyURL@ImageManager@@QAE?AV?$shared_ptr@VRawImageData@@@std@@V?$basic_string@DU?$char_traits@D@std@@V?$allocator@D@2@@3@_N1@Z 00400000     Guard.obj
 0001:fffff000       __ehhandler$??$_Deallocate@$07$0A@@std@@YAXPAXI@Z 00400000 f   Guard.obj
 0001:fffff000       __ehhandler$??$_Deallocate_plain@V?$allocator@U_Container_proxy@std@@@std@@@std@@YAXAAV?$allocator@U_Container_proxy@std@@@0@QAU_Container_proxy@0@@Z 00400000 f   Guard.obj
 0001:fffff000       __ehhandler$??$_Freenode0@V?$allocator@U?$_Tree_node@U?$pair@$$CBV?$basic_string@DU?$char_traits@D@std@@V?$allocator@D@2@@std@@V?$shared_ptr@VRawImageData@@@2@@std@@PAX@std@@@std@@@?$_Tree_node@U?$pair@$$CBV?$basic_string@DU?$char_traits@D@std@@V?$allocator@D@2@@std@@V?$shared_ptr@VRawImageData@@@2@@std@@PAX@std@@SAXAAV?$allocator@U?$_Tree_node@U?$pair@$$CBV?$basic_string@DU?$char_traits@D@std@@V?$allocator@D@2@@std@@V?$shared_ptr@VRawImageData@@@2@@std@@PAX@std@@@1@PAU01@@Z 00400000 f   Guard.obj
 0001:fffff000       __ehhandler$??$_Freenode0@V?$allocator@U?$_Tree_node@U?$pair@$$CBV?$basic_string@DU?$char_traits@D@std@@V?$allocator@D@2@@std@@V?$weak_ptr@VRawImageData@@@2@@std@@PAX@std@@@std@@@?$_Tree_node@U?$pair@$$CBV?$basic_string@DU?$char_traits@D@std@@V?$allocator@D@2@@std@@V?$weak_ptr@VRawImageData@@@2@@std@@PAX@std@@SAXAAV?$allocator@U?$_Tree_node@U?$pair@$$CBV?$basic_string@DU?$char_traits@D@std@@V?$allocator@D@2@@std@@V?$weak_ptr@VRawImageData@@@2@@std@@PAX@std@@@1@PAU01@@Z 00400000 f   Guard.obj
 0001:fffff000       __ehhandler$??$_Freenode@V?$allocator@U?$_Tree_node@U?$pair@$$CBV?$basic_string@DU?$char_traits@D@std@@V?$allocator@D@2@@std@@V?$shared_ptr@VRawImageData@@@2@@std@@PAX@std@@@std@@@?$_Tree_node@U?$pair@$$CBV?$basic_string@DU?$char_traits@D@std@@V?$allocator@D@2@@std@@V?$shared_ptr@VRawImageData@@@2@@std@@PAX@std@@SAXAAV?$allocator@U?$_Tree_node@U?$pair@$$CBV?$basic_string@DU?$char_traits@D@std@@V?$allocator@D@2@@std@@V?$shared_ptr@VRawImageData@@@2@@std@@PAX@std@@@1@PAU01@@Z 00400000 f   Guard.obj
 0001:fffff000       __ehhandler$??$_Freenode@V?$allocator@U?$_Tree_node@U?$pair@$$CBV?$basic_string@DU?$char_traits@D@std@@V?$allocator@D@2@@std@@V?$weak_ptr@VRawImageData@@@2@@std@@PAX@std@@@std@@@?$_Tree_node@U?$pair@$$CBV?$basic_string@DU?$char_traits@D@std@@V?$allocator@D@2@@std@@V?$weak_ptr@VRawImageData@@@2@@std@@PAX@std@@SAXAAV?$allocator@U?$_Tree_node@U?$pair@$$CBV?$basic_string@DU?$char_traits@D@std@@V?$allocator@D@2@@std@@V?$weak_ptr@VRawImageData@@@2@@std@@PAX@std@@@1@PAU01@@Z 00400000 f   Guard.obj
 0001:fffff000       __ehhandler$??$erase@V?$_Tree_iterator@V?$_Tree_val@U?$_Tree_simple_types@U?$pair@$$CBV?$basic_string@DU?$char_traits@D@std@@V?$allocator@D@2@@std@@V?$weak_ptr@VRawImageData@@@2@@std@@@std@@@std@@@std@@$0A@@?$_Tree@V?$_Tmap_traits@V?$basic_string@DU?$char_traits@D@std@@V?$allocator@D@2@@std@@V?$weak_ptr@VRawImageData@@@2@U?$less@V?$basic_string@DU?$char_traits@D@std@@V?$allocator@D@2@@std@@@2@V?$allocator@U?$pair@$$CBV?$basic_string@DU?$char_traits@D@std@@V?$allocator@D@2@@std@@V?$weak_ptr@VRawImageData@@@2@@std@@@2@$0A@@std@@@std@@QAE?AV?$_Tree_iterator@V?$_Tree_val@U?$_Tree_simple_types@U?$pair@$$CBV?$basic_string@DU?$char_traits@D@std@@V?$allocator@D@2@@std@@V?$weak_ptr@VRawImageData@@@2@@std@@@std@@@std@@@1@V21@@Z 00400000 f   Guard.obj
 0001:fffff000       __ehhandler$??0?$basic_string@DU?$char_traits@D@std@@V?$allocator@D@2@@std@@QAE@$$QAV01@@Z 00400000 f   Guard.obj
 0001:fffff000       __ehhandler$??1?$_Alloc_construct_ptr@V?$allocator@U?$_Tree_node@U?$pair@$$CBV?$basic_string@DU?$char_traits@D@std@@V?$allocator@D@2@@std@@V?$shared_ptr@VRawImageData@@@2@@std@@PAX@std@@@std@@@std@@QAE@XZ 00400000 f   Guard.obj
 0001:fffff000       __ehhandler$??1?$_Alloc_construct_ptr@V?$allocator@U?$_Tree_node@U?$pair@$$CBV?$basic_string@DU?$char_traits@D@std@@V?$allocator@D@2@@std@@V?$weak_ptr@VRawImageData@@@2@@std@@PAX@std@@@std@@@std@@QAE@XZ 00400000 f   Guard.obj
 0001:fffff000       __ehhandler$??1?$_Tree_temp_node@V?$allocator@U?$_Tree_node@U?$pair@$$CBV?$basic_string@DU?$char_traits@D@std@@V?$allocator@D@2@@std@@V?$shared_ptr@VRawImageData@@@2@@std@@PAX@std@@@std@@@std@@QAE@XZ 00400000 f   Guard.obj
 0001:fffff000       __ehhandler$??1?$_Tree_temp_node@V?$allocator@U?$_Tree_node@U?$pair@$$CBV?$basic_string@DU?$char_traits@D@std@@V?$allocator@D@2@@std@@V?$weak_ptr@VRawImageData@@@2@@std@@PAX@std@@@std@@@std@@QAE@XZ 00400000 f   Guard.obj
 0001:fffff000       __ehhandler$??1RawImageData@@QAE@XZ 00400000 f   Guard.obj
 0001:fffff000       __ehhandler$??1_Sentry_base@?$basic_ostream@DU?$char_traits@D@std@@@std@@QAE@XZ 00400000 f   Guard.obj
 0001:fffff000       __ehhandler$??1sentry@?$basic_ostream@DU?$char_traits@D@std@@@std@@QAE@XZ 00400000 f   Guard.obj
 0001:fffff000       __ehhandler$?_Erase_unchecked@?$_Tree@V?$_Tmap_traits@V?$basic_string@DU?$char_traits@D@std@@V?$allocator@D@2@@std@@V?$weak_ptr@VRawImageData@@@2@U?$less@V?$basic_string@DU?$char_traits@D@std@@V?$allocator@D@2@@std@@@2@V?$allocator@U?$pair@$$CBV?$basic_string@DU?$char_traits@D@std@@V?$allocator@D@2@@std@@V?$weak_ptr@VRawImageData@@@2@@std@@@2@$0A@@std@@@std@@AAEPAU?$_Tree_node@U?$pair@$$CBV?$basic_string@DU?$char_traits@D@std@@V?$allocator@D@2@@std@@V?$weak_ptr@VRawImageData@@@2@@std@@PAX@2@V?$_Tree_unchecked_const_iterator@V?$_Tree_val@U?$_Tree_simple_types@U?$pair@$$CBV?$basic_string@DU?$char_traits@D@std@@V?$allocator@D@2@@std@@V?$weak_ptr@VRawImageData@@@2@@std@@@std@@@std@@U_Iterator_base0@2@@2@@Z 00400000 f   Guard.obj
 0001:fffff000       __ehhandler$?_Extract@?$_Tree_val@U?$_Tree_simple_types@U?$pair@$$CBV?$basic_string@DU?$char_traits@D@std@@V?$allocator@D@2@@std@@V?$weak_ptr@VRawImageData@@@2@@std@@@std@@@std@@QAEPAU?$_Tree_node@U?$pair@$$CBV?$basic_string@DU?$char_traits@D@std@@V?$allocator@D@2@@std@@V?$weak_ptr@VRawImageData@@@2@@std@@PAX@2@V?$_Tree_unchecked_const_iterator@V?$_Tree_val@U?$_Tree_simple_types@U?$pair@$$CBV?$basic_string@DU?$char_traits@D@std@@V?$allocator@D@2@@std@@V?$weak_ptr@VRawImageData@@@2@@std@@@std@@@std@@U_Iterator_base0@2@@2@@Z 00400000 f   Guard.obj
 0001:fffff000       __ehhandler$?_Take_contents@?$basic_string@DU?$char_traits@D@std@@V?$allocator@D@2@@std@@AAEXAAV12@U?$integral_constant@_N$00@2@@Z 00400000 f   Guard.obj
 0001:fffff000       __ehhandler$?_Tidy_deallocate@?$basic_string@DU?$char_traits@D@std@@V?$allocator@D@2@@std@@AAEXXZ 00400000 f   Guard.obj
 0001:fffff000       __unwindfunclet$??$?0U?$pair@V?$basic_string@DU?$char_traits@D@std@@V?$allocator@D@2@@std@@V?$shared_ptr@VRawImageData@@@2@@std@@@?$_Tree_temp_node@V?$allocator@U?$_Tree_node@U?$pair@$$CBV?$basic_string@DU?$char_traits@D@std@@V?$allocator@D@2@@std@@V?$shared_ptr@VRawImageData@@@2@@std@@PAX@std@@@std@@@std@@QAE@AAV?$allocator@U?$_Tree_node@U?$pair@$$CBV?$basic_string@DU?$char_traits@D@std@@V?$allocator@D@2@@std@@V?$shared_ptr@VRawImageData@@@2@@std@@PAX@std@@@1@PAU?$_Tree_node@U?$pair@$$CBV?$basic_string@DU?$char_traits@D@std@@V?$allocator@D@2@@std@@V?$shared_ptr@VRawImageData@@@2@@std@@PAX@1@$$QAU?$pair@V?$basic_string@DU?$char_traits@D@std@@V?$allocator@D@2@@std@@V?$shared_ptr@VRawImageData@@@2@@1@@Z$0 00400000 f   Guard.obj
 0001:fffff000       __unwindfunclet$??$?0U?$pair@V?$basic_string@DU?$char_traits@D@std@@V?$allocator@D@2@@std@@V?$weak_ptr@VRawImageData@@@2@@std@@@?$_Tree_temp_node@V?$allocator@U?$_Tree_node@U?$pair@$$CBV?$basic_string@DU?$char_traits@D@std@@V?$allocator@D@2@@std@@V?$weak_ptr@VRawImageData@@@2@@std@@PAX@std@@@std@@@std@@QAE@AAV?$allocator@U?$_Tree_node@U?$pair@$$CBV?$basic_string@DU?$char_traits@D@std@@V?$allocator@D@2@@std@@V?$weak_ptr@VRawImageData@@@2@@std@@PAX@std@@@1@PAU?$_Tree_node@U?$pair@$$CBV?$basic_string@DU?$char_traits@D@std@@V?$allocator@D@2@@std@@V?$weak_ptr@VRawImageData@@@2@@std@@PAX@1@$$QAU?$pair@V?$basic_string@DU?$char_traits@D@std@@V?$allocator@D@2@@std@@V?$weak_ptr@VRawImageData@@@2@@1@@Z$0 00400000 f   Guard.obj
 0001:fffff000       __unwindfunclet$??$?0VRawImageData@@$0A@@?$shared_ptr@VRawImageData@@@std@@QAE@PAVRawImageData@@@Z$0 00400000 f   Guard.obj
 0001:fffff000       __unwindfunclet$??$?6U?$char_traits@D@std@@@std@@YAAAV?$basic_ostream@DU?$char_traits@D@std@@@0@AAV10@PBD@Z$2 00400000 f   Guard.obj
 0001:fffff000       __unwindfunclet$??$_Insert_string@DU?$char_traits@D@std@@I@std@@YAAAV?$basic_ostream@DU?$char_traits@D@std@@@0@AAV10@QBDI@Z$2 00400000 f   Guard.obj
 0001:fffff000       __unwindfunclet$??0?$_Tree_temp_node_alloc@V?$allocator@U?$_Tree_node@U?$pair@$$CBV?$basic_string@DU?$char_traits@D@std@@V?$allocator@D@2@@std@@V?$shared_ptr@VRawImageData@@@2@@std@@PAX@std@@@std@@@std@@QAE@AAV?$allocator@U?$_Tree_node@U?$pair@$$CBV?$basic_string@DU?$char_traits@D@std@@V?$allocator@D@2@@std@@V?$shared_ptr@VRawImageData@@@2@@std@@PAX@std@@@1@@Z$0 00400000 f   Guard.obj
 0001:fffff000       __unwindfunclet$??0?$_Tree_temp_node_alloc@V?$allocator@U?$_Tree_node@U?$pair@$$CBV?$basic_string@DU?$char_traits@D@std@@V?$allocator@D@2@@std@@V?$weak_ptr@VRawImageData@@@2@@std@@PAX@std@@@std@@@std@@QAE@AAV?$allocator@U?$_Tree_node@U?$pair@$$CBV?$basic_string@DU?$char_traits@D@std@@V?$allocator@D@2@@std@@V?$weak_ptr@VRawImageData@@@2@@std@@PAX@std@@@1@@Z$0 00400000 f   Guard.obj
 0001:fffff000       __unwindfunclet$??0?$basic_string@DU?$char_traits@D@std@@V?$allocator@D@2@@std@@QAE@ABV01@@Z$0 00400000 f   Guard.obj
 0001:fffff000       __unwindfunclet$??0?$basic_string@DU?$char_traits@D@std@@V?$allocator@D@2@@std@@QAE@QBD@Z$0 00400000 f   Guard.obj
 0001:fffff000       __unwindfunclet$??0ImageManager@@QAE@XZ$0 00400000 f   Guard.obj
 0001:fffff000       __unwindfunclet$??0RawImageData@@QAE@V?$basic_string@DU?$char_traits@D@std@@V?$allocator@D@2@@std@@@Z$0 00400000 f   Guard.obj
 0001:fffff000       __unwindfunclet$??0sentry@?$basic_ostream@DU?$char_traits@D@std@@@std@@QAE@AAV12@@Z$0 00400000 f   Guard.obj
 0001:fffff000       __unwindfunclet$?_Alloc_sentinel_and_proxy@?$_Tree@V?$_Tmap_traits@V?$basic_string@DU?$char_traits@D@std@@V?$allocator@D@2@@std@@V?$shared_ptr@VRawImageData@@@2@U?$less@V?$basic_string@DU?$char_traits@D@std@@V?$allocator@D@2@@std@@@2@V?$allocator@U?$pair@$$CBV?$basic_string@DU?$char_traits@D@std@@V?$allocator@D@2@@std@@V?$shared_ptr@VRawImageData@@@2@@std@@@2@$0A@@std@@@std@@IAEXXZ$0 00400000 f   Guard.obj
 0001:fffff000       __unwindfunclet$?_Alloc_sentinel_and_proxy@?$_Tree@V?$_Tmap_traits@V?$basic_string@DU?$char_traits@D@std@@V?$allocator@D@2@@std@@V?$weak_ptr@VRawImageData@@@2@U?$less@V?$basic_string@DU?$char_traits@D@std@@V?$allocator@D@2@@std@@@2@V?$allocator@U?$pair@$$CBV?$basic_string@DU?$char_traits@D@std@@V?$allocator@D@2@@std@@V?$weak_ptr@VRawImageData@@@2@@std@@@2@$0A@@std@@@std@@IAEXXZ$0 00400000 f   Guard.obj
 0001:fffff000       __unwindfunclet$?get@ImageManager@@SAPAV1@XZ$0 00400000 f   Guard.obj
 0001:fffff000       __unwindfunclet$?getImagePtrbyURL@ImageManager@@QAE?AV?$shared_ptr@VRawImageData@@@std@@V?$basic_string@DU?$char_traits@D@std@@V?$allocator@D@2@@3@_N1@Z$0 00400000 f   Guard.obj
 0001:fffff000       __unwindfunclet$?getImagebyURL@ImageManager@@QAE?AVSimpleImage@@V?$basic_string@DU?$char_traits@D@std@@V?$allocator@D@2@@std@@_N1@Z$0 00400000 f   Guard.obj
 0001:fffff000       __unwindfunclet$?loadAsNew@ImageManager@@QAE?AV?$shared_ptr@VRawImageData@@@std@@V?$basic_string@DU?$char_traits@D@std@@V?$allocator@D@2@@3@@Z$0 00400000 f   Guard.obj
 0001:fffff000       __unwindfunclet$?loadImage@ImageManager@@SA?AVSimpleImage@@V?$basic_string@DU?$char_traits@D@std@@V?$allocator@D@2@@std@@_N@Z$0 00400000 f   Guard.obj
 0001:fffff000       __unwindfunclet$?loadImage@RawImageData@@QAE_NV?$basic_string@DU?$char_traits@D@std@@V?$allocator@D@2@@std@@HHHHH_N@Z$0 00400000 f   Guard.obj
 0002:fffc9000       __unwindtable$??$?0U?$pair@V?$basic_string@DU?$char_traits@D@std@@V?$allocator@D@2@@std@@V?$shared_ptr@VRawImageData@@@2@@std@@@?$_Tree_temp_node@V?$allocator@U?$_Tree_node@U?$pair@$$CBV?$basic_string@DU?$char_traits@D@std@@V?$allocator@D@2@@std@@V?$shared_ptr@VRawImageData@@@2@@std@@PAX@std@@@std@@@std@@QAE@AAV?$allocator@U?$_Tree_node@U?$pair@$$CBV?$basic_string@DU?$char_traits@D@std@@V?$allocator@D@2@@std@@V?$shared_ptr@VRawImageData@@@2@@std@@PAX@std@@@1@PAU?$_Tree_node@U?$pair@$$CBV?$basic_string@DU?$char_traits@D@std@@V?$allocator@D@2@@std@@V?$shared_ptr@VRawImageData@@@2@@std@@PAX@1@$$QAU?$pair@V?$basic_string@DU?$char_traits@D@std@@V?$allocator@D@2@@std@@V?$shared_ptr@VRawImageData@@@2@@1@@Z 00400000     Guard.obj
 0002:fffc9000       __unwindtable$??$?0U?$pair@V?$basic_string@DU?$char_traits@D@std@@V?$allocator@D@2@@std@@V?$weak_ptr@VRawImageData@@@2@@std@@@?$_Tree_temp_node@V?$allocator@U?$_Tree_node@U?$pair@$$CBV?$basic_string@DU?$char_traits@D@std@@V?$allocator@D@2@@std@@V?$weak_ptr@VRawImageData@@@2@@std@@PAX@std@@@std@@@std@@QAE@AAV?$allocator@U?$_Tree_node@U?$pair@$$CBV?$basic_string@DU?$char_traits@D@std@@V?$allocator@D@2@@std@@V?$weak_ptr@VRawImageData@@@2@@std@@PAX@std@@@1@PAU?$_Tree_node@U?$pair@$$CBV?$basic_string@DU?$char_traits@D@std@@V?$allocator@D@2@@std@@V?$weak_ptr@VRawImageData@@@2@@std@@PAX@1@$$QAU?$pair@V?$basic_string@DU?$char_traits@D@std@@V?$allocator@D@2@@std@@V?$weak_ptr@VRawImageData@@@2@@1@@Z 00400000     Guard.obj
 0002:fffc9000       __unwindtable$??$?0VRawImageData@@$0A@@?$shared_ptr@VRawImageData@@@std@@QAE@PAVRawImageData@@@Z 00400000     Guard.obj
 0002:fffc9000       __unwindtable$??0?$_Tree_temp_node_alloc@V?$allocator@U?$_Tree_node@U?$pair@$$CBV?$basic_string@DU?$char_traits@D@std@@V?$allocator@D@2@@std@@V?$shared_ptr@VRawImageData@@@2@@std@@PAX@std@@@std@@@std@@QAE@AAV?$allocator@U?$_Tree_node@U?$pair@$$CBV?$basic_string@DU?$char_traits@D@std@@V?$allocator@D@2@@std@@V?$shared_ptr@VRawImageData@@@2@@std@@PAX@std@@@1@@Z 00400000     Guard.obj
 0002:fffc9000       __unwindtable$??0?$_Tree_temp_node_alloc@V?$allocator@U?$_Tree_node@U?$pair@$$CBV?$basic_string@DU?$char_traits@D@std@@V?$allocator@D@2@@std@@V?$weak_ptr@VRawImageData@@@2@@std@@PAX@std@@@std@@@std@@QAE@AAV?$allocator@U?$_Tree_node@U?$pair@$$CBV?$basic_string@DU?$char_traits@D@std@@V?$allocator@D@2@@std@@V?$weak_ptr@VRawImageData@@@2@@std@@PAX@std@@@1@@Z 00400000     Guard.obj
 0002:fffc9000       __unwindtable$??0?$basic_string@DU?$char_traits@D@std@@V?$allocator@D@2@@std@@QAE@ABV01@@Z 00400000     Guard.obj
 0002:fffc9000       __unwindtable$??0?$basic_string@DU?$char_traits@D@std@@V?$allocator@D@2@@std@@QAE@QBD@Z 00400000     Guard.obj
 0002:fffc9000       __unwindtable$??0ImageManager@@QAE@XZ 00400000     Guard.obj
 0002:fffc9000       __unwindtable$??0RawImageData@@QAE@V?$basic_string@DU?$char_traits@D@std@@V?$allocator@D@2@@std@@@Z 00400000     Guard.obj
 0002:fffc9000       __unwindtable$??0sentry@?$basic_ostream@DU?$char_traits@D@std@@@std@@QAE@AAV12@@Z 00400000     Guard.obj
 0002:fffc9000       __unwindtable$?_Alloc_sentinel_and_proxy@?$_Tree@V?$_Tmap_traits@V?$basic_string@DU?$char_traits@D@std@@V?$allocator@D@2@@std@@V?$shared_ptr@VRawImageData@@@2@U?$less@V?$basic_string@DU?$char_traits@D@std@@V?$allocator@D@2@@std@@@2@V?$allocator@U?$pair@$$CBV?$basic_string@DU?$char_traits@D@std@@V?$allocator@D@2@@std@@V?$shared_ptr@VRawImageData@@@2@@std@@@2@$0A@@std@@@std@@IAEXXZ 00400000     Guard.obj
 0002:fffc9000       __unwindtable$?_Alloc_sentinel_and_proxy@?$_Tree@V?$_Tmap_traits@V?$basic_string@DU?$char_traits@D@std@@V?$allocator@D@2@@std@@V?$weak_ptr@VRawImageData@@@2@U?$less@V?$basic_string@DU?$char_traits@D@std@@V?$allocator@D@2@@std@@@2@V?$allocator@U?$pair@$$CBV?$basic_string@DU?$char_traits@D@std@@V?$allocator@D@2@@std@@V?$weak_ptr@VRawImageData@@@2@@std@@@2@$0A@@std@@@std@@IAEXXZ 00400000     Guard.obj
 0002:fffc9000       __unwindtable$?get@ImageManager@@SAPAV1@XZ 00400000     Guard.obj
 0002:fffc9000       __unwindtable$?getImagebyURL@ImageManager@@QAE?AVSimpleImage@@V?$basic_string@DU?$char_traits@D@std@@V?$allocator@D@2@@std@@_N1@Z 00400000     Guard.obj
 0002:fffc9000       __unwindtable$?loadAsNew@ImageManager@@QAE?AV?$shared_ptr@VRawImageData@@@std@@V?$basic_string@DU?$char_traits@D@std@@V?$allocator@D@2@@3@@Z 00400000     Guard.obj
 0002:fffc9000       __unwindtable$?loadImage@ImageManager@@SA?AVSimpleImage@@V?$basic_string@DU?$char_traits@D@std@@V?$allocator@D@2@@std@@_N@Z 00400000     Guard.obj
 0002:fffc9000       __unwindtable$?loadImage@RawImageData@@QAE_NV?$basic_string@DU?$char_traits@D@std@@V?$allocator@D@2@@std@@HHHHH_N@Z 00400000     Guard.obj
 0002:fffc9000       __ehfuncinfo$??$_Deallocate@$07$0A@@std@@YAXPAXI@Z 00400000     RawImage.obj
 0002:fffc9000       __ehfuncinfo$??$_Deallocate_plain@V?$allocator@U_Container_proxy@std@@@std@@@std@@YAXAAV?$allocator@U_Container_proxy@std@@@0@QAU_Container_proxy@0@@Z 00400000     RawImage.obj
 0002:fffc9000       __ehfuncinfo$??0?$basic_string@DU?$char_traits@D@std@@V?$allocator@D@2@@std@@QAE@XZ 00400000     RawImage.obj
 0002:fffc9000       __ehfuncinfo$?_Tidy_deallocate@?$basic_string@DU?$char_traits@D@std@@V?$allocator@D@2@@std@@AAEXXZ 00400000     RawImage.obj
 0001:fffff000       __ehhandler$??$_Deallocate@$07$0A@@std@@YAXPAXI@Z 00400000 f   RawImage.obj
 0001:fffff000       __ehhandler$??$_Deallocate_plain@V?$allocator@U_Container_proxy@std@@@std@@@std@@YAXAAV?$allocator@U_Container_proxy@std@@@0@QAU_Container_proxy@0@@Z 00400000 f   RawImage.obj
 0001:fffff000       __ehhandler$??0?$basic_string@DU?$char_traits@D@std@@V?$allocator@D@2@@std@@QAE@XZ 00400000 f   RawImage.obj
 0001:fffff000       __ehhandler$?_Tidy_deallocate@?$basic_string@DU?$char_traits@D@std@@V?$allocator@D@2@@std@@AAEXXZ 00400000 f   RawImage.obj
 0002:fffc9000       __catchsym$??$?6U?$char_traits@D@std@@@std@@YAAAV?$basic_ostream@DU?$char_traits@D@std@@@0@AAV10@PBD@Z$3 00400000     RunningState.obj
 0002:fffc9000       __catchsym$??$_Insert_string@DU?$char_traits@D@std@@I@std@@YAAAV?$basic_ostream@DU?$char_traits@D@std@@@0@AAV10@QBDI@Z$3 00400000     RunningState.obj
 0002:fffc9000       __ehfuncinfo$??$_Deallocate@$07$0A@@std@@YAXPAXI@Z 00400000     RunningState.obj
 0002:fffc9000       __ehfuncinfo$??$_Deallocate_plain@V?$allocator@U_Container_proxy@std@@@std@@@std@@YAXAAV?$allocator@U_Container_proxy@std@@@0@QAU_Container_proxy@0@@Z 00400000     RunningState.obj
 0002:fffc9000       __ehfuncinfo$??$_Freenode0@V?$allocator@U?$_Tree_node@U?$pair@$$CBV?$basic_string@DU?$char_traits@D@std@@V?$allocator@D@2@@std@@V?$shared_ptr@VRawImageData@@@2@@std@@PAX@std@@@std@@@?$_Tree_node@U?$pair@$$CBV?$basic_string@DU?$char_traits@D@std@@V?$allocator@D@2@@std@@V?$shared_ptr@VRawImageData@@@2@@std@@PAX@std@@SAXAAV?$allocator@U?$_Tree_node@U?$pair@$$CBV?$basic_string@DU?$char_traits@D@std@@V?$allocator@D@2@@std@@V?$shared_ptr@VRawImageData@@@2@@std@@PAX@std@@@1@PAU01@@Z 00400000     RunningState.obj
 0002:fffc9000       __ehfuncinfo$??$_Freenode0@V?$allocator@U?$_Tree_node@U?$pair@$$CBV?$basic_string@DU?$char_traits@D@std@@V?$allocator@D@2@@std@@V?$weak_ptr@VRawImageData@@@2@@std@@PAX@std@@@std@@@?$_Tree_node@U?$pair@$$CBV?$basic_string@DU?$char_traits@D@std@@V?$allocator@D@2@@std@@V?$weak_ptr@VRawImageData@@@2@@std@@PAX@std@@SAXAAV?$allocator@U?$_Tree_node@U?$pair@$$CBV?$basic_string@DU?$char_traits@D@std@@V?$allocator@D@2@@std@@V?$weak_ptr@VRawImageData@@@2@@std@@PAX@std@@@1@PAU01@@Z 00400000     RunningState.obj
 0002:fffc9000       __ehfuncinfo$??$_Freenode@V?$allocator@U?$_Tree_node@U?$pair@$$CBV?$basic_string@DU?$char_traits@D@std@@V?$allocator@D@2@@std@@V?$shared_ptr@VRawImageData@@@2@@std@@PAX@std@@@std@@@?$_Tree_node@U?$pair@$$CBV?$basic_string@DU?$char_traits@D@std@@V?$allocator@D@2@@std@@V?$shared_ptr@VRawImageData@@@2@@std@@PAX@std@@SAXAAV?$allocator@U?$_Tree_node@U?$pair@$$CBV?$basic_string@DU?$char_traits@D@std@@V?$allocator@D@2@@std@@V?$shared_ptr@VRawImageData@@@2@@std@@PAX@std@@@1@PAU01@@Z 00400000     RunningState.obj
 0002:fffc9000       __ehfuncinfo$??$_Freenode@V?$allocator@U?$_Tree_node@U?$pair@$$CBV?$basic_string@DU?$char_traits@D@std@@V?$allocator@D@2@@std@@V?$weak_ptr@VRawImageData@@@2@@std@@PAX@std@@@std@@@?$_Tree_node@U?$pair@$$CBV?$basic_string@DU?$char_traits@D@std@@V?$allocator@D@2@@std@@V?$weak_ptr@VRawImageData@@@2@@std@@PAX@std@@SAXAAV?$allocator@U?$_Tree_node@U?$pair@$$CBV?$basic_string@DU?$char_traits@D@std@@V?$allocator@D@2@@std@@V?$weak_ptr@VRawImageData@@@2@@std@@PAX@std@@@1@PAU01@@Z 00400000     RunningState.obj
 0002:fffc9000       __ehfuncinfo$??$erase@V?$_Tree_iterator@V?$_Tree_val@U?$_Tree_simple_types@U?$pair@$$CBV?$basic_string@DU?$char_traits@D@std@@V?$allocator@D@2@@std@@V?$weak_ptr@VRawImageData@@@2@@std@@@std@@@std@@@std@@$0A@@?$_Tree@V?$_Tmap_traits@V?$basic_string@DU?$char_traits@D@std@@V?$allocator@D@2@@std@@V?$weak_ptr@VRawImageData@@@2@U?$less@V?$basic_string@DU?$char_traits@D@std@@V?$allocator@D@2@@std@@@2@V?$allocator@U?$pair@$$CBV?$basic_string@DU?$char_traits@D@std@@V?$allocator@D@2@@std@@V?$weak_ptr@VRawImageData@@@2@@std@@@2@$0A@@std@@@std@@QAE?AV?$_Tree_iterator@V?$_Tree_val@U?$_Tree_simple_types@U?$pair@$$CBV?$basic_string@DU?$char_traits@D@std@@V?$allocator@D@2@@std@@V?$weak_ptr@VRawImageData@@@2@@std@@@std@@@std@@@1@V21@@Z 00400000     RunningState.obj
 0002:fffc9000       __ehfuncinfo$??0?$basic_string@DU?$char_traits@D@std@@V?$allocator@D@2@@std@@QAE@$$QAV01@@Z 00400000     RunningState.obj
 0002:fffc9000       __ehfuncinfo$??1?$_Alloc_construct_ptr@V?$allocator@U?$_Tree_node@U?$pair@$$CBV?$basic_string@DU?$char_traits@D@std@@V?$allocator@D@2@@std@@V?$shared_ptr@VRawImageData@@@2@@std@@PAX@std@@@std@@@std@@QAE@XZ 00400000     RunningState.obj
 0002:fffc9000       __ehfuncinfo$??1?$_Alloc_construct_ptr@V?$allocator@U?$_Tree_node@U?$pair@$$CBV?$basic_string@DU?$char_traits@D@std@@V?$allocator@D@2@@std@@V?$weak_ptr@VRawImageData@@@2@@std@@PAX@std@@@std@@@std@@QAE@XZ 00400000     RunningState.obj
 0002:fffc9000       __ehfuncinfo$??1?$_Tree_temp_node@V?$allocator@U?$_Tree_node@U?$pair@$$CBV?$basic_string@DU?$char_traits@D@std@@V?$allocator@D@2@@std@@V?$shared_ptr@VRawImageData@@@2@@std@@PAX@std@@@std@@@std@@QAE@XZ 00400000     RunningState.obj
 0002:fffc9000       __ehfuncinfo$??1?$_Tree_temp_node@V?$allocator@U?$_Tree_node@U?$pair@$$CBV?$basic_string@DU?$char_traits@D@std@@V?$allocator@D@2@@std@@V?$weak_ptr@VRawImageData@@@2@@std@@PAX@std@@@std@@@std@@QAE@XZ 00400000     RunningState.obj
 0002:fffc9000       __ehfuncinfo$??1RawImageData@@QAE@XZ 00400000     RunningState.obj
 0002:fffc9000       __ehfuncinfo$??1_Sentry_base@?$basic_ostream@DU?$char_traits@D@std@@@std@@QAE@XZ 00400000     RunningState.obj
 0002:fffc9000       __ehfuncinfo$??1sentry@?$basic_ostream@DU?$char_traits@D@std@@@std@@QAE@XZ 00400000     RunningState.obj
 0002:fffc9000       __ehfuncinfo$?_Erase_unchecked@?$_Tree@V?$_Tmap_traits@V?$basic_string@DU?$char_traits@D@std@@V?$allocator@D@2@@std@@V?$weak_ptr@VRawImageData@@@2@U?$less@V?$basic_string@DU?$char_traits@D@std@@V?$allocator@D@2@@std@@@2@V?$allocator@U?$pair@$$CBV?$basic_string@DU?$char_traits@D@std@@V?$allocator@D@2@@std@@V?$weak_ptr@VRawImageData@@@2@@std@@@2@$0A@@std@@@std@@AAEPAU?$_Tree_node@U?$pair@$$CBV?$basic_string@DU?$char_traits@D@std@@V?$allocator@D@2@@std@@V?$weak_ptr@VRawImageData@@@2@@std@@PAX@2@V?$_Tree_unchecked_const_iterator@V?$_Tree_val@U?$_Tree_simple_types@U?$pair@$$CBV?$basic_string@DU?$char_traits@D@std@@V?$allocator@D@2@@std@@V?$weak_ptr@VRawImageData@@@2@@std@@@std@@@std@@U_Iterator_base0@2@@2@@Z 00400000     RunningState.obj
 0002:fffc9000       __ehfuncinfo$?_Extract@?$_Tree_val@U?$_Tree_simple_types@U?$pair@$$CBV?$basic_string@DU?$char_traits@D@std@@V?$allocator@D@2@@std@@V?$weak_ptr@VRawImageData@@@2@@std@@@std@@@std@@QAEPAU?$_Tree_node@U?$pair@$$CBV?$basic_string@DU?$char_traits@D@std@@V?$allocator@D@2@@std@@V?$weak_ptr@VRawImageData@@@2@@std@@PAX@2@V?$_Tree_unchecked_const_iterator@V?$_Tree_val@U?$_Tree_simple_types@U?$pair@$$CBV?$basic_string@DU?$char_traits@D@std@@V?$allocator@D@2@@std@@V?$weak_ptr@VRawImageData@@@2@@std@@@std@@@std@@U_Iterator_base0@2@@2@@Z 00400000     RunningState.obj
 0002:fffc9000       __ehfuncinfo$?_Take_contents@?$basic_string@DU?$char_traits@D@std@@V?$allocator@D@2@@std@@AAEXAAV12@U?$integral_constant@_N$00@2@@Z 00400000     RunningState.obj
 0002:fffc9000       __ehfuncinfo$?_Tidy_deallocate@?$basic_string@DU?$char_traits@D@std@@V?$allocator@D@2@@std@@AAEXXZ 00400000     RunningState.obj
 0002:fffc9000       __ehfuncinfo$?getImagePtrbyURL@ImageManager@@QAE?AV?$shared_ptr@VRawImageData@@@std@@V?$basic_string@DU?$char_traits@D@std@@V?$allocator@D@2@@3@_N1@Z 00400000     RunningState.obj
 0001:fffff000       __ehhandler$??$_Deallocate@$07$0A@@std@@YAXPAXI@Z 00400000 f   RunningState.obj
 0001:fffff000       __ehhandler$??$_Deallocate_plain@V?$allocator@U_Container_proxy@std@@@std@@@std@@YAXAAV?$allocator@U_Container_proxy@std@@@0@QAU_Container_proxy@0@@Z 00400000 f   RunningState.obj
 0001:fffff000       __ehhandler$??$_Freenode0@V?$allocator@U?$_Tree_node@U?$pair@$$CBV?$basic_string@DU?$char_traits@D@std@@V?$allocator@D@2@@std@@V?$shared_ptr@VRawImageData@@@2@@std@@PAX@std@@@std@@@?$_Tree_node@U?$pair@$$CBV?$basic_string@DU?$char_traits@D@std@@V?$allocator@D@2@@std@@V?$shared_ptr@VRawImageData@@@2@@std@@PAX@std@@SAXAAV?$allocator@U?$_Tree_node@U?$pair@$$CBV?$basic_string@DU?$char_traits@D@std@@V?$allocator@D@2@@std@@V?$shared_ptr@VRawImageData@@@2@@std@@PAX@std@@@1@PAU01@@Z 00400000 f   RunningState.obj
 0001:fffff000       __ehhandler$??$_Freenode0@V?$allocator@U?$_Tree_node@U?$pair@$$CBV?$basic_string@DU?$char_traits@D@std@@V?$allocator@D@2@@std@@V?$weak_ptr@VRawImageData@@@2@@std@@PAX@std@@@std@@@?$_Tree_node@U?$pair@$$CBV?$basic_string@DU?$char_traits@D@std@@V?$allocator@D@2@@std@@V?$weak_ptr@VRawImageData@@@2@@std@@PAX@std@@SAXAAV?$allocator@U?$_Tree_node@U?$pair@$$CBV?$basic_string@DU?$char_traits@D@std@@V?$allocator@D@2@@std@@V?$weak_ptr@VRawImageData@@@2@@std@@PAX@std@@@1@PAU01@@Z 00400000 f   RunningState.obj
 0001:fffff000       __ehhandler$??$_Freenode@V?$allocator@U?$_Tree_node@U?$pair@$$CBV?$basic_string@DU?$char_traits@D@std@@V?$allocator@D@2@@std@@V?$shared_ptr@VRawImageData@@@2@@std@@PAX@std@@@std@@@?$_Tree_node@U?$pair@$$CBV?$basic_string@DU?$char_traits@D@std@@V?$allocator@D@2@@std@@V?$shared_ptr@VRawImageData@@@2@@std@@PAX@std@@SAXAAV?$allocator@U?$_Tree_node@U?$pair@$$CBV?$basic_string@DU?$char_traits@D@std@@V?$allocator@D@2@@std@@V?$shared_ptr@VRawImageData@@@2@@std@@PAX@std@@@1@PAU01@@Z 00400000 f   RunningState.obj
 0001:fffff000       __ehhandler$??$_Freenode@V?$allocator@U?$_Tree_node@U?$pair@$$CBV?$basic_string@DU?$char_traits@D@std@@V?$allocator@D@2@@std@@V?$weak_ptr@VRawImageData@@@2@@std@@PAX@std@@@std@@@?$_Tree_node@U?$pair@$$CBV?$basic_string@DU?$char_traits@D@std@@V?$allocator@D@2@@std@@V?$weak_ptr@VRawImageData@@@2@@std@@PAX@std@@SAXAAV?$allocator@U?$_Tree_node@U?$pair@$$CBV?$basic_string@DU?$char_traits@D@std@@V?$allocator@D@2@@std@@V?$weak_ptr@VRawImageData@@@2@@std@@PAX@std@@@1@PAU01@@Z 00400000 f   RunningState.obj
 0001:fffff000       __ehhandler$??$erase@V?$_Tree_iterator@V?$_Tree_val@U?$_Tree_simple_types@U?$pair@$$CBV?$basic_string@DU?$char_traits@D@std@@V?$allocator@D@2@@std@@V?$weak_ptr@VRawImageData@@@2@@std@@@std@@@std@@@std@@$0A@@?$_Tree@V?$_Tmap_traits@V?$basic_string@DU?$char_traits@D@std@@V?$allocator@D@2@@std@@V?$weak_ptr@VRawImageData@@@2@U?$less@V?$basic_string@DU?$char_traits@D@std@@V?$allocator@D@2@@std@@@2@V?$allocator@U?$pair@$$CBV?$basic_string@DU?$char_traits@D@std@@V?$allocator@D@2@@std@@V?$weak_ptr@VRawImageData@@@2@@std@@@2@$0A@@std@@@std@@QAE?AV?$_Tree_iterator@V?$_Tree_val@U?$_Tree_simple_types@U?$pair@$$CBV?$basic_string@DU?$char_traits@D@std@@V?$allocator@D@2@@std@@V?$weak_ptr@VRawImageData@@@2@@std@@@std@@@std@@@1@V21@@Z 00400000 f   RunningState.obj
 0001:fffff000       __ehhandler$??0?$basic_string@DU?$char_traits@D@std@@V?$allocator@D@2@@std@@QAE@$$QAV01@@Z 00400000 f   RunningState.obj
 0001:fffff000       __ehhandler$??1?$_Alloc_construct_ptr@V?$allocator@U?$_Tree_node@U?$pair@$$CBV?$basic_string@DU?$char_traits@D@std@@V?$allocator@D@2@@std@@V?$shared_ptr@VRawImageData@@@2@@std@@PAX@std@@@std@@@std@@QAE@XZ 00400000 f   RunningState.obj
 0001:fffff000       __ehhandler$??1?$_Alloc_construct_ptr@V?$allocator@U?$_Tree_node@U?$pair@$$CBV?$basic_string@DU?$char_traits@D@std@@V?$allocator@D@2@@std@@V?$weak_ptr@VRawImageData@@@2@@std@@PAX@std@@@std@@@std@@QAE@XZ 00400000 f   RunningState.obj
 0001:fffff000       __ehhandler$??1?$_Tree_temp_node@V?$allocator@U?$_Tree_node@U?$pair@$$CBV?$basic_string@DU?$char_traits@D@std@@V?$allocator@D@2@@std@@V?$shared_ptr@VRawImageData@@@2@@std@@PAX@std@@@std@@@std@@QAE@XZ 00400000 f   RunningState.obj
 0001:fffff000       __ehhandler$??1?$_Tree_temp_node@V?$allocator@U?$_Tree_node@U?$pair@$$CBV?$basic_string@DU?$char_traits@D@std@@V?$allocator@D@2@@std@@V?$weak_ptr@VRawImageData@@@2@@std@@PAX@std@@@std@@@std@@QAE@XZ 00400000 f   RunningState.obj
 0001:fffff000       __ehhandler$??1RawImageData@@QAE@XZ 00400000 f   RunningState.obj
 0001:fffff000       __ehhandler$??1_Sentry_base@?$basic_ostream@DU?$char_traits@D@std@@@std@@QAE@XZ 00400000 f   RunningState.obj
 0001:fffff000       __ehhandler$??1sentry@?$basic_ostream@DU?$char_traits@D@std@@@std@@QAE@XZ 00400000 f   RunningState.obj
 0001:fffff000       __ehhandler$?_Erase_unchecked@?$_Tree@V?$_Tmap_traits@V?$basic_string@DU?$char_traits@D@std@@V?$allocator@D@2@@std@@V?$weak_ptr@VRawImageData@@@2@U?$less@V?$basic_string@DU?$char_traits@D@std@@V?$allocator@D@2@@std@@@2@V?$allocator@U?$pair@$$CBV?$basic_string@DU?$char_traits@D@std@@V?$allocator@D@2@@std@@V?$weak_ptr@VRawImageData@@@2@@std@@@2@$0A@@std@@@std@@AAEPAU?$_Tree_node@U?$pair@$$CBV?$basic_string@DU?$char_traits@D@std@@V?$allocator@D@2@@std@@V?$weak_ptr@VRawImageData@@@2@@std@@PAX@2@V?$_Tree_unchecked_const_iterator@V?$_Tree_val@U?$_Tree_simple_types@U?$pair@$$CBV?$basic_string@DU?$char_traits@D@std@@V?$allocator@D@2@@std@@V?$weak_ptr@VRawImageData@@@2@@std@@@std@@@std@@U_Iterator_base0@2@@2@@Z 00400000 f   RunningState.obj
 0001:fffff000       __ehhandler$?_Extract@?$_Tree_val@U?$_Tree_simple_types@U?$pair@$$CBV?$basic_string@DU?$char_traits@D@std@@V?$allocator@D@2@@std@@V?$weak_ptr@VRawImageData@@@2@@std@@@std@@@std@@QAEPAU?$_Tree_node@U?$pair@$$CBV?$basic_string@DU?$char_traits@D@std@@V?$allocator@D@2@@std@@V?$weak_ptr@VRawImageData@@@2@@std@@PAX@2@V?$_Tree_unchecked_const_iterator@V?$_Tree_val@U?$_Tree_simple_types@U?$pair@$$CBV?$basic_string@DU?$char_traits@D@std@@V?$allocator@D@2@@std@@V?$weak_ptr@VRawImageData@@@2@@std@@@std@@@std@@U_Iterator_base0@2@@2@@Z 00400000 f   RunningState.obj
 0001:fffff000       __ehhandler$?_Take_contents@?$basic_string@DU?$char_traits@D@std@@V?$allocator@D@2@@std@@AAEXAAV12@U?$integral_constant@_N$00@2@@Z 00400000 f   RunningState.obj
 0001:fffff000       __ehhandler$?_Tidy_deallocate@?$basic_string@DU?$char_traits@D@std@@V?$allocator@D@2@@std@@AAEXXZ 00400000 f   RunningState.obj
 0001:fffff000       __unwindfunclet$??$?0U?$pair@V?$basic_string@DU?$char_traits@D@std@@V?$allocator@D@2@@std@@V?$shared_ptr@VRawImageData@@@2@@std@@@?$_Tree_temp_node@V?$allocator@U?$_Tree_node@U?$pair@$$CBV?$basic_string@DU?$char_traits@D@std@@V?$allocator@D@2@@std@@V?$shared_ptr@VRawImageData@@@2@@std@@PAX@std@@@std@@@std@@QAE@AAV?$allocator@U?$_Tree_node@U?$pair@$$CBV?$basic_string@DU?$char_traits@D@std@@V?$allocator@D@2@@std@@V?$shared_ptr@VRawImageData@@@2@@std@@PAX@std@@@1@PAU?$_Tree_node@U?$pair@$$CBV?$basic_string@DU?$char_traits@D@std@@V?$allocator@D@2@@std@@V?$shared_ptr@VRawImageData@@@2@@std@@PAX@1@$$QAU?$pair@V?$basic_string@DU?$char_traits@D@std@@V?$allocator@D@2@@std@@V?$shared_ptr@VRawImageData@@@2@@1@@Z$0 00400000 f   RunningState.obj
 0001:fffff000       __unwindfunclet$??$?0U?$pair@V?$basic_string@DU?$char_traits@D@std@@V?$allocator@D@2@@std@@V?$weak_ptr@VRawImageData@@@2@@std@@@?$_Tree_temp_node@V?$allocator@U?$_Tree_node@U?$pair@$$CBV?$basic_string@DU?$char_traits@D@std@@V?$allocator@D@2@@std@@V?$weak_ptr@VRawImageData@@@2@@std@@PAX@std@@@std@@@std@@QAE@AAV?$allocator@U?$_Tree_node@U?$pair@$$CBV?$basic_string@DU?$char_traits@D@std@@V?$allocator@D@2@@std@@V?$weak_ptr@VRawImageData@@@2@@std@@PAX@std@@@1@PAU?$_Tree_node@U?$pair@$$CBV?$basic_string@DU?$char_traits@D@std@@V?$allocator@D@2@@std@@V?$weak_ptr@VRawImageData@@@2@@std@@PAX@1@$$QAU?$pair@V?$basic_string@DU?$char_traits@D@std@@V?$allocator@D@2@@std@@V?$weak_ptr@VRawImageData@@@2@@1@@Z$0 00400000 f   RunningState.obj
 0001:fffff000       __unwindfunclet$??$?0VRawImageData@@$0A@@?$shared_ptr@VRawImageData@@@std@@QAE@PAVRawImageData@@@Z$0 00400000 f   RunningState.obj
 0001:fffff000       __unwindfunclet$??$?6U?$char_traits@D@std@@@std@@YAAAV?$basic_ostream@DU?$char_traits@D@std@@@0@AAV10@PBD@Z$2 00400000 f   RunningState.obj
 0001:fffff000       __unwindfunclet$??$_Insert_string@DU?$char_traits@D@std@@I@std@@YAAAV?$basic_ostream@DU?$char_traits@D@std@@@0@AAV10@QBDI@Z$2 00400000 f   RunningState.obj
 0001:fffff000       __unwindfunclet$??0?$_Tree_temp_node_alloc@V?$allocator@U?$_Tree_node@U?$pair@$$CBV?$basic_string@DU?$char_traits@D@std@@V?$allocator@D@2@@std@@V?$shared_ptr@VRawImageData@@@2@@std@@PAX@std@@@std@@@std@@QAE@AAV?$allocator@U?$_Tree_node@U?$pair@$$CBV?$basic_string@DU?$char_traits@D@std@@V?$allocator@D@2@@std@@V?$shared_ptr@VRawImageData@@@2@@std@@PAX@std@@@1@@Z$0 00400000 f   RunningState.obj
 0001:fffff000       __unwindfunclet$??0?$_Tree_temp_node_alloc@V?$allocator@U?$_Tree_node@U?$pair@$$CBV?$basic_string@DU?$char_traits@D@std@@V?$allocator@D@2@@std@@V?$weak_ptr@VRawImageData@@@2@@std@@PAX@std@@@std@@@std@@QAE@AAV?$allocator@U?$_Tree_node@U?$pair@$$CBV?$basic_string@DU?$char_traits@D@std@@V?$allocator@D@2@@std@@V?$weak_ptr@VRawImageData@@@2@@std@@PAX@std@@@1@@Z$0 00400000 f   RunningState.obj
 0001:fffff000       __unwindfunclet$??0?$basic_string@DU?$char_traits@D@std@@V?$allocator@D@2@@std@@QAE@ABV01@@Z$0 00400000 f   RunningState.obj
 0001:fffff000       __unwindfunclet$??0?$basic_string@DU?$char_traits@D@std@@V?$allocator@D@2@@std@@QAE@QBD@Z$0 00400000 f   RunningState.obj
 0001:fffff000       __unwindfunclet$??0ImageManager@@QAE@XZ$0 00400000 f   RunningState.obj
 0001:fffff000       __unwindfunclet$??0RawImageData@@QAE@V?$basic_string@DU?$char_traits@D@std@@V?$allocator@D@2@@std@@@Z$0 00400000 f   RunningState.obj
 0001:fffff000       __unwindfunclet$??0sentry@?$basic_ostream@DU?$char_traits@D@std@@@std@@QAE@AAV12@@Z$0 00400000 f   RunningState.obj
 0001:fffff000       __unwindfunclet$?_Alloc_sentinel_and_proxy@?$_Tree@V?$_Tmap_traits@V?$basic_string@DU?$char_traits@D@std@@V?$allocator@D@2@@std@@V?$shared_ptr@VRawImageData@@@2@U?$less@V?$basic_string@DU?$char_traits@D@std@@V?$allocator@D@2@@std@@@2@V?$allocator@U?$pair@$$CBV?$basic_string@DU?$char_traits@D@std@@V?$allocator@D@2@@std@@V?$shared_ptr@VRawImageData@@@2@@std@@@2@$0A@@std@@@std@@IAEXXZ$0 00400000 f   RunningState.obj
 0001:fffff000       __unwindfunclet$?_Alloc_sentinel_and_proxy@?$_Tree@V?$_Tmap_traits@V?$basic_string@DU?$char_traits@D@std@@V?$allocator@D@2@@std@@V?$weak_ptr@VRawImageData@@@2@U?$less@V?$basic_string@DU?$char_traits@D@std@@V?$allocator@D@2@@std@@@2@V?$allocator@U?$pair@$$CBV?$basic_string@DU?$char_traits@D@std@@V?$allocator@D@2@@std@@V?$weak_ptr@VRawImageData@@@2@@std@@@2@$0A@@std@@@std@@IAEXXZ$0 00400000 f   RunningState.obj
 0001:fffff000       __unwindfunclet$?get@ImageManager@@SAPAV1@XZ$0 00400000 f   RunningState.obj
 0001:fffff000       __unwindfunclet$?getImagePtrbyURL@ImageManager@@QAE?AV?$shared_ptr@VRawImageData@@@std@@V?$basic_string@DU?$char_traits@D@std@@V?$allocator@D@2@@3@_N1@Z$0 00400000 f   RunningState.obj
 0001:fffff000       __unwindfunclet$?getImagebyURL@ImageManager@@QAE?AVSimpleImage@@V?$basic_string@DU?$char_traits@D@std@@V?$allocator@D@2@@std@@_N1@Z$0 00400000 f   RunningState.obj
 0001:fffff000       __unwindfunclet$?loadAsNew@ImageManager@@QAE?AV?$shared_ptr@VRawImageData@@@std@@V?$basic_string@DU?$char_traits@D@std@@V?$allocator@D@2@@3@@Z$0 00400000 f   RunningState.obj
 0001:fffff000       __unwindfunclet$?loadImage@ImageManager@@SA?AVSimpleImage@@V?$basic_string@DU?$char_traits@D@std@@V?$allocator@D@2@@std@@_N@Z$0 00400000 f   RunningState.obj
 0001:fffff000       __unwindfunclet$?loadImage@RawImageData@@QAE_NV?$basic_string@DU?$char_traits@D@std@@V?$allocator@D@2@@std@@HHHHH_N@Z$0 00400000 f   RunningState.obj
 0002:fffc9000       __unwindtable$??$?0U?$pair@V?$basic_string@DU?$char_traits@D@std@@V?$allocator@D@2@@std@@V?$shared_ptr@VRawImageData@@@2@@std@@@?$_Tree_temp_node@V?$allocator@U?$_Tree_node@U?$pair@$$CBV?$basic_string@DU?$char_traits@D@std@@V?$allocator@D@2@@std@@V?$shared_ptr@VRawImageData@@@2@@std@@PAX@std@@@std@@@std@@QAE@AAV?$allocator@U?$_Tree_node@U?$pair@$$CBV?$basic_string@DU?$char_traits@D@std@@V?$allocator@D@2@@std@@V?$shared_ptr@VRawImageData@@@2@@std@@PAX@std@@@1@PAU?$_Tree_node@U?$pair@$$CBV?$basic_string@DU?$char_traits@D@std@@V?$allocator@D@2@@std@@V?$shared_ptr@VRawImageData@@@2@@std@@PAX@1@$$QAU?$pair@V?$basic_string@DU?$char_traits@D@std@@V?$allocator@D@2@@std@@V?$shared_ptr@VRawImageData@@@2@@1@@Z 00400000     RunningState.obj
 0002:fffc9000       __unwindtable$??$?0U?$pair@V?$basic_string@DU?$char_traits@D@std@@V?$allocator@D@2@@std@@V?$weak_ptr@VRawImageData@@@2@@std@@@?$_Tree_temp_node@V?$allocator@U?$_Tree_node@U?$pair@$$CBV?$basic_string@DU?$char_traits@D@std@@V?$allocator@D@2@@std@@V?$weak_ptr@VRawImageData@@@2@@std@@PAX@std@@@std@@@std@@QAE@AAV?$allocator@U?$_Tree_node@U?$pair@$$CBV?$basic_string@DU?$char_traits@D@std@@V?$allocator@D@2@@std@@V?$weak_ptr@VRawImageData@@@2@@std@@PAX@std@@@1@PAU?$_Tree_node@U?$pair@$$CBV?$basic_string@DU?$char_traits@D@std@@V?$allocator@D@2@@std@@V?$weak_ptr@VRawImageData@@@2@@std@@PAX@1@$$QAU?$pair@V?$basic_string@DU?$char_traits@D@std@@V?$allocator@D@2@@std@@V?$weak_ptr@VRawImageData@@@2@@1@@Z 00400000     RunningState.obj
 0002:fffc9000       __unwindtable$??$?0VRawImageData@@$0A@@?$shared_ptr@VRawImageData@@@std@@QAE@PAVRawImageData@@@Z 00400000     RunningState.obj
 0002:fffc9000       __unwindtable$??0?$_Tree_temp_node_alloc@V?$allocator@U?$_Tree_node@U?$pair@$$CBV?$basic_string@DU?$char_traits@D@std@@V?$allocator@D@2@@std@@V?$shared_ptr@VRawImageData@@@2@@std@@PAX@std@@@std@@@std@@QAE@AAV?$allocator@U?$_Tree_node@U?$pair@$$CBV?$basic_string@DU?$char_traits@D@std@@V?$allocator@D@2@@std@@V?$shared_ptr@VRawImageData@@@2@@std@@PAX@std@@@1@@Z 00400000     RunningState.obj
 0002:fffc9000       __unwindtable$??0?$_Tree_temp_node_alloc@V?$allocator@U?$_Tree_node@U?$pair@$$CBV?$basic_string@DU?$char_traits@D@std@@V?$allocator@D@2@@std@@V?$weak_ptr@VRawImageData@@@2@@std@@PAX@std@@@std@@@std@@QAE@AAV?$allocator@U?$_Tree_node@U?$pair@$$CBV?$basic_string@DU?$char_traits@D@std@@V?$allocator@D@2@@std@@V?$weak_ptr@VRawImageData@@@2@@std@@PAX@std@@@1@@Z 00400000     RunningState.obj
 0002:fffc9000       __unwindtable$??0?$basic_string@DU?$char_traits@D@std@@V?$allocator@D@2@@std@@QAE@ABV01@@Z 00400000     RunningState.obj
 0002:fffc9000       __unwindtable$??0?$basic_string@DU?$char_traits@D@std@@V?$allocator@D@2@@std@@QAE@QBD@Z 00400000     RunningState.obj
 0002:fffc9000       __unwindtable$??0ImageManager@@QAE@XZ 00400000     RunningState.obj
 0002:fffc9000       __unwindtable$??0RawImageData@@QAE@V?$basic_string@DU?$char_traits@D@std@@V?$allocator@D@2@@std@@@Z 00400000     RunningState.obj
 0002:fffc9000       __unwindtable$??0sentry@?$basic_ostream@DU?$char_traits@D@std@@@std@@QAE@AAV12@@Z 00400000     RunningState.obj
 0002:fffc9000       __unwindtable$?_Alloc_sentinel_and_proxy@?$_Tree@V?$_Tmap_traits@V?$basic_string@DU?$char_traits@D@std@@V?$allocator@D@2@@std@@V?$shared_ptr@VRawImageData@@@2@U?$less@V?$basic_string@DU?$char_traits@D@std@@V?$allocator@D@2@@std@@@2@V?$allocator@U?$pair@$$CBV?$basic_string@DU?$char_traits@D@std@@V?$allocator@D@2@@std@@V?$shared_ptr@VRawImageData@@@2@@std@@@2@$0A@@std@@@std@@IAEXXZ 00400000     RunningState.obj
 0002:fffc9000       __unwindtable$?_Alloc_sentinel_and_proxy@?$_Tree@V?$_Tmap_traits@V?$basic_string@DU?$char_traits@D@std@@V?$allocator@D@2@@std@@V?$weak_ptr@VRawImageData@@@2@U?$less@V?$basic_string@DU?$char_traits@D@std@@V?$allocator@D@2@@std@@@2@V?$allocator@U?$pair@$$CBV?$basic_string@DU?$char_traits@D@std@@V?$allocator@D@2@@std@@V?$weak_ptr@VRawImageData@@@2@@std@@@2@$0A@@std@@@std@@IAEXXZ 00400000     RunningState.obj
 0002:fffc9000       __unwindtable$?get@ImageManager@@SAPAV1@XZ 00400000     RunningState.obj
 0002:fffc9000       __unwindtable$?getImagebyURL@ImageManager@@QAE?AVSimpleImage@@V?$basic_string@DU?$char_traits@D@std@@V?$allocator@D@2@@std@@_N1@Z 00400000     RunningState.obj
 0002:fffc9000       __unwindtable$?loadAsNew@ImageManager@@QAE?AV?$shared_ptr@VRawImageData@@@std@@V?$basic_string@DU?$char_traits@D@std@@V?$allocator@D@2@@3@@Z 00400000     RunningState.obj
 0002:fffc9000       __unwindtable$?loadImage@ImageManager@@SA?AVSimpleImage@@V?$basic_string@DU?$char_traits@D@std@@V?$allocator@D@2@@std@@_N@Z 00400000     RunningState.obj
 0002:fffc9000       __unwindtable$?loadImage@RawImageData@@QAE_NV?$basic_string@DU?$char_traits@D@std@@V?$allocator@D@2@@std@@HHHHH_N@Z 00400000     RunningState.obj
 0002:fffc9000       __catchsym$??$?6U?$char_traits@D@std@@@std@@YAAAV?$basic_ostream@DU?$char_traits@D@std@@@0@AAV10@PBD@Z$3 00400000     SimpleImage.obj
 0002:fffc9000       __ehfuncinfo$??1_Sentry_base@?$basic_ostream@DU?$char_traits@D@std@@@std@@QAE@XZ 00400000     SimpleImage.obj
 0002:fffc9000       __ehfuncinfo$??1sentry@?$basic_ostream@DU?$char_traits@D@std@@@std@@QAE@XZ 00400000     SimpleImage.obj
 0001:fffff000       __ehhandler$??1_Sentry_base@?$basic_ostream@DU?$char_traits@D@std@@@std@@QAE@XZ 00400000 f   SimpleImage.obj
 0001:fffff000       __ehhandler$??1sentry@?$basic_ostream@DU?$char_traits@D@std@@@std@@QAE@XZ 00400000 f   SimpleImage.obj
 0001:fffff000       __unwindfunclet$??$?6U?$char_traits@D@std@@@std@@YAAAV?$basic_ostream@DU?$char_traits@D@std@@@0@AAV10@PBD@Z$2 00400000 f   SimpleImage.obj
 0001:fffff000       __unwindfunclet$??0sentry@?$basic_ostream@DU?$char_traits@D@std@@@std@@QAE@AAV12@@Z$0 00400000 f   SimpleImage.obj
 0002:fffc9000       __unwindtable$??0sentry@?$basic_ostream@DU?$char_traits@D@std@@@std@@QAE@AAV12@@Z 00400000     SimpleImage.obj
 0002:fffc9000       __ehfuncinfo$??$_Deallocate@$07$0A@@std@@YAXPAXI@Z 00400000     mainfunction.obj
 0002:fffc9000       __ehfuncinfo$??$_Deallocate_plain@V?$allocator@U_Container_proxy@std@@@std@@@std@@YAXAAV?$allocator@U_Container_proxy@std@@@0@QAU_Container_proxy@0@@Z 00400000     mainfunction.obj
 0002:fffc9000       __ehfuncinfo$??$_Freenode0@V?$allocator@U?$_Tree_node@U?$pair@$$CBV?$basic_string@DU?$char_traits@D@std@@V?$allocator@D@2@@std@@V?$shared_ptr@VRawImageData@@@2@@std@@PAX@std@@@std@@@?$_Tree_node@U?$pair@$$CBV?$basic_string@DU?$char_traits@D@std@@V?$allocator@D@2@@std@@V?$shared_ptr@VRawImageData@@@2@@std@@PAX@std@@SAXAAV?$allocator@U?$_Tree_node@U?$pair@$$CBV?$basic_string@DU?$char_traits@D@std@@V?$allocator@D@2@@std@@V?$shared_ptr@VRawImageData@@@2@@std@@PAX@std@@@1@PAU01@@Z 00400000     mainfunction.obj
 0002:fffc9000       __ehfuncinfo$??$_Freenode0@V?$allocator@U?$_Tree_node@U?$pair@$$CBV?$basic_string@DU?$char_traits@D@std@@V?$allocator@D@2@@std@@V?$weak_ptr@VRawImageData@@@2@@std@@PAX@std@@@std@@@?$_Tree_node@U?$pair@$$CBV?$basic_string@DU?$char_traits@D@std@@V?$allocator@D@2@@std@@V?$weak_ptr@VRawImageData@@@2@@std@@PAX@std@@SAXAAV?$allocator@U?$_Tree_node@U?$pair@$$CBV?$basic_string@DU?$char_traits@D@std@@V?$allocator@D@2@@std@@V?$weak_ptr@VRawImageData@@@2@@std@@PAX@std@@@1@PAU01@@Z 00400000     mainfunction.obj
 0002:fffc9000       __ehfuncinfo$??$_Freenode@V?$allocator@U?$_Tree_node@U?$pair@$$CBV?$basic_string@DU?$char_traits@D@std@@V?$allocator@D@2@@std@@V?$shared_ptr@VRawImageData@@@2@@std@@PAX@std@@@std@@@?$_Tree_node@U?$pair@$$CBV?$basic_string@DU?$char_traits@D@std@@V?$allocator@D@2@@std@@V?$shared_ptr@VRawImageData@@@2@@std@@PAX@std@@SAXAAV?$allocator@U?$_Tree_node@U?$pair@$$CBV?$basic_string@DU?$char_traits@D@std@@V?$allocator@D@2@@std@@V?$shared_ptr@VRawImageData@@@2@@std@@PAX@std@@@1@PAU01@@Z 00400000     mainfunction.obj
 0002:fffc9000       __ehfuncinfo$??$_Freenode@V?$allocator@U?$_Tree_node@U?$pair@$$CBV?$basic_string@DU?$char_traits@D@std@@V?$allocator@D@2@@std@@V?$weak_ptr@VRawImageData@@@2@@std@@PAX@std@@@std@@@?$_Tree_node@U?$pair@$$CBV?$basic_string@DU?$char_traits@D@std@@V?$allocator@D@2@@std@@V?$weak_ptr@VRawImageData@@@2@@std@@PAX@std@@SAXAAV?$allocator@U?$_Tree_node@U?$pair@$$CBV?$basic_string@DU?$char_traits@D@std@@V?$allocator@D@2@@std@@V?$weak_ptr@VRawImageData@@@2@@std@@PAX@std@@@1@PAU01@@Z 00400000     mainfunction.obj
 0002:fffc9000       __ehfuncinfo$?_Tidy_deallocate@?$basic_string@DU?$char_traits@D@std@@V?$allocator@D@2@@std@@AAEXXZ 00400000     mainfunction.obj
 0001:fffff000       __ehhandler$??$_Deallocate@$07$0A@@std@@YAXPAXI@Z 00400000 f   mainfunction.obj
 0001:fffff000       __ehhandler$??$_Deallocate_plain@V?$allocator@U_Container_proxy@std@@@std@@@std@@YAXAAV?$allocator@U_Container_proxy@std@@@0@QAU_Container_proxy@0@@Z 00400000 f   mainfunction.obj
 0001:fffff000       __ehhandler$??$_Freenode0@V?$allocator@U?$_Tree_node@U?$pair@$$CBV?$basic_string@DU?$char_traits@D@std@@V?$allocator@D@2@@std@@V?$shared_ptr@VRawImageData@@@2@@std@@PAX@std@@@std@@@?$_Tree_node@U?$pair@$$CBV?$basic_string@DU?$char_traits@D@std@@V?$allocator@D@2@@std@@V?$shared_ptr@VRawImageData@@@2@@std@@PAX@std@@SAXAAV?$allocator@U?$_Tree_node@U?$pair@$$CBV?$basic_string@DU?$char_traits@D@std@@V?$allocator@D@2@@std@@V?$shared_ptr@VRawImageData@@@2@@std@@PAX@std@@@1@PAU01@@Z 00400000 f   mainfunction.obj
 0001:fffff000       __ehhandler$??$_Freenode0@V?$allocator@U?$_Tree_node@U?$pair@$$CBV?$basic_string@DU?$char_traits@D@std@@V?$allocator@D@2@@std@@V?$weak_ptr@VRawImageData@@@2@@std@@PAX@std@@@std@@@?$_Tree_node@U?$pair@$$CBV?$basic_string@DU?$char_traits@D@std@@V?$allocator@D@2@@std@@V?$weak_ptr@VRawImageData@@@2@@std@@PAX@std@@SAXAAV?$allocator@U?$_Tree_node@U?$pair@$$CBV?$basic_string@DU?$char_traits@D@std@@V?$allocator@D@2@@std@@V?$weak_ptr@VRawImageData@@@2@@std@@PAX@std@@@1@PAU01@@Z 00400000 f   mainfunction.obj
 0001:fffff000       __ehhandler$??$_Freenode@V?$allocator@U?$_Tree_node@U?$pair@$$CBV?$basic_string@DU?$char_traits@D@std@@V?$allocator@D@2@@std@@V?$shared_ptr@VRawImageData@@@2@@std@@PAX@std@@@std@@@?$_Tree_node@U?$pair@$$CBV?$basic_string@DU?$char_traits@D@std@@V?$allocator@D@2@@std@@V?$shared_ptr@VRawImageData@@@2@@std@@PAX@std@@SAXAAV?$allocator@U?$_Tree_node@U?$pair@$$CBV?$basic_string@DU?$char_traits@D@std@@V?$allocator@D@2@@std@@V?$shared_ptr@VRawImageData@@@2@@std@@PAX@std@@@1@PAU01@@Z 00400000 f   mainfunction.obj
 0001:fffff000       __ehhandler$??$_Freenode@V?$allocator@U?$_Tree_node@U?$pair@$$CBV?$basic_string@DU?$char_traits@D@std@@V?$allocator@D@2@@std@@V?$weak_ptr@VRawImageData@@@2@@std@@PAX@std@@@std@@@?$_Tree_node@U?$pair@$$CBV?$basic_string@DU?$char_traits@D@std@@V?$allocator@D@2@@std@@V?$weak_ptr@VRawImageData@@@2@@std@@PAX@std@@SAXAAV?$allocator@U?$_Tree_node@U?$pair@$$CBV?$basic_string@DU?$char_traits@D@std@@V?$allocator@D@2@@std@@V?$weak_ptr@VRawImageData@@@2@@std@@PAX@std@@@1@PAU01@@Z 00400000 f   mainfunction.obj
 0001:fffff000       __ehhandler$?_Tidy_deallocate@?$basic_string@DU?$char_traits@D@std@@V?$allocator@D@2@@std@@AAEXXZ 00400000 f   mainfunction.obj
 0000:fffad000       .debug$S                   00400000     SDL2:SDL2.dll
 0000:fffad000       .debug$S                   00400000     SDL2:SDL2.dll
 0000:fffad000       .debug$S                   00400000     SDL2:SDL2.dll
 0000:fffad000       .debug$S                   00400000     SDL2:SDL2.dll
 0000:fffad000       .debug$S                   00400000     SDL2:SDL2.dll
 0000:fffad000       .debug$S                   00400000     SDL2:SDL2.dll
 0000:fffad000       .debug$S                   00400000     SDL2:SDL2.dll
 0000:fffad000       .debug$S                   00400000     SDL2:SDL2.dll
 0000:fffad000       .debug$S                   00400000     SDL2:SDL2.dll
 0000:fffad000       .debug$S                   00400000     SDL2:SDL2.dll
 0000:fffad000       .debug$S                   00400000     SDL2:SDL2.dll
 0000:fffad000       .debug$S                   00400000     SDL2:SDL2.dll
 0000:fffad000       .debug$S                   00400000     SDL2:SDL2.dll
 0000:fffad000       .debug$S                   00400000     SDL2:SDL2.dll
 0000:fffad000       .debug$S                   00400000     SDL2:SDL2.dll
 0000:fffad000       .debug$S                   00400000     SDL2:SDL2.dll
 0000:fffad000       .debug$S                   00400000     SDL2:SDL2.dll
 0000:fffad000       .debug$S                   00400000     SDL2:SDL2.dll
 0000:fffad000       .debug$S                   00400000     SDL2:SDL2.dll
 0000:fffad000       .debug$S                   00400000     SDL2:SDL2.dll
 0000:fffad000       .debug$S                   00400000     SDL2:SDL2.dll
 0000:fffad000       .debug$S                   00400000     SDL2:SDL2.dll
 0000:fffad000       .debug$S                   00400000     SDL2:SDL2.dll
 0000:fffad000       .debug$S                   00400000     SDL2:SDL2.dll
 0000:fffad000       .debug$S                   00400000     SDL2:SDL2.dll
 0000:fffad000       .debug$S                   00400000     SDL2:SDL2.dll
 0000:fffad000       .debug$S                   00400000     SDL2:SDL2.dll
 0000:fffad000       .debug$S                   00400000     SDL2:SDL2.dll
 0000:fffad000       .debug$S                   00400000     SDL2:SDL2.dll
 0000:fffad000       .debug$S                   00400000     SDL2:SDL2.dll
 0000:fffad000       .debug$S                   00400000     SDL2_image:SDL2_image.dll
 0000:fffad000       .debug$S                   00400000     SDL2_ttf:SDL2_ttf.dll
 0000:fffad000       .debug$S                   00400000     SDL2_ttf:SDL2_ttf.dll
 0000:fffad000       .debug$S                   00400000     SDL2_ttf:SDL2_ttf.dll
 0000:fffad000       .debug$S                   00400000     SDL2_ttf:SDL2_ttf.dll
 0000:fffad000       .debug$S                   00400000     SDL2_ttf:SDL2_ttf.dll
 0000:fffaf000       __guard_fids___except_handler4 00400000     MSVCRTD:chandler4gs.obj
 0000:fffaf000       __guard_fids_?pre_c_initialization@@YAHXZ 00400000     MSVCRTD:exe_main.obj
 0000:fffaf000       __guard_fids__             00400000     MSVCRTD:exe_main.obj
 0000:fffaf000       __guard_fids__             00400000     MSVCRTD:guard_support.obj
 0000:fffaf000       __guard_fids__             00400000     MSVCRTD:guard_support.obj
 0000:fffaf000       __guard_fids___guard_icall_checks_enforced 00400000     MSVCRTD:guard_support.obj
 0000:fffaf000       __guard_fids__             00400000     MSVCRTD:std_type_info_static.obj
 0000:fffaf000       __guard_fids__             00400000     MSVCRTD:throw_bad_alloc.obj
 0000:fffaf000       __guard_fids__             00400000     MSVCRTD:throw_bad_alloc.obj
 0000:fffaf000       __guard_fids__             00400000     MSVCRTD:throw_bad_alloc.obj
 0000:fffaf000       __guard_fids__             00400000     MSVCRTD:throw_bad_alloc.obj
 0000:fffaf000       __guard_fids__             00400000     MSVCRTD:throw_bad_alloc.obj
 0000:fffaf000       __guard_fids__             00400000     MSVCRTD:throw_bad_alloc.obj
 0000:fffaf000       __guard_fids__             00400000     MSVCRTD:throw_bad_alloc.obj
 0000:fffaf000       __guard_fids__             00400000     MSVCRTD:throw_bad_alloc.obj
 0000:fffaf000       __guard_fids____scrt_set_unhandled_exception_filter 00400000     MSVCRTD:utility_desktop.obj
 0000:fffaf000       __guard_fids_??__F_Fac_tidy_reg@std@@YAXXZ 00400000     msvcprtd:locale0_implib.obj
 0000:fffaf000       __guard_fids__             00400000     msvcprtd:locale0_implib.obj
 0000:fffad000       .debug$S                   00400000     msvcprtd:MSVCP140D.dll
 0000:fffad000       .debug$S                   00400000     msvcprtd:MSVCP140D.dll
 0000:fffad000       .debug$S                   00400000     msvcprtd:MSVCP140D.dll
 0000:fffad000       .debug$S                   00400000     msvcprtd:MSVCP140D.dll
 0000:fffad000       .debug$S                   00400000     msvcprtd:MSVCP140D.dll
 0000:fffad000       .debug$S                   00400000     msvcprtd:MSVCP140D.dll
 0000:fffad000       .debug$S                   00400000     msvcprtd:MSVCP140D.dll
 0000:fffad000       .debug$S                   00400000     msvcprtd:MSVCP140D.dll
 0000:fffad000       .debug$S                   00400000     msvcprtd:MSVCP140D.dll
 0000:fffad000       .debug$S                   00400000     msvcprtd:MSVCP140D.dll
 0000:fffad000       .debug$S                   00400000     msvcprtd:MSVCP140D.dll
 0000:fffad000       .debug$S                   00400000     msvcprtd:MSVCP140D.dll
 0000:fffad000       .debug$S                   00400000     msvcprtd:MSVCP140D.dll
 0000:fffad000       .debug$S                   00400000     msvcprtd:MSVCP140D.dll
 0000:fffad000       .debug$S                   00400000     msvcprtd:MSVCP140D.dll
 0000:fffad000       .debug$S                   00400000     msvcprtd:MSVCP140D.dll
 0000:fffad000       .debug$S                   00400000     msvcprtd:MSVCP140D.dll
 0000:fffad000       .debug$S                   00400000     msvcprtd:MSVCP140D.dll
 0000:fffad000       .debug$S                   00400000     msvcprtd:MSVCP140D.dll
 0000:fffad000       .debug$S                   00400000     msvcprtd:MSVCP140D.dll
 0000:fffad000       .debug$S                   00400000     msvcprtd:MSVCP140D.dll
 0000:fffad000       .debug$S                   00400000     msvcprtd:MSVCP140D.dll
 0000:fffad000       .debug$S                   00400000     msvcprtd:MSVCP140D.dll
 0000:fffad000       .debug$S                   00400000     msvcprtd:MSVCP140D.dll
 0000:fffad000       .debug$S                   00400000     msvcprtd:MSVCP140D.dll
 0000:fffad000       .debug$S                   00400000     msvcprtd:MSVCP140D.dll
 0000:fffad000       .debug$S                   00400000     msvcprtd:MSVCP140D.dll
 0000:fffad000       .debug$S                   00400000     msvcprtd:MSVCP140D.dll
 0000:fffad000       .debug$S                   00400000     msvcprtd:MSVCP140D.dll
 0000:fffad000       .debug$S                   00400000     msvcprtd:MSVCP140D.dll
 0000:fffad000       .debug$S                   00400000     msvcprtd:MSVCP140D.dll
 0000:fffad000       .debug$S                   00400000     msvcprtd:MSVCP140D.dll
 0000:fffad000       .debug$S                   00400000     msvcprtd:MSVCP140D.dll
 0000:fffad000       .debug$S                   00400000     msvcprtd:MSVCP140D.dll
 0000:fffad000       .debug$S                   00400000     msvcprtd:MSVCP140D.dll
 0000:fffad000       .debug$S                   00400000     msvcprtd:MSVCP140D.dll
 0000:fffad000       .debug$S                   00400000     msvcprtd:MSVCP140D.dll
 0000:fffad000       .debug$S                   00400000     msvcprtd:MSVCP140D.dll
 0000:fffad000       .debug$S                   00400000     msvcprtd:MSVCP140D.dll
 0000:fffad000       .debug$S                   00400000     msvcprtd:MSVCP140D.dll
 0000:fffad000       .debug$S                   00400000     msvcprtd:MSVCP140D.dll
 0000:fffad000       .debug$S                   00400000     msvcprtd:MSVCP140D.dll
 0000:fffad000       .debug$S                   00400000     msvcprtd:MSVCP140D.dll
 0000:fffad000       .debug$S                   00400000     msvcprtd:MSVCP140D.dll
 0000:fffad000       .debug$S                   00400000     msvcprtd:MSVCP140D.dll
 0000:fffad000       .debug$S                   00400000     msvcprtd:MSVCP140D.dll
 0000:fffad000       .debug$S                   00400000     msvcprtd:MSVCP140D.dll
 0000:fffad000       .debug$S                   00400000     msvcprtd:MSVCP140D.dll
 0000:fffad000       .debug$S                   00400000     msvcprtd:MSVCP140D.dll
 0000:fffad000       .debug$S                   00400000     msvcprtd:MSVCP140D.dll
 0000:fffad000       .debug$S                   00400000     msvcprtd:MSVCP140D.dll
 0000:fffad000       .debug$S                   00400000     msvcprtd:MSVCP140D.dll
 0000:fffad000       .debug$S                   00400000     msvcprtd:MSVCP140D.dll
 0000:fffad000       .debug$S                   00400000     msvcprtd:MSVCP140D.dll
 0000:fffad000       .debug$S                   00400000     msvcprtd:MSVCP140D.dll
 0000:fffad000       .debug$S                   00400000     msvcprtd:MSVCP140D.dll
 0000:fffad000       .debug$S                   00400000     msvcprtd:MSVCP140D.dll
 0000:fffad000       .debug$S                   00400000     msvcprtd:MSVCP140D.dll
 0000:fffad000       .debug$S                   00400000     msvcprtd:MSVCP140D.dll
 0000:fffad000       .debug$S                   00400000     msvcprtd:MSVCP140D.dll
 0000:fffad000       .debug$S                   00400000     msvcprtd:MSVCP140D.dll
 0000:fffad000       .debug$S                   00400000     msvcprtd:MSVCP140D.dll
 0000:fffad000       .debug$S                   00400000     msvcprtd:MSVCP140D.dll
 0000:fffad000       .debug$S                   00400000     msvcprtd:MSVCP140D.dll
 0000:fffad000       .debug$S                   00400000     msvcprtd:MSVCP140D.dll
 0000:fffad000       .debug$S                   00400000     msvcprtd:MSVCP140D.dll
 0000:fffad000       .debug$S                   00400000     msvcprtd:MSVCP140D.dll
 0000:fffad000       .debug$S                   00400000     msvcprtd:MSVCP140D.dll
 0000:fffad000       .debug$S                   00400000     msvcprtd:MSVCP140D.dll
 0000:fffad000       .debug$S                   00400000     vcruntimed:VCRUNTIME140D.dll
 0000:fffad000       .debug$S                   00400000     vcruntimed:VCRUNTIME140D.dll
 0000:fffad000       .debug$S                   00400000     vcruntimed:VCRUNTIME140D.dll
 0000:fffad000       .debug$S                   00400000     vcruntimed:VCRUNTIME140D.dll
 0000:fffad000       .debug$S                   00400000     vcruntimed:VCRUNTIME140D.dll
 0000:fffad000       .debug$S                   00400000     vcruntimed:VCRUNTIME140D.dll
 0000:fffad000       .debug$S                   00400000     vcruntimed:VCRUNTIME140D.dll
 0000:fffad000       .debug$S                   00400000     vcruntimed:VCRUNTIME140D.dll
 0000:fffad000       .debug$S                   00400000     vcruntimed:VCRUNTIME140D.dll
 0000:fffad000       .debug$S                   00400000     vcruntimed:VCRUNTIME140D.dll
 0000:fffad000       .debug$S                   00400000     vcruntimed:VCRUNTIME140D.dll
 0000:fffad000       .debug$S                   00400000     vcruntimed:VCRUNTIME140D.dll
 0000:fffad000       .debug$S                   00400000     vcruntimed:VCRUNTIME140D.dll
 0000:fffad000       .debug$S                   00400000     vcruntimed:VCRUNTIME140D.dll
 0000:fffad000       .debug$S                   00400000     ucrtd:ucrtbased.dll
 0000:fffad000       .debug$S                   00400000     ucrtd:ucrtbased.dll
 0000:fffad000       .debug$S                   00400000     ucrtd:ucrtbased.dll
 0000:fffad000       .debug$S                   00400000     ucrtd:ucrtbased.dll
 0000:fffad000       .debug$S                   00400000     ucrtd:ucrtbased.dll
 0000:fffad000       .debug$S                   00400000     ucrtd:ucrtbased.dll
 0000:fffad000       .debug$S                   00400000     ucrtd:ucrtbased.dll
 0000:fffad000       .debug$S                   00400000     ucrtd:ucrtbased.dll
 0000:fffad000       .debug$S                   00400000     ucrtd:ucrtbased.dll
 0000:fffad000       .debug$S                   00400000     ucrtd:ucrtbased.dll
 0000:fffad000       .debug$S                   00400000     ucrtd:ucrtbased.dll
 0000:fffad000       .debug$S                   00400000     ucrtd:ucrtbased.dll
 0000:fffad000       .debug$S                   00400000     ucrtd:ucrtbased.dll
 0000:fffad000       .debug$S                   00400000     ucrtd:ucrtbased.dll
 0000:fffad000       .debug$S                   00400000     ucrtd:ucrtbased.dll
 0000:fffad000       .debug$S                   00400000     ucrtd:ucrtbased.dll
 0000:fffad000       .debug$S                   00400000     ucrtd:ucrtbased.dll
 0000:fffad000       .debug$S                   00400000     ucrtd:ucrtbased.dll
 0000:fffad000       .debug$S                   00400000     ucrtd:ucrtbased.dll
 0000:fffad000       .debug$S                   00400000     ucrtd:ucrtbased.dll
 0000:fffad000       .debug$S                   00400000     ucrtd:ucrtbased.dll
 0000:fffad000       .debug$S                   00400000     ucrtd:ucrtbased.dll
 0000:fffad000       .debug$S                   00400000     ucrtd:ucrtbased.dll
 0000:fffad000       .debug$S                   00400000     ucrtd:ucrtbased.dll
 0000:fffad000       .debug$S                   00400000     ucrtd:ucrtbased.dll
 0000:fffad000       .debug$S                   00400000     ucrtd:ucrtbased.dll
 0000:fffad000       .debug$S                   00400000     ucrtd:ucrtbased.dll
 0000:fffad000       .debug$S                   00400000     ucrtd:ucrtbased.dll
 0000:fffad000       .debug$S                   00400000     ucrtd:ucrtbased.dll
 0000:fffad000       .debug$S                   00400000     ucrtd:ucrtbased.dll
 0000:fffad000       .debug$S                   00400000     ucrtd:ucrtbased.dll
 0000:fffad000       .debug$S                   00400000     ucrtd:ucrtbased.dll
 0000:fffad000       .debug$S                   00400000     ucrtd:ucrtbased.dll
 0000:fffad000       .debug$S                   00400000     ucrtd:ucrtbased.dll
 0000:fffad000       .debug$S                   00400000     ucrtd:ucrtbased.dll
 0000:fffad000       .debug$S                   00400000     ucrtd:ucrtbased.dll
 0000:fffad000       .debug$S                   00400000     ucrtd:ucrtbased.dll
 0000:fffad000       .debug$S                   00400000     ucrtd:ucrtbased.dll
 0000:fffad000       .debug$S                   00400000     ucrtd:ucrtbased.dll
 0000:fffad000       .debug$S                   00400000     ucrtd:ucrtbased.dll
 0000:fffad000       .debug$S                   00400000     ucrtd:ucrtbased.dll
 0000:fffad000       .debug$S                   00400000     ucrtd:ucrtbased.dll
 0000:fffad000       .debug$S                   00400000     ucrtd:ucrtbased.dll
 0000:fffad000       .debug$S                   00400000     ucrtd:ucrtbased.dll
 0000:fffad000       .debug$S                   00400000     ucrtd:ucrtbased.dll
 0000:fffad000       .debug$S                   00400000     ucrtd:ucrtbased.dll
 0000:fffad000       .debug$S                   00400000     ucrtd:ucrtbased.dll
 0000:fffad000       .debug$S                   00400000     ucrtd:ucrtbased.dll
 0000:fffad000       .debug$S                   00400000     ucrtd:ucrtbased.dll
 0000:fffad000       .debug$S                   00400000     ucrtd:ucrtbased.dll
 0000:fffad000       .debug$S                   00400000     ucrtd:ucrtbased.dll
 0000:fffad000       .debug$S                   00400000     ucrtd:ucrtbased.dll
 0000:fffad000       .debug$S                   00400000     ucrtd:ucrtbased.dll
 0000:fffad000       .debug$S                   00400000     ucrtd:ucrtbased.dll
 0000:fffad000       .debug$S                   00400000     ucrtd:ucrtbased.dll
 0000:fffad000       .debug$S                   00400000     ucrtd:ucrtbased.dll
 0000:fffad000       .debug$S                   00400000     ucrtd:ucrtbased.dll
 0000:fffad000       .debug$S                   00400000     ucrtd:ucrtbased.dll
 0000:fffad000       .debug$S                   00400000     ucrtd:ucrtbased.dll
 0000:fffad000       .debug$S                   00400000     ucrtd:ucrtbased.dll
 0000:fffad000       .debug$S                   00400000     ucrtd:ucrtbased.dll
 0000:fffad000       .debug$S                   00400000     ucrtd:ucrtbased.dll
 0000:fffad000       .debug$S                   00400000     ucrtd:ucrtbased.dll
 0000:fffad000       .debug$S                   00400000     kernel32:KERNEL32.dll
 0000:fffad000       .debug$S                   00400000     kernel32:KERNEL32.dll
 0000:fffad000       .debug$S                   00400000     kernel32:KERNEL32.dll
 0000:fffad000       .debug$S                   00400000     kernel32:KERNEL32.dll
 0000:fffad000       .debug$S                   00400000     kernel32:KERNEL32.dll
 0000:fffad000       .debug$S                   00400000     kernel32:KERNEL32.dll
 0000:fffad000       .debug$S                   00400000     kernel32:KERNEL32.dll
 0000:fffad000       .debug$S                   00400000     kernel32:KERNEL32.dll
 0000:fffad000       .debug$S                   00400000     kernel32:KERNEL32.dll
 0000:fffad000       .debug$S                   00400000     kernel32:KERNEL32.dll
 0000:fffad000       .debug$S                   00400000     kernel32:KERNEL32.dll
 0000:fffad000       .debug$S                   00400000     kernel32:KERNEL32.dll
 0000:fffad000       .debug$S                   00400000     kernel32:KERNEL32.dll
 0000:fffad000       .debug$S                   00400000     kernel32:KERNEL32.dll
 0000:fffad000       .debug$S                   00400000     kernel32:KERNEL32.dll
 0000:fffad000       .debug$S                   00400000     kernel32:KERNEL32.dll
 0000:fffad000       .debug$S                   00400000     kernel32:KERNEL32.dll
 0000:fffaf004       __guard_fids__             00400004     MSVCRTD:exe_main.obj
 0002:fffc9008       __ehfuncinfo$??$?0U?$pair@V?$basic_string@DU?$char_traits@D@std@@V?$allocator@D@2@@std@@V?$shared_ptr@VRawImageData@@@2@@std@@@?$_Tree_temp_node@V?$allocator@U?$_Tree_node@U?$pair@$$CBV?$basic_string@DU?$char_traits@D@std@@V?$allocator@D@2@@std@@V?$shared_ptr@VRawImageData@@@2@@std@@PAX@std@@@std@@@std@@QAE@AAV?$allocator@U?$_Tree_node@U?$pair@$$CBV?$basic_string@DU?$char_traits@D@std@@V?$allocator@D@2@@std@@V?$shared_ptr@VRawImageData@@@2@@std@@PAX@std@@@1@PAU?$_Tree_node@U?$pair@$$CBV?$basic_string@DU?$char_traits@D@std@@V?$allocator@D@2@@std@@V?$shared_ptr@VRawImageData@@@2@@std@@PAX@1@$$QAU?$pair@V?$basic_string@DU?$char_traits@D@std@@V?$allocator@D@2@@std@@V?$shared_ptr@VRawImageData@@@2@@1@@Z 00400008     AdvancedTileManager.obj
 0002:fffc9008       __ehfuncinfo$??$?0U?$pair@V?$basic_string@DU?$char_traits@D@std@@V?$allocator@D@2@@std@@V?$weak_ptr@VRawImageData@@@2@@std@@@?$_Tree_temp_node@V?$allocator@U?$_Tree_node@U?$pair@$$CBV?$basic_string@DU?$char_traits@D@std@@V?$allocator@D@2@@std@@V?$weak_ptr@VRawImageData@@@2@@std@@PAX@std@@@std@@@std@@QAE@AAV?$allocator@U?$_Tree_node@U?$pair@$$CBV?$basic_string@DU?$char_traits@D@std@@V?$allocator@D@2@@std@@V?$weak_ptr@VRawImageData@@@2@@std@@PAX@std@@@1@PAU?$_Tree_node@U?$pair@$$CBV?$basic_string@DU?$char_traits@D@std@@V?$allocator@D@2@@std@@V?$weak_ptr@VRawImageData@@@2@@std@@PAX@1@$$QAU?$pair@V?$basic_string@DU?$char_traits@D@std@@V?$allocator@D@2@@std@@V?$weak_ptr@VRawImageData@@@2@@1@@Z 00400008     AdvancedTileManager.obj
 0002:fffc9008       __ehfuncinfo$??0?$_Tree_temp_node_alloc@V?$allocator@U?$_Tree_node@U?$pair@$$CBV?$basic_string@DU?$char_traits@D@std@@V?$allocator@D@2@@std@@V?$shared_ptr@VRawImageData@@@2@@std@@PAX@std@@@std@@@std@@QAE@AAV?$allocator@U?$_Tree_node@U?$pair@$$CBV?$basic_string@DU?$char_traits@D@std@@V?$allocator@D@2@@std@@V?$shared_ptr@VRawImageData@@@2@@std@@PAX@std@@@1@@Z 00400008     AdvancedTileManager.obj
 0002:fffc9008       __ehfuncinfo$??0?$_Tree_temp_node_alloc@V?$allocator@U?$_Tree_node@U?$pair@$$CBV?$basic_string@DU?$char_traits@D@std@@V?$allocator@D@2@@std@@V?$weak_ptr@VRawImageData@@@2@@std@@PAX@std@@@std@@@std@@QAE@AAV?$allocator@U?$_Tree_node@U?$pair@$$CBV?$basic_string@DU?$char_traits@D@std@@V?$allocator@D@2@@std@@V?$weak_ptr@VRawImageData@@@2@@std@@PAX@std@@@1@@Z 00400008     AdvancedTileManager.obj
 0002:fffc9008       __ehfuncinfo$??0RawImageData@@QAE@V?$basic_string@DU?$char_traits@D@std@@V?$allocator@D@2@@std@@@Z 00400008     AdvancedTileManager.obj
 0002:fffc9008       __ehfuncinfo$??0sentry@?$basic_ostream@DU?$char_traits@D@std@@@std@@QAE@AAV12@@Z 00400008     AdvancedTileManager.obj
 0002:fffc9008       __ehfuncinfo$?_Alloc_sentinel_and_proxy@?$_Tree@V?$_Tmap_traits@V?$basic_string@DU?$char_traits@D@std@@V?$allocator@D@2@@std@@V?$shared_ptr@VRawImageData@@@2@U?$less@V?$basic_string@DU?$char_traits@D@std@@V?$allocator@D@2@@std@@@2@V?$allocator@U?$pair@$$CBV?$basic_string@DU?$char_traits@D@std@@V?$allocator@D@2@@std@@V?$shared_ptr@VRawImageData@@@2@@std@@@2@$0A@@std@@@std@@IAEXXZ 00400008     AdvancedTileManager.obj
 0002:fffc9008       __ehfuncinfo$?_Alloc_sentinel_and_proxy@?$_Tree@V?$_Tmap_traits@V?$basic_string@DU?$char_traits@D@std@@V?$allocator@D@2@@std@@V?$weak_ptr@VRawImageData@@@2@U?$less@V?$basic_string@DU?$char_traits@D@std@@V?$allocator@D@2@@std@@@2@V?$allocator@U?$pair@$$CBV?$basic_string@DU?$char_traits@D@std@@V?$allocator@D@2@@std@@V?$weak_ptr@VRawImageData@@@2@@std@@@2@$0A@@std@@@std@@IAEXXZ 00400008     AdvancedTileManager.obj
 0002:fffc9008       __ehfuncinfo$?get@ImageManager@@SAPAV1@XZ 00400008     AdvancedTileManager.obj
 0002:fffc9008       __ehfuncinfo$?getImagebyURL@ImageManager@@QAE?AVSimpleImage@@V?$basic_string@DU?$char_traits@D@std@@V?$allocator@D@2@@std@@_N1@Z 00400008     AdvancedTileManager.obj
 0002:fffc9008       __ehfuncinfo$?loadImage@RawImageData@@QAE_NV?$basic_string@DU?$char_traits@D@std@@V?$allocator@D@2@@std@@HHHHH_N@Z 00400008     AdvancedTileManager.obj
 0001:fffff008       __unwindfunclet$??$?0VRawImageData@@$0A@@?$shared_ptr@VRawImageData@@@std@@QAE@PAVRawImageData@@@Z$1 00400008 f   AdvancedTileManager.obj
 0001:fffff008       __unwindfunclet$??0?$basic_string@DU?$char_traits@D@std@@V?$allocator@D@2@@std@@QAE@ABV01@@Z$1 00400008 f   AdvancedTileManager.obj
 0001:fffff008       __unwindfunclet$??0?$basic_string@DU?$char_traits@D@std@@V?$allocator@D@2@@std@@QAE@QBD@Z$1 00400008 f   AdvancedTileManager.obj
 0001:fffff008       __unwindfunclet$??0ImageManager@@QAE@XZ$1 00400008 f   AdvancedTileManager.obj
 0001:fffff008       __unwindfunclet$?getImagePtrbyURL@ImageManager@@QAE?AV?$shared_ptr@VRawImageData@@@std@@V?$basic_string@DU?$char_traits@D@std@@V?$allocator@D@2@@3@_N1@Z$1 00400008 f   AdvancedTileManager.obj
 0001:fffff008       __unwindfunclet$?loadAsNew@ImageManager@@QAE?AV?$shared_ptr@VRawImageData@@@std@@V?$basic_string@DU?$char_traits@D@std@@V?$allocator@D@2@@3@@Z$1 00400008 f   AdvancedTileManager.obj
 0001:fffff008       __unwindfunclet$?loadImage@ImageManager@@SA?AVSimpleImage@@V?$basic_string@DU?$char_traits@D@std@@V?$allocator@D@2@@std@@_N@Z$1 00400008 f   AdvancedTileManager.obj
 0002:fffc9008       __ehfuncinfo$??$?0U?$pair@V?$basic_string@DU?$char_traits@D@std@@V?$allocator@D@2@@std@@V?$shared_ptr@VRawImageData@@@2@@std@@@?$_Tree_temp_node@V?$allocator@U?$_Tree_node@U?$pair@$$CBV?$basic_string@DU?$char_traits@D@std@@V?$allocator@D@2@@std@@V?$shared_ptr@VRawImageData@@@2@@std@@PAX@std@@@std@@@std@@QAE@AAV?$allocator@U?$_Tree_node@U?$pair@$$CBV?$basic_string@DU?$char_traits@D@std@@V?$allocator@D@2@@std@@V?$shared_ptr@VRawImageData@@@2@@std@@PAX@std@@@1@PAU?$_Tree_node@U?$pair@$$CBV?$basic_string@DU?$char_traits@D@std@@V?$allocator@D@2@@std@@V?$shared_ptr@VRawImageData@@@2@@std@@PAX@1@$$QAU?$pair@V?$basic_string@DU?$char_traits@D@std@@V?$allocator@D@2@@std@@V?$shared_ptr@VRawImageData@@@2@@1@@Z 00400008     Bullet.obj
 0002:fffc9008       __ehfuncinfo$??$?0U?$pair@V?$basic_string@DU?$char_traits@D@std@@V?$allocator@D@2@@std@@V?$weak_ptr@VRawImageData@@@2@@std@@@?$_Tree_temp_node@V?$allocator@U?$_Tree_node@U?$pair@$$CBV?$basic_string@DU?$char_traits@D@std@@V?$allocator@D@2@@std@@V?$weak_ptr@VRawImageData@@@2@@std@@PAX@std@@@std@@@std@@QAE@AAV?$allocator@U?$_Tree_node@U?$pair@$$CBV?$basic_string@DU?$char_traits@D@std@@V?$allocator@D@2@@std@@V?$weak_ptr@VRawImageData@@@2@@std@@PAX@std@@@1@PAU?$_Tree_node@U?$pair@$$CBV?$basic_string@DU?$char_traits@D@std@@V?$allocator@D@2@@std@@V?$weak_ptr@VRawImageData@@@2@@std@@PAX@1@$$QAU?$pair@V?$basic_string@DU?$char_traits@D@std@@V?$allocator@D@2@@std@@V?$weak_ptr@VRawImageData@@@2@@1@@Z 00400008     Bullet.obj
 0002:fffc9008       __ehfuncinfo$??0?$_Tree_temp_node_alloc@V?$allocator@U?$_Tree_node@U?$pair@$$CBV?$basic_string@DU?$char_traits@D@std@@V?$allocator@D@2@@std@@V?$shared_ptr@VRawImageData@@@2@@std@@PAX@std@@@std@@@std@@QAE@AAV?$allocator@U?$_Tree_node@U?$pair@$$CBV?$basic_string@DU?$char_traits@D@std@@V?$allocator@D@2@@std@@V?$shared_ptr@VRawImageData@@@2@@std@@PAX@std@@@1@@Z 00400008     Bullet.obj
 0002:fffc9008       __ehfuncinfo$??0?$_Tree_temp_node_alloc@V?$allocator@U?$_Tree_node@U?$pair@$$CBV?$basic_string@DU?$char_traits@D@std@@V?$allocator@D@2@@std@@V?$weak_ptr@VRawImageData@@@2@@std@@PAX@std@@@std@@@std@@QAE@AAV?$allocator@U?$_Tree_node@U?$pair@$$CBV?$basic_string@DU?$char_traits@D@std@@V?$allocator@D@2@@std@@V?$weak_ptr@VRawImageData@@@2@@std@@PAX@std@@@1@@Z 00400008     Bullet.obj
 0002:fffc9008       __ehfuncinfo$??0RawImageData@@QAE@V?$basic_string@DU?$char_traits@D@std@@V?$allocator@D@2@@std@@@Z 00400008     Bullet.obj
 0002:fffc9008       __ehfuncinfo$??0sentry@?$basic_ostream@DU?$char_traits@D@std@@@std@@QAE@AAV12@@Z 00400008     Bullet.obj
 0002:fffc9008       __ehfuncinfo$?_Alloc_sentinel_and_proxy@?$_Tree@V?$_Tmap_traits@V?$basic_string@DU?$char_traits@D@std@@V?$allocator@D@2@@std@@V?$shared_ptr@VRawImageData@@@2@U?$less@V?$basic_string@DU?$char_traits@D@std@@V?$allocator@D@2@@std@@@2@V?$allocator@U?$pair@$$CBV?$basic_string@DU?$char_traits@D@std@@V?$allocator@D@2@@std@@V?$shared_ptr@VRawImageData@@@2@@std@@@2@$0A@@std@@@std@@IAEXXZ 00400008     Bullet.obj
 0002:fffc9008       __ehfuncinfo$?_Alloc_sentinel_and_proxy@?$_Tree@V?$_Tmap_traits@V?$basic_string@DU?$char_traits@D@std@@V?$allocator@D@2@@std@@V?$weak_ptr@VRawImageData@@@2@U?$less@V?$basic_string@DU?$char_traits@D@std@@V?$allocator@D@2@@std@@@2@V?$allocator@U?$pair@$$CBV?$basic_string@DU?$char_traits@D@std@@V?$allocator@D@2@@std@@V?$weak_ptr@VRawImageData@@@2@@std@@@2@$0A@@std@@@std@@IAEXXZ 00400008     Bullet.obj
 0002:fffc9008       __ehfuncinfo$?get@ImageManager@@SAPAV1@XZ 00400008     Bullet.obj
 0002:fffc9008       __ehfuncinfo$?getImagebyURL@ImageManager@@QAE?AVSimpleImage@@V?$basic_string@DU?$char_traits@D@std@@V?$allocator@D@2@@std@@_N1@Z 00400008     Bullet.obj
 0002:fffc9008       __ehfuncinfo$?loadImage@RawImageData@@QAE_NV?$basic_string@DU?$char_traits@D@std@@V?$allocator@D@2@@std@@HHHHH_N@Z 00400008     Bullet.obj
 0001:fffff008       __unwindfunclet$??$?0VRawImageData@@$0A@@?$shared_ptr@VRawImageData@@@std@@QAE@PAVRawImageData@@@Z$1 00400008 f   Bullet.obj
 0001:fffff008       __unwindfunclet$??0?$basic_string@DU?$char_traits@D@std@@V?$allocator@D@2@@std@@QAE@ABV01@@Z$1 00400008 f   Bullet.obj
 0001:fffff008       __unwindfunclet$??0?$basic_string@DU?$char_traits@D@std@@V?$allocator@D@2@@std@@QAE@QBD@Z$1 00400008 f   Bullet.obj
 0001:fffff008       __unwindfunclet$??0ImageManager@@QAE@XZ$1 00400008 f   Bullet.obj
 0001:fffff008       __unwindfunclet$?getImagePtrbyURL@ImageManager@@QAE?AV?$shared_ptr@VRawImageData@@@std@@V?$basic_string@DU?$char_traits@D@std@@V?$allocator@D@2@@3@_N1@Z$1 00400008 f   Bullet.obj
 0001:fffff008       __unwindfunclet$?loadAsNew@ImageManager@@QAE?AV?$shared_ptr@VRawImageData@@@std@@V?$basic_string@DU?$char_traits@D@std@@V?$allocator@D@2@@3@@Z$1 00400008 f   Bullet.obj
 0001:fffff008       __unwindfunclet$?loadImage@ImageManager@@SA?AVSimpleImage@@V?$basic_string@DU?$char_traits@D@std@@V?$allocator@D@2@@std@@_N@Z$1 00400008 f   Bullet.obj
 0002:fffc9008       __ehfuncinfo$??0sentry@?$basic_ostream@DU?$char_traits@D@std@@@std@@QAE@AAV12@@Z 00400008     DisplayableObject.obj
 0002:fffc9008       __ehfuncinfo$??0sentry@?$basic_ostream@DU?$char_traits@D@std@@@std@@QAE@AAV12@@Z 00400008     DrawingSurface.obj
 0002:fffc9008       __ehfuncinfo$??$?0U?$pair@V?$basic_string@DU?$char_traits@D@std@@V?$allocator@D@2@@std@@V?$shared_ptr@VRawImageData@@@2@@std@@@?$_Tree_temp_node@V?$allocator@U?$_Tree_node@U?$pair@$$CBV?$basic_string@DU?$char_traits@D@std@@V?$allocator@D@2@@std@@V?$shared_ptr@VRawImageData@@@2@@std@@PAX@std@@@std@@@std@@QAE@AAV?$allocator@U?$_Tree_node@U?$pair@$$CBV?$basic_string@DU?$char_traits@D@std@@V?$allocator@D@2@@std@@V?$shared_ptr@VRawImageData@@@2@@std@@PAX@std@@@1@PAU?$_Tree_node@U?$pair@$$CBV?$basic_string@DU?$char_traits@D@std@@V?$allocator@D@2@@std@@V?$shared_ptr@VRawImageData@@@2@@std@@PAX@1@$$QAU?$pair@V?$basic_string@DU?$char_traits@D@std@@V?$allocator@D@2@@std@@V?$shared_ptr@VRawImageData@@@2@@1@@Z 00400008     GameEngine.obj
 0002:fffc9008       __ehfuncinfo$??$?0U?$pair@V?$basic_string@DU?$char_traits@D@std@@V?$allocator@D@2@@std@@V?$weak_ptr@VRawImageData@@@2@@std@@@?$_Tree_temp_node@V?$allocator@U?$_Tree_node@U?$pair@$$CBV?$basic_string@DU?$char_traits@D@std@@V?$allocator@D@2@@std@@V?$weak_ptr@VRawImageData@@@2@@std@@PAX@std@@@std@@@std@@QAE@AAV?$allocator@U?$_Tree_node@U?$pair@$$CBV?$basic_string@DU?$char_traits@D@std@@V?$allocator@D@2@@std@@V?$weak_ptr@VRawImageData@@@2@@std@@PAX@std@@@1@PAU?$_Tree_node@U?$pair@$$CBV?$basic_string@DU?$char_traits@D@std@@V?$allocator@D@2@@std@@V?$weak_ptr@VRawImageData@@@2@@std@@PAX@1@$$QAU?$pair@V?$basic_string@DU?$char_traits@D@std@@V?$allocator@D@2@@std@@V?$weak_ptr@VRawImageData@@@2@@1@@Z 00400008     GameEngine.obj
 0002:fffc9008       __ehfuncinfo$??0?$_Tree_temp_node_alloc@V?$allocator@U?$_Tree_node@U?$pair@$$CBV?$basic_string@DU?$char_traits@D@std@@V?$allocator@D@2@@std@@V?$shared_ptr@VRawImageData@@@2@@std@@PAX@std@@@std@@@std@@QAE@AAV?$allocator@U?$_Tree_node@U?$pair@$$CBV?$basic_string@DU?$char_traits@D@std@@V?$allocator@D@2@@std@@V?$shared_ptr@VRawImageData@@@2@@std@@PAX@std@@@1@@Z 00400008     GameEngine.obj
 0002:fffc9008       __ehfuncinfo$??0?$_Tree_temp_node_alloc@V?$allocator@U?$_Tree_node@U?$pair@$$CBV?$basic_string@DU?$char_traits@D@std@@V?$allocator@D@2@@std@@V?$weak_ptr@VRawImageData@@@2@@std@@PAX@std@@@std@@@std@@QAE@AAV?$allocator@U?$_Tree_node@U?$pair@$$CBV?$basic_string@DU?$char_traits@D@std@@V?$allocator@D@2@@std@@V?$weak_ptr@VRawImageData@@@2@@std@@PAX@std@@@1@@Z 00400008     GameEngine.obj
 0002:fffc9008       __ehfuncinfo$??0RawImageData@@QAE@V?$basic_string@DU?$char_traits@D@std@@V?$allocator@D@2@@std@@@Z 00400008     GameEngine.obj
 0002:fffc9008       __ehfuncinfo$??0sentry@?$basic_ostream@DU?$char_traits@D@std@@@std@@QAE@AAV12@@Z 00400008     GameEngine.obj
 0002:fffc9008       __ehfuncinfo$??E?$_Vector_const_iterator@V?$_Vector_val@U?$_Simple_types@PAVDisplayableObject@@@std@@@std@@@std@@QAE?AV01@H@Z 00400008     GameEngine.obj
 0002:fffc9008       __ehfuncinfo$?_Alloc_sentinel_and_proxy@?$_Tree@V?$_Tmap_traits@V?$basic_string@DU?$char_traits@D@std@@V?$allocator@D@2@@std@@V?$shared_ptr@VRawImageData@@@2@U?$less@V?$basic_string@DU?$char_traits@D@std@@V?$allocator@D@2@@std@@@2@V?$allocator@U?$pair@$$CBV?$basic_string@DU?$char_traits@D@std@@V?$allocator@D@2@@std@@V?$shared_ptr@VRawImageData@@@2@@std@@@2@$0A@@std@@@std@@IAEXXZ 00400008     GameEngine.obj
 0002:fffc9008       __ehfuncinfo$?_Alloc_sentinel_and_proxy@?$_Tree@V?$_Tmap_traits@V?$basic_string@DU?$char_traits@D@std@@V?$allocator@D@2@@std@@V?$weak_ptr@VRawImageData@@@2@U?$less@V?$basic_string@DU?$char_traits@D@std@@V?$allocator@D@2@@std@@@2@V?$allocator@U?$pair@$$CBV?$basic_string@DU?$char_traits@D@std@@V?$allocator@D@2@@std@@V?$weak_ptr@VRawImageData@@@2@@std@@@2@$0A@@std@@@std@@IAEXXZ 00400008     GameEngine.obj
 0002:fffc9008       __ehfuncinfo$?get@ImageManager@@SAPAV1@XZ 00400008     GameEngine.obj
 0002:fffc9008       __ehfuncinfo$?getImagebyURL@ImageManager@@QAE?AVSimpleImage@@V?$basic_string@DU?$char_traits@D@std@@V?$allocator@D@2@@std@@_N1@Z 00400008     GameEngine.obj
 0002:fffc9008       __ehfuncinfo$?loadImage@RawImageData@@QAE_NV?$basic_string@DU?$char_traits@D@std@@V?$allocator@D@2@@std@@HHHHH_N@Z 00400008     GameEngine.obj
 0001:fffff008       __unwindfunclet$??$?0VRawImageData@@$0A@@?$shared_ptr@VRawImageData@@@std@@QAE@PAVRawImageData@@@Z$1 00400008 f   GameEngine.obj
 0001:fffff008       __unwindfunclet$??0?$basic_string@DU?$char_traits@D@std@@V?$allocator@D@2@@std@@QAE@ABV01@@Z$1 00400008 f   GameEngine.obj
 0001:fffff008       __unwindfunclet$??0?$basic_string@DU?$char_traits@D@std@@V?$allocator@D@2@@std@@QAE@QBD@Z$1 00400008 f   GameEngine.obj
 0001:fffff008       __unwindfunclet$??0ImageManager@@QAE@XZ$1 00400008 f   GameEngine.obj
 0001:fffff008       __unwindfunclet$?getImagePtrbyURL@ImageManager@@QAE?AV?$shared_ptr@VRawImageData@@@std@@V?$basic_string@DU?$char_traits@D@std@@V?$allocator@D@2@@3@_N1@Z$1 00400008 f   GameEngine.obj
 0001:fffff008       __unwindfunclet$?loadAsNew@ImageManager@@QAE?AV?$shared_ptr@VRawImageData@@@std@@V?$basic_string@DU?$char_traits@D@std@@V?$allocator@D@2@@3@@Z$1 00400008 f   GameEngine.obj
 0001:fffff008       __unwindfunclet$?loadImage@ImageManager@@SA?AVSimpleImage@@V?$basic_string@DU?$char_traits@D@std@@V?$allocator@D@2@@std@@_N@Z$1 00400008 f   GameEngine.obj
 0001:fffff008       __unwindfunclet$?setAllObjectsVisible@DisplayableObjectContainer@@QBEX_N@Z$2 00400008 f   GameEngine.obj
 0002:fffc9008       __ehfuncinfo$??$?0U?$pair@V?$basic_string@DU?$char_traits@D@std@@V?$allocator@D@2@@std@@V?$shared_ptr@VRawImageData@@@2@@std@@@?$_Tree_temp_node@V?$allocator@U?$_Tree_node@U?$pair@$$CBV?$basic_string@DU?$char_traits@D@std@@V?$allocator@D@2@@std@@V?$shared_ptr@VRawImageData@@@2@@std@@PAX@std@@@std@@@std@@QAE@AAV?$allocator@U?$_Tree_node@U?$pair@$$CBV?$basic_string@DU?$char_traits@D@std@@V?$allocator@D@2@@std@@V?$shared_ptr@VRawImageData@@@2@@std@@PAX@std@@@1@PAU?$_Tree_node@U?$pair@$$CBV?$basic_string@DU?$char_traits@D@std@@V?$allocator@D@2@@std@@V?$shared_ptr@VRawImageData@@@2@@std@@PAX@1@$$QAU?$pair@V?$basic_string@DU?$char_traits@D@std@@V?$allocator@D@2@@std@@V?$shared_ptr@VRawImageData@@@2@@1@@Z 00400008     GameMainObject.obj
 0002:fffc9008       __ehfuncinfo$??$?0U?$pair@V?$basic_string@DU?$char_traits@D@std@@V?$allocator@D@2@@std@@V?$weak_ptr@VRawImageData@@@2@@std@@@?$_Tree_temp_node@V?$allocator@U?$_Tree_node@U?$pair@$$CBV?$basic_string@DU?$char_traits@D@std@@V?$allocator@D@2@@std@@V?$weak_ptr@VRawImageData@@@2@@std@@PAX@std@@@std@@@std@@QAE@AAV?$allocator@U?$_Tree_node@U?$pair@$$CBV?$basic_string@DU?$char_traits@D@std@@V?$allocator@D@2@@std@@V?$weak_ptr@VRawImageData@@@2@@std@@PAX@std@@@1@PAU?$_Tree_node@U?$pair@$$CBV?$basic_string@DU?$char_traits@D@std@@V?$allocator@D@2@@std@@V?$weak_ptr@VRawImageData@@@2@@std@@PAX@1@$$QAU?$pair@V?$basic_string@DU?$char_traits@D@std@@V?$allocator@D@2@@std@@V?$weak_ptr@VRawImageData@@@2@@1@@Z 00400008     GameMainObject.obj
 0002:fffc9008       __ehfuncinfo$??0?$_Tree_temp_node_alloc@V?$allocator@U?$_Tree_node@U?$pair@$$CBV?$basic_string@DU?$char_traits@D@std@@V?$allocator@D@2@@std@@V?$shared_ptr@VRawImageData@@@2@@std@@PAX@std@@@std@@@std@@QAE@AAV?$allocator@U?$_Tree_node@U?$pair@$$CBV?$basic_string@DU?$char_traits@D@std@@V?$allocator@D@2@@std@@V?$shared_ptr@VRawImageData@@@2@@std@@PAX@std@@@1@@Z 00400008     GameMainObject.obj
 0002:fffc9008       __ehfuncinfo$??0?$_Tree_temp_node_alloc@V?$allocator@U?$_Tree_node@U?$pair@$$CBV?$basic_string@DU?$char_traits@D@std@@V?$allocator@D@2@@std@@V?$weak_ptr@VRawImageData@@@2@@std@@PAX@std@@@std@@@std@@QAE@AAV?$allocator@U?$_Tree_node@U?$pair@$$CBV?$basic_string@DU?$char_traits@D@std@@V?$allocator@D@2@@std@@V?$weak_ptr@VRawImageData@@@2@@std@@PAX@std@@@1@@Z 00400008     GameMainObject.obj
 0002:fffc9008       __ehfuncinfo$??0RawImageData@@QAE@V?$basic_string@DU?$char_traits@D@std@@V?$allocator@D@2@@std@@@Z 00400008     GameMainObject.obj
 0002:fffc9008       __ehfuncinfo$??0sentry@?$basic_ostream@DU?$char_traits@D@std@@@std@@QAE@AAV12@@Z 00400008     GameMainObject.obj
 0002:fffc9008       __ehfuncinfo$?_Alloc_sentinel_and_proxy@?$_Tree@V?$_Tmap_traits@V?$basic_string@DU?$char_traits@D@std@@V?$allocator@D@2@@std@@V?$shared_ptr@VRawImageData@@@2@U?$less@V?$basic_string@DU?$char_traits@D@std@@V?$allocator@D@2@@std@@@2@V?$allocator@U?$pair@$$CBV?$basic_string@DU?$char_traits@D@std@@V?$allocator@D@2@@std@@V?$shared_ptr@VRawImageData@@@2@@std@@@2@$0A@@std@@@std@@IAEXXZ 00400008     GameMainObject.obj
 0002:fffc9008       __ehfuncinfo$?_Alloc_sentinel_and_proxy@?$_Tree@V?$_Tmap_traits@V?$basic_string@DU?$char_traits@D@std@@V?$allocator@D@2@@std@@V?$weak_ptr@VRawImageData@@@2@U?$less@V?$basic_string@DU?$char_traits@D@std@@V?$allocator@D@2@@std@@@2@V?$allocator@U?$pair@$$CBV?$basic_string@DU?$char_traits@D@std@@V?$allocator@D@2@@std@@V?$weak_ptr@VRawImageData@@@2@@std@@@2@$0A@@std@@@std@@IAEXXZ 00400008     GameMainObject.obj
 0002:fffc9008       __ehfuncinfo$?get@ImageManager@@SAPAV1@XZ 00400008     GameMainObject.obj
 0002:fffc9008       __ehfuncinfo$?getImagebyURL@ImageManager@@QAE?AVSimpleImage@@V?$basic_string@DU?$char_traits@D@std@@V?$allocator@D@2@@std@@_N1@Z 00400008     GameMainObject.obj
 0002:fffc9008       __ehfuncinfo$?loadImage@RawImageData@@QAE_NV?$basic_string@DU?$char_traits@D@std@@V?$allocator@D@2@@std@@HHHHH_N@Z 00400008     GameMainObject.obj
 0001:fffff008       __unwindfunclet$??$?0VRawImageData@@$0A@@?$shared_ptr@VRawImageData@@@std@@QAE@PAVRawImageData@@@Z$1 00400008 f   GameMainObject.obj
 0001:fffff008       __unwindfunclet$??0?$basic_string@DU?$char_traits@D@std@@V?$allocator@D@2@@std@@QAE@ABV01@@Z$1 00400008 f   GameMainObject.obj
 0001:fffff008       __unwindfunclet$??0?$basic_string@DU?$char_traits@D@std@@V?$allocator@D@2@@std@@QAE@QBD@Z$1 00400008 f   GameMainObject.obj
 0001:fffff008       __unwindfunclet$??0ImageManager@@QAE@XZ$1 00400008 f   GameMainObject.obj
 0001:fffff008       __unwindfunclet$?getImagePtrbyURL@ImageManager@@QAE?AV?$shared_ptr@VRawImageData@@@std@@V?$basic_string@DU?$char_traits@D@std@@V?$allocator@D@2@@3@_N1@Z$1 00400008 f   GameMainObject.obj
 0001:fffff008       __unwindfunclet$?loadAsNew@ImageManager@@QAE?AV?$shared_ptr@VRawImageData@@@std@@V?$basic_string@DU?$char_traits@D@std@@V?$allocator@D@2@@3@@Z$1 00400008 f   GameMainObject.obj
 0001:fffff008       __unwindfunclet$?loadImage@ImageManager@@SA?AVSimpleImage@@V?$basic_string@DU?$char_traits@D@std@@V?$allocator@D@2@@std@@_N@Z$1 00400008 f   GameMainObject.obj
 0002:fffc9008       __ehfuncinfo$??$?0U?$pair@V?$basic_string@DU?$char_traits@D@std@@V?$allocator@D@2@@std@@V?$shared_ptr@VRawImageData@@@2@@std@@@?$_Tree_temp_node@V?$allocator@U?$_Tree_node@U?$pair@$$CBV?$basic_string@DU?$char_traits@D@std@@V?$allocator@D@2@@std@@V?$shared_ptr@VRawImageData@@@2@@std@@PAX@std@@@std@@@std@@QAE@AAV?$allocator@U?$_Tree_node@U?$pair@$$CBV?$basic_string@DU?$char_traits@D@std@@V?$allocator@D@2@@std@@V?$shared_ptr@VRawImageData@@@2@@std@@PAX@std@@@1@PAU?$_Tree_node@U?$pair@$$CBV?$basic_string@DU?$char_traits@D@std@@V?$allocator@D@2@@std@@V?$shared_ptr@VRawImageData@@@2@@std@@PAX@1@$$QAU?$pair@V?$basic_string@DU?$char_traits@D@std@@V?$allocator@D@2@@std@@V?$shared_ptr@VRawImageData@@@2@@1@@Z 00400008     Guard.obj
 0002:fffc9008       __ehfuncinfo$??$?0U?$pair@V?$basic_string@DU?$char_traits@D@std@@V?$allocator@D@2@@std@@V?$weak_ptr@VRawImageData@@@2@@std@@@?$_Tree_temp_node@V?$allocator@U?$_Tree_node@U?$pair@$$CBV?$basic_string@DU?$char_traits@D@std@@V?$allocator@D@2@@std@@V?$weak_ptr@VRawImageData@@@2@@std@@PAX@std@@@std@@@std@@QAE@AAV?$allocator@U?$_Tree_node@U?$pair@$$CBV?$basic_string@DU?$char_traits@D@std@@V?$allocator@D@2@@std@@V?$weak_ptr@VRawImageData@@@2@@std@@PAX@std@@@1@PAU?$_Tree_node@U?$pair@$$CBV?$basic_string@DU?$char_traits@D@std@@V?$allocator@D@2@@std@@V?$weak_ptr@VRawImageData@@@2@@std@@PAX@1@$$QAU?$pair@V?$basic_string@DU?$char_traits@D@std@@V?$allocator@D@2@@std@@V?$weak_ptr@VRawImageData@@@2@@1@@Z 00400008     Guard.obj
 0002:fffc9008       __ehfuncinfo$??0?$_Tree_temp_node_alloc@V?$allocator@U?$_Tree_node@U?$pair@$$CBV?$basic_string@DU?$char_traits@D@std@@V?$allocator@D@2@@std@@V?$shared_ptr@VRawImageData@@@2@@std@@PAX@std@@@std@@@std@@QAE@AAV?$allocator@U?$_Tree_node@U?$pair@$$CBV?$basic_string@DU?$char_traits@D@std@@V?$allocator@D@2@@std@@V?$shared_ptr@VRawImageData@@@2@@std@@PAX@std@@@1@@Z 00400008     Guard.obj
 0002:fffc9008       __ehfuncinfo$??0?$_Tree_temp_node_alloc@V?$allocator@U?$_Tree_node@U?$pair@$$CBV?$basic_string@DU?$char_traits@D@std@@V?$allocator@D@2@@std@@V?$weak_ptr@VRawImageData@@@2@@std@@PAX@std@@@std@@@std@@QAE@AAV?$allocator@U?$_Tree_node@U?$pair@$$CBV?$basic_string@DU?$char_traits@D@std@@V?$allocator@D@2@@std@@V?$weak_ptr@VRawImageData@@@2@@std@@PAX@std@@@1@@Z 00400008     Guard.obj
 0002:fffc9008       __ehfuncinfo$??0RawImageData@@QAE@V?$basic_string@DU?$char_traits@D@std@@V?$allocator@D@2@@std@@@Z 00400008     Guard.obj
 0002:fffc9008       __ehfuncinfo$??0sentry@?$basic_ostream@DU?$char_traits@D@std@@@std@@QAE@AAV12@@Z 00400008     Guard.obj
 0002:fffc9008       __ehfuncinfo$?_Alloc_sentinel_and_proxy@?$_Tree@V?$_Tmap_traits@V?$basic_string@DU?$char_traits@D@std@@V?$allocator@D@2@@std@@V?$shared_ptr@VRawImageData@@@2@U?$less@V?$basic_string@DU?$char_traits@D@std@@V?$allocator@D@2@@std@@@2@V?$allocator@U?$pair@$$CBV?$basic_string@DU?$char_traits@D@std@@V?$allocator@D@2@@std@@V?$shared_ptr@VRawImageData@@@2@@std@@@2@$0A@@std@@@std@@IAEXXZ 00400008     Guard.obj
 0002:fffc9008       __ehfuncinfo$?_Alloc_sentinel_and_proxy@?$_Tree@V?$_Tmap_traits@V?$basic_string@DU?$char_traits@D@std@@V?$allocator@D@2@@std@@V?$weak_ptr@VRawImageData@@@2@U?$less@V?$basic_string@DU?$char_traits@D@std@@V?$allocator@D@2@@std@@@2@V?$allocator@U?$pair@$$CBV?$basic_string@DU?$char_traits@D@std@@V?$allocator@D@2@@std@@V?$weak_ptr@VRawImageData@@@2@@std@@@2@$0A@@std@@@std@@IAEXXZ 00400008     Guard.obj
 0002:fffc9008       __ehfuncinfo$?get@ImageManager@@SAPAV1@XZ 00400008     Guard.obj
 0002:fffc9008       __ehfuncinfo$?getImagebyURL@ImageManager@@QAE?AVSimpleImage@@V?$basic_string@DU?$char_traits@D@std@@V?$allocator@D@2@@std@@_N1@Z 00400008     Guard.obj
 0002:fffc9008       __ehfuncinfo$?loadImage@RawImageData@@QAE_NV?$basic_string@DU?$char_traits@D@std@@V?$allocator@D@2@@std@@HHHHH_N@Z 00400008     Guard.obj
 0001:fffff008       __unwindfunclet$??$?0VRawImageData@@$0A@@?$shared_ptr@VRawImageData@@@std@@QAE@PAVRawImageData@@@Z$1 00400008 f   Guard.obj
 0001:fffff008       __unwindfunclet$??0?$basic_string@DU?$char_traits@D@std@@V?$allocator@D@2@@std@@QAE@ABV01@@Z$1 00400008 f   Guard.obj
 0001:fffff008       __unwindfunclet$??0?$basic_string@DU?$char_traits@D@std@@V?$allocator@D@2@@std@@QAE@QBD@Z$1 00400008 f   Guard.obj
 0001:fffff008       __unwindfunclet$??0ImageManager@@QAE@XZ$1 00400008 f   Guard.obj
 0001:fffff008       __unwindfunclet$?getImagePtrbyURL@ImageManager@@QAE?AV?$shared_ptr@VRawImageData@@@std@@V?$basic_string@DU?$char_traits@D@std@@V?$allocator@D@2@@3@_N1@Z$1 00400008 f   Guard.obj
 0001:fffff008       __unwindfunclet$?loadAsNew@ImageManager@@QAE?AV?$shared_ptr@VRawImageData@@@std@@V?$basic_string@DU?$char_traits@D@std@@V?$allocator@D@2@@3@@Z$1 00400008 f   Guard.obj
 0001:fffff008       __unwindfunclet$?loadImage@ImageManager@@SA?AVSimpleImage@@V?$basic_string@DU?$char_traits@D@std@@V?$allocator@D@2@@std@@_N@Z$1 00400008 f   Guard.obj
 0002:fffc9008       __ehfuncinfo$??$?0U?$pair@V?$basic_string@DU?$char_traits@D@std@@V?$allocator@D@2@@std@@V?$shared_ptr@VRawImageData@@@2@@std@@@?$_Tree_temp_node@V?$allocator@U?$_Tree_node@U?$pair@$$CBV?$basic_string@DU?$char_traits@D@std@@V?$allocator@D@2@@std@@V?$shared_ptr@VRawImageData@@@2@@std@@PAX@std@@@std@@@std@@QAE@AAV?$allocator@U?$_Tree_node@U?$pair@$$CBV?$basic_string@DU?$char_traits@D@std@@V?$allocator@D@2@@std@@V?$shared_ptr@VRawImageData@@@2@@std@@PAX@std@@@1@PAU?$_Tree_node@U?$pair@$$CBV?$basic_string@DU?$char_traits@D@std@@V?$allocator@D@2@@std@@V?$shared_ptr@VRawImageData@@@2@@std@@PAX@1@$$QAU?$pair@V?$basic_string@DU?$char_traits@D@std@@V?$allocator@D@2@@std@@V?$shared_ptr@VRawImageData@@@2@@1@@Z 00400008     RunningState.obj
 0002:fffc9008       __ehfuncinfo$??$?0U?$pair@V?$basic_string@DU?$char_traits@D@std@@V?$allocator@D@2@@std@@V?$weak_ptr@VRawImageData@@@2@@std@@@?$_Tree_temp_node@V?$allocator@U?$_Tree_node@U?$pair@$$CBV?$basic_string@DU?$char_traits@D@std@@V?$allocator@D@2@@std@@V?$weak_ptr@VRawImageData@@@2@@std@@PAX@std@@@std@@@std@@QAE@AAV?$allocator@U?$_Tree_node@U?$pair@$$CBV?$basic_string@DU?$char_traits@D@std@@V?$allocator@D@2@@std@@V?$weak_ptr@VRawImageData@@@2@@std@@PAX@std@@@1@PAU?$_Tree_node@U?$pair@$$CBV?$basic_string@DU?$char_traits@D@std@@V?$allocator@D@2@@std@@V?$weak_ptr@VRawImageData@@@2@@std@@PAX@1@$$QAU?$pair@V?$basic_string@DU?$char_traits@D@std@@V?$allocator@D@2@@std@@V?$weak_ptr@VRawImageData@@@2@@1@@Z 00400008     RunningState.obj
 0002:fffc9008       __ehfuncinfo$??0?$_Tree_temp_node_alloc@V?$allocator@U?$_Tree_node@U?$pair@$$CBV?$basic_string@DU?$char_traits@D@std@@V?$allocator@D@2@@std@@V?$shared_ptr@VRawImageData@@@2@@std@@PAX@std@@@std@@@std@@QAE@AAV?$allocator@U?$_Tree_node@U?$pair@$$CBV?$basic_string@DU?$char_traits@D@std@@V?$allocator@D@2@@std@@V?$shared_ptr@VRawImageData@@@2@@std@@PAX@std@@@1@@Z 00400008     RunningState.obj
 0002:fffc9008       __ehfuncinfo$??0?$_Tree_temp_node_alloc@V?$allocator@U?$_Tree_node@U?$pair@$$CBV?$basic_string@DU?$char_traits@D@std@@V?$allocator@D@2@@std@@V?$weak_ptr@VRawImageData@@@2@@std@@PAX@std@@@std@@@std@@QAE@AAV?$allocator@U?$_Tree_node@U?$pair@$$CBV?$basic_string@DU?$char_traits@D@std@@V?$allocator@D@2@@std@@V?$weak_ptr@VRawImageData@@@2@@std@@PAX@std@@@1@@Z 00400008     RunningState.obj
 0002:fffc9008       __ehfuncinfo$??0RawImageData@@QAE@V?$basic_string@DU?$char_traits@D@std@@V?$allocator@D@2@@std@@@Z 00400008     RunningState.obj
 0002:fffc9008       __ehfuncinfo$??0sentry@?$basic_ostream@DU?$char_traits@D@std@@@std@@QAE@AAV12@@Z 00400008     RunningState.obj
 0002:fffc9008       __ehfuncinfo$?_Alloc_sentinel_and_proxy@?$_Tree@V?$_Tmap_traits@V?$basic_string@DU?$char_traits@D@std@@V?$allocator@D@2@@std@@V?$shared_ptr@VRawImageData@@@2@U?$less@V?$basic_string@DU?$char_traits@D@std@@V?$allocator@D@2@@std@@@2@V?$allocator@U?$pair@$$CBV?$basic_string@DU?$char_traits@D@std@@V?$allocator@D@2@@std@@V?$shared_ptr@VRawImageData@@@2@@std@@@2@$0A@@std@@@std@@IAEXXZ 00400008     RunningState.obj
 0002:fffc9008       __ehfuncinfo$?_Alloc_sentinel_and_proxy@?$_Tree@V?$_Tmap_traits@V?$basic_string@DU?$char_traits@D@std@@V?$allocator@D@2@@std@@V?$weak_ptr@VRawImageData@@@2@U?$less@V?$basic_string@DU?$char_traits@D@std@@V?$allocator@D@2@@std@@@2@V?$allocator@U?$pair@$$CBV?$basic_string@DU?$char_traits@D@std@@V?$allocator@D@2@@std@@V?$weak_ptr@VRawImageData@@@2@@std@@@2@$0A@@std@@@std@@IAEXXZ 00400008     RunningState.obj
 0002:fffc9008       __ehfuncinfo$?get@ImageManager@@SAPAV1@XZ 00400008     RunningState.obj
 0002:fffc9008       __ehfuncinfo$?getImagebyURL@ImageManager@@QAE?AVSimpleImage@@V?$basic_string@DU?$char_traits@D@std@@V?$allocator@D@2@@std@@_N1@Z 00400008     RunningState.obj
 0002:fffc9008       __ehfuncinfo$?loadImage@RawImageData@@QAE_NV?$basic_string@DU?$char_traits@D@std@@V?$allocator@D@2@@std@@HHHHH_N@Z 00400008     RunningState.obj
 0001:fffff008       __unwindfunclet$??$?0VRawImageData@@$0A@@?$shared_ptr@VRawImageData@@@std@@QAE@PAVRawImageData@@@Z$1 00400008 f   RunningState.obj
 0001:fffff008       __unwindfunclet$??0?$basic_string@DU?$char_traits@D@std@@V?$allocator@D@2@@std@@QAE@ABV01@@Z$1 00400008 f   RunningState.obj
 0001:fffff008       __unwindfunclet$??0?$basic_string@DU?$char_traits@D@std@@V?$allocator@D@2@@std@@QAE@QBD@Z$1 00400008 f   RunningState.obj
 0001:fffff008       __unwindfunclet$??0ImageManager@@QAE@XZ$1 00400008 f   RunningState.obj
 0001:fffff008       __unwindfunclet$?getImagePtrbyURL@ImageManager@@QAE?AV?$shared_ptr@VRawImageData@@@std@@V?$basic_string@DU?$char_traits@D@std@@V?$allocator@D@2@@3@_N1@Z$1 00400008 f   RunningState.obj
 0001:fffff008       __unwindfunclet$?loadAsNew@ImageManager@@QAE?AV?$shared_ptr@VRawImageData@@@std@@V?$basic_string@DU?$char_traits@D@std@@V?$allocator@D@2@@3@@Z$1 00400008 f   RunningState.obj
 0001:fffff008       __unwindfunclet$?loadImage@ImageManager@@SA?AVSimpleImage@@V?$basic_string@DU?$char_traits@D@std@@V?$allocator@D@2@@std@@_N@Z$1 00400008 f   RunningState.obj
 0002:fffc9008       __ehfuncinfo$??0sentry@?$basic_ostream@DU?$char_traits@D@std@@@std@@QAE@AAV12@@Z 00400008     SimpleImage.obj
 0000:fffaf008       __guard_fids__             00400008     MSVCRTD:exe_main.obj
 0001:fffff00d       __ehhandler$??$?0U?$pair@V?$basic_string@DU?$char_traits@D@std@@V?$allocator@D@2@@std@@V?$shared_ptr@VRawImageData@@@2@@std@@@?$_Tree_temp_node@V?$allocator@U?$_Tree_node@U?$pair@$$CBV?$basic_string@DU?$char_traits@D@std@@V?$allocator@D@2@@std@@V?$shared_ptr@VRawImageData@@@2@@std@@PAX@std@@@std@@@std@@QAE@AAV?$allocator@U?$_Tree_node@U?$pair@$$CBV?$basic_string@DU?$char_traits@D@std@@V?$allocator@D@2@@std@@V?$shared_ptr@VRawImageData@@@2@@std@@PAX@std@@@1@PAU?$_Tree_node@U?$pair@$$CBV?$basic_string@DU?$char_traits@D@std@@V?$allocator@D@2@@std@@V?$shared_ptr@VRawImageData@@@2@@std@@PAX@1@$$QAU?$pair@V?$basic_string@DU?$char_traits@D@std@@V?$allocator@D@2@@std@@V?$shared_ptr@VRawImageData@@@2@@1@@Z 0040000d f   AdvancedTileManager.obj
 0001:fffff00d       __ehhandler$??$?0U?$pair@V?$basic_string@DU?$char_traits@D@std@@V?$allocator@D@2@@std@@V?$weak_ptr@VRawImageData@@@2@@std@@@?$_Tree_temp_node@V?$allocator@U?$_Tree_node@U?$pair@$$CBV?$basic_string@DU?$char_traits@D@std@@V?$allocator@D@2@@std@@V?$weak_ptr@VRawImageData@@@2@@std@@PAX@std@@@std@@@std@@QAE@AAV?$allocator@U?$_Tree_node@U?$pair@$$CBV?$basic_string@DU?$char_traits@D@std@@V?$allocator@D@2@@std@@V?$weak_ptr@VRawImageData@@@2@@std@@PAX@std@@@1@PAU?$_Tree_node@U?$pair@$$CBV?$basic_string@DU?$char_traits@D@std@@V?$allocator@D@2@@std@@V?$weak_ptr@VRawImageData@@@2@@std@@PAX@1@$$QAU?$pair@V?$basic_string@DU?$char_traits@D@std@@V?$allocator@D@2@@std@@V?$weak_ptr@VRawImageData@@@2@@1@@Z 0040000d f   AdvancedTileManager.obj
 0001:fffff00d       __ehhandler$??$?6U?$char_traits@D@std@@@std@@YAAAV?$basic_ostream@DU?$char_traits@D@std@@@0@AAV10@PBD@Z 0040000d f   AdvancedTileManager.obj
 0001:fffff00d       __ehhandler$??$_Insert_string@DU?$char_traits@D@std@@I@std@@YAAAV?$basic_ostream@DU?$char_traits@D@std@@@0@AAV10@QBDI@Z 0040000d f   AdvancedTileManager.obj
 0001:fffff00d       __ehhandler$??0?$_Tree_temp_node_alloc@V?$allocator@U?$_Tree_node@U?$pair@$$CBV?$basic_string@DU?$char_traits@D@std@@V?$allocator@D@2@@std@@V?$shared_ptr@VRawImageData@@@2@@std@@PAX@std@@@std@@@std@@QAE@AAV?$allocator@U?$_Tree_node@U?$pair@$$CBV?$basic_string@DU?$char_traits@D@std@@V?$allocator@D@2@@std@@V?$shared_ptr@VRawImageData@@@2@@std@@PAX@std@@@1@@Z 0040000d f   AdvancedTileManager.obj
 0001:fffff00d       __ehhandler$??0?$_Tree_temp_node_alloc@V?$allocator@U?$_Tree_node@U?$pair@$$CBV?$basic_string@DU?$char_traits@D@std@@V?$allocator@D@2@@std@@V?$weak_ptr@VRawImageData@@@2@@std@@PAX@std@@@std@@@std@@QAE@AAV?$allocator@U?$_Tree_node@U?$pair@$$CBV?$basic_string@DU?$char_traits@D@std@@V?$allocator@D@2@@std@@V?$weak_ptr@VRawImageData@@@2@@std@@PAX@std@@@1@@Z 0040000d f   AdvancedTileManager.obj
 0001:fffff00d       __ehhandler$??0RawImageData@@QAE@V?$basic_string@DU?$char_traits@D@std@@V?$allocator@D@2@@std@@@Z 0040000d f   AdvancedTileManager.obj
 0001:fffff00d       __ehhandler$??0sentry@?$basic_ostream@DU?$char_traits@D@std@@@std@@QAE@AAV12@@Z 0040000d f   AdvancedTileManager.obj
 0001:fffff00d       __ehhandler$?_Alloc_sentinel_and_proxy@?$_Tree@V?$_Tmap_traits@V?$basic_string@DU?$char_traits@D@std@@V?$allocator@D@2@@std@@V?$shared_ptr@VRawImageData@@@2@U?$less@V?$basic_string@DU?$char_traits@D@std@@V?$allocator@D@2@@std@@@2@V?$allocator@U?$pair@$$CBV?$basic_string@DU?$char_traits@D@std@@V?$allocator@D@2@@std@@V?$shared_ptr@VRawImageData@@@2@@std@@@2@$0A@@std@@@std@@IAEXXZ 0040000d f   AdvancedTileManager.obj
 0001:fffff00d       __ehhandler$?_Alloc_sentinel_and_proxy@?$_Tree@V?$_Tmap_traits@V?$basic_string@DU?$char_traits@D@std@@V?$allocator@D@2@@std@@V?$weak_ptr@VRawImageData@@@2@U?$less@V?$basic_string@DU?$char_traits@D@std@@V?$allocator@D@2@@std@@@2@V?$allocator@U?$pair@$$CBV?$basic_string@DU?$char_traits@D@std@@V?$allocator@D@2@@std@@V?$weak_ptr@VRawImageData@@@2@@std@@@2@$0A@@std@@@std@@IAEXXZ 0040000d f   AdvancedTileManager.obj
 0001:fffff00d       __ehhandler$?getImagebyURL@ImageManager@@QAE?AVSimpleImage@@V?$basic_string@DU?$char_traits@D@std@@V?$allocator@D@2@@std@@_N1@Z 0040000d f   AdvancedTileManager.obj
 0001:fffff00d       __ehhandler$?loadImage@RawImageData@@QAE_NV?$basic_string@DU?$char_traits@D@std@@V?$allocator@D@2@@std@@HHHHH_N@Z 0040000d f   AdvancedTileManager.obj
 0001:fffff00d       __ehhandler$??$?0U?$pair@V?$basic_string@DU?$char_traits@D@std@@V?$allocator@D@2@@std@@V?$shared_ptr@VRawImageData@@@2@@std@@@?$_Tree_temp_node@V?$allocator@U?$_Tree_node@U?$pair@$$CBV?$basic_string@DU?$char_traits@D@std@@V?$allocator@D@2@@std@@V?$shared_ptr@VRawImageData@@@2@@std@@PAX@std@@@std@@@std@@QAE@AAV?$allocator@U?$_Tree_node@U?$pair@$$CBV?$basic_string@DU?$char_traits@D@std@@V?$allocator@D@2@@std@@V?$shared_ptr@VRawImageData@@@2@@std@@PAX@std@@@1@PAU?$_Tree_node@U?$pair@$$CBV?$basic_string@DU?$char_traits@D@std@@V?$allocator@D@2@@std@@V?$shared_ptr@VRawImageData@@@2@@std@@PAX@1@$$QAU?$pair@V?$basic_string@DU?$char_traits@D@std@@V?$allocator@D@2@@std@@V?$shared_ptr@VRawImageData@@@2@@1@@Z 0040000d f   Bullet.obj
 0001:fffff00d       __ehhandler$??$?0U?$pair@V?$basic_string@DU?$char_traits@D@std@@V?$allocator@D@2@@std@@V?$weak_ptr@VRawImageData@@@2@@std@@@?$_Tree_temp_node@V?$allocator@U?$_Tree_node@U?$pair@$$CBV?$basic_string@DU?$char_traits@D@std@@V?$allocator@D@2@@std@@V?$weak_ptr@VRawImageData@@@2@@std@@PAX@std@@@std@@@std@@QAE@AAV?$allocator@U?$_Tree_node@U?$pair@$$CBV?$basic_string@DU?$char_traits@D@std@@V?$allocator@D@2@@std@@V?$weak_ptr@VRawImageData@@@2@@std@@PAX@std@@@1@PAU?$_Tree_node@U?$pair@$$CBV?$basic_string@DU?$char_traits@D@std@@V?$allocator@D@2@@std@@V?$weak_ptr@VRawImageData@@@2@@std@@PAX@1@$$QAU?$pair@V?$basic_string@DU?$char_traits@D@std@@V?$allocator@D@2@@std@@V?$weak_ptr@VRawImageData@@@2@@1@@Z 0040000d f   Bullet.obj
 0001:fffff00d       __ehhandler$??$?6U?$char_traits@D@std@@@std@@YAAAV?$basic_ostream@DU?$char_traits@D@std@@@0@AAV10@PBD@Z 0040000d f   Bullet.obj
 0001:fffff00d       __ehhandler$??$_Insert_string@DU?$char_traits@D@std@@I@std@@YAAAV?$basic_ostream@DU?$char_traits@D@std@@@0@AAV10@QBDI@Z 0040000d f   Bullet.obj
 0001:fffff00d       __ehhandler$??0?$_Tree_temp_node_alloc@V?$allocator@U?$_Tree_node@U?$pair@$$CBV?$basic_string@DU?$char_traits@D@std@@V?$allocator@D@2@@std@@V?$shared_ptr@VRawImageData@@@2@@std@@PAX@std@@@std@@@std@@QAE@AAV?$allocator@U?$_Tree_node@U?$pair@$$CBV?$basic_string@DU?$char_traits@D@std@@V?$allocator@D@2@@std@@V?$shared_ptr@VRawImageData@@@2@@std@@PAX@std@@@1@@Z 0040000d f   Bullet.obj
 0001:fffff00d       __ehhandler$??0?$_Tree_temp_node_alloc@V?$allocator@U?$_Tree_node@U?$pair@$$CBV?$basic_string@DU?$char_traits@D@std@@V?$allocator@D@2@@std@@V?$weak_ptr@VRawImageData@@@2@@std@@PAX@std@@@std@@@std@@QAE@AAV?$allocator@U?$_Tree_node@U?$pair@$$CBV?$basic_string@DU?$char_traits@D@std@@V?$allocator@D@2@@std@@V?$weak_ptr@VRawImageData@@@2@@std@@PAX@std@@@1@@Z 0040000d f   Bullet.obj
 0001:fffff00d       __ehhandler$??0RawImageData@@QAE@V?$basic_string@DU?$char_traits@D@std@@V?$allocator@D@2@@std@@@Z 0040000d f   Bullet.obj
 0001:fffff00d       __ehhandler$??0sentry@?$basic_ostream@DU?$char_traits@D@std@@@std@@QAE@AAV12@@Z 0040000d f   Bullet.obj
 0001:fffff00d       __ehhandler$?_Alloc_sentinel_and_proxy@?$_Tree@V?$_Tmap_traits@V?$basic_string@DU?$char_traits@D@std@@V?$allocator@D@2@@std@@V?$shared_ptr@VRawImageData@@@2@U?$less@V?$basic_string@DU?$char_traits@D@std@@V?$allocator@D@2@@std@@@2@V?$allocator@U?$pair@$$CBV?$basic_string@DU?$char_traits@D@std@@V?$allocator@D@2@@std@@V?$shared_ptr@VRawImageData@@@2@@std@@@2@$0A@@std@@@std@@IAEXXZ 0040000d f   Bullet.obj
 0001:fffff00d       __ehhandler$?_Alloc_sentinel_and_proxy@?$_Tree@V?$_Tmap_traits@V?$basic_string@DU?$char_traits@D@std@@V?$allocator@D@2@@std@@V?$weak_ptr@VRawImageData@@@2@U?$less@V?$basic_string@DU?$char_traits@D@std@@V?$allocator@D@2@@std@@@2@V?$allocator@U?$pair@$$CBV?$basic_string@DU?$char_traits@D@std@@V?$allocator@D@2@@std@@V?$weak_ptr@VRawImageData@@@2@@std@@@2@$0A@@std@@@std@@IAEXXZ 0040000d f   Bullet.obj
 0001:fffff00d       __ehhandler$?getImagebyURL@ImageManager@@QAE?AVSimpleImage@@V?$basic_string@DU?$char_traits@D@std@@V?$allocator@D@2@@std@@_N1@Z 0040000d f   Bullet.obj
 0001:fffff00d       __ehhandler$?loadImage@RawImageData@@QAE_NV?$basic_string@DU?$char_traits@D@std@@V?$allocator@D@2@@std@@HHHHH_N@Z 0040000d f   Bullet.obj
 0001:fffff00d       __ehhandler$??$?6U?$char_traits@D@std@@@std@@YAAAV?$basic_ostream@DU?$char_traits@D@std@@@0@AAV10@PBD@Z 0040000d f   DisplayableObject.obj
 0001:fffff00d       __ehhandler$??0sentry@?$basic_ostream@DU?$char_traits@D@std@@@std@@QAE@AAV12@@Z 0040000d f   DisplayableObject.obj
 0001:fffff00d       __ehhandler$??$?6U?$char_traits@D@std@@@std@@YAAAV?$basic_ostream@DU?$char_traits@D@std@@@0@AAV10@PBD@Z 0040000d f   DrawingSurface.obj
 0001:fffff00d       __ehhandler$??0sentry@?$basic_ostream@DU?$char_traits@D@std@@@std@@QAE@AAV12@@Z 0040000d f   DrawingSurface.obj
 0001:fffff00d       __ehhandler$??$?0U?$pair@V?$basic_string@DU?$char_traits@D@std@@V?$allocator@D@2@@std@@V?$shared_ptr@VRawImageData@@@2@@std@@@?$_Tree_temp_node@V?$allocator@U?$_Tree_node@U?$pair@$$CBV?$basic_string@DU?$char_traits@D@std@@V?$allocator@D@2@@std@@V?$shared_ptr@VRawImageData@@@2@@std@@PAX@std@@@std@@@std@@QAE@AAV?$allocator@U?$_Tree_node@U?$pair@$$CBV?$basic_string@DU?$char_traits@D@std@@V?$allocator@D@2@@std@@V?$shared_ptr@VRawImageData@@@2@@std@@PAX@std@@@1@PAU?$_Tree_node@U?$pair@$$CBV?$basic_string@DU?$char_traits@D@std@@V?$allocator@D@2@@std@@V?$shared_ptr@VRawImageData@@@2@@std@@PAX@1@$$QAU?$pair@V?$basic_string@DU?$char_traits@D@std@@V?$allocator@D@2@@std@@V?$shared_ptr@VRawImageData@@@2@@1@@Z 0040000d f   GameEngine.obj
 0001:fffff00d       __ehhandler$??$?0U?$pair@V?$basic_string@DU?$char_traits@D@std@@V?$allocator@D@2@@std@@V?$weak_ptr@VRawImageData@@@2@@std@@@?$_Tree_temp_node@V?$allocator@U?$_Tree_node@U?$pair@$$CBV?$basic_string@DU?$char_traits@D@std@@V?$allocator@D@2@@std@@V?$weak_ptr@VRawImageData@@@2@@std@@PAX@std@@@std@@@std@@QAE@AAV?$allocator@U?$_Tree_node@U?$pair@$$CBV?$basic_string@DU?$char_traits@D@std@@V?$allocator@D@2@@std@@V?$weak_ptr@VRawImageData@@@2@@std@@PAX@std@@@1@PAU?$_Tree_node@U?$pair@$$CBV?$basic_string@DU?$char_traits@D@std@@V?$allocator@D@2@@std@@V?$weak_ptr@VRawImageData@@@2@@std@@PAX@1@$$QAU?$pair@V?$basic_string@DU?$char_traits@D@std@@V?$allocator@D@2@@std@@V?$weak_ptr@VRawImageData@@@2@@1@@Z 0040000d f   GameEngine.obj
 0001:fffff00d       __ehhandler$??$?6U?$char_traits@D@std@@@std@@YAAAV?$basic_ostream@DU?$char_traits@D@std@@@0@AAV10@PBD@Z 0040000d f   GameEngine.obj
 0001:fffff00d       __ehhandler$??$_Insert_string@DU?$char_traits@D@std@@I@std@@YAAAV?$basic_ostream@DU?$char_traits@D@std@@@0@AAV10@QBDI@Z 0040000d f   GameEngine.obj
 0001:fffff00d       __ehhandler$??0?$_Tree_temp_node_alloc@V?$allocator@U?$_Tree_node@U?$pair@$$CBV?$basic_string@DU?$char_traits@D@std@@V?$allocator@D@2@@std@@V?$shared_ptr@VRawImageData@@@2@@std@@PAX@std@@@std@@@std@@QAE@AAV?$allocator@U?$_Tree_node@U?$pair@$$CBV?$basic_string@DU?$char_traits@D@std@@V?$allocator@D@2@@std@@V?$shared_ptr@VRawImageData@@@2@@std@@PAX@std@@@1@@Z 0040000d f   GameEngine.obj
 0001:fffff00d       __ehhandler$??0?$_Tree_temp_node_alloc@V?$allocator@U?$_Tree_node@U?$pair@$$CBV?$basic_string@DU?$char_traits@D@std@@V?$allocator@D@2@@std@@V?$weak_ptr@VRawImageData@@@2@@std@@PAX@std@@@std@@@std@@QAE@AAV?$allocator@U?$_Tree_node@U?$pair@$$CBV?$basic_string@DU?$char_traits@D@std@@V?$allocator@D@2@@std@@V?$weak_ptr@VRawImageData@@@2@@std@@PAX@std@@@1@@Z 0040000d f   GameEngine.obj
 0001:fffff00d       __ehhandler$??0RawImageData@@QAE@V?$basic_string@DU?$char_traits@D@std@@V?$allocator@D@2@@std@@@Z 0040000d f   GameEngine.obj
 0001:fffff00d       __ehhandler$??0sentry@?$basic_ostream@DU?$char_traits@D@std@@@std@@QAE@AAV12@@Z 0040000d f   GameEngine.obj
 0001:fffff00d       __ehhandler$??E?$_Vector_const_iterator@V?$_Vector_val@U?$_Simple_types@PAVDisplayableObject@@@std@@@std@@@std@@QAE?AV01@H@Z 0040000d f   GameEngine.obj
 0001:fffff00d       __ehhandler$?_Alloc_sentinel_and_proxy@?$_Tree@V?$_Tmap_traits@V?$basic_string@DU?$char_traits@D@std@@V?$allocator@D@2@@std@@V?$shared_ptr@VRawImageData@@@2@U?$less@V?$basic_string@DU?$char_traits@D@std@@V?$allocator@D@2@@std@@@2@V?$allocator@U?$pair@$$CBV?$basic_string@DU?$char_traits@D@std@@V?$allocator@D@2@@std@@V?$shared_ptr@VRawImageData@@@2@@std@@@2@$0A@@std@@@std@@IAEXXZ 0040000d f   GameEngine.obj
 0001:fffff00d       __ehhandler$?_Alloc_sentinel_and_proxy@?$_Tree@V?$_Tmap_traits@V?$basic_string@DU?$char_traits@D@std@@V?$allocator@D@2@@std@@V?$weak_ptr@VRawImageData@@@2@U?$less@V?$basic_string@DU?$char_traits@D@std@@V?$allocator@D@2@@std@@@2@V?$allocator@U?$pair@$$CBV?$basic_string@DU?$char_traits@D@std@@V?$allocator@D@2@@std@@V?$weak_ptr@VRawImageData@@@2@@std@@@2@$0A@@std@@@std@@IAEXXZ 0040000d f   GameEngine.obj
 0001:fffff00d       __ehhandler$?getImagebyURL@ImageManager@@QAE?AVSimpleImage@@V?$basic_string@DU?$char_traits@D@std@@V?$allocator@D@2@@std@@_N1@Z 0040000d f   GameEngine.obj
 0001:fffff00d       __ehhandler$?loadImage@RawImageData@@QAE_NV?$basic_string@DU?$char_traits@D@std@@V?$allocator@D@2@@std@@HHHHH_N@Z 0040000d f   GameEngine.obj
 0001:fffff00d       __ehhandler$??$?0U?$pair@V?$basic_string@DU?$char_traits@D@std@@V?$allocator@D@2@@std@@V?$shared_ptr@VRawImageData@@@2@@std@@@?$_Tree_temp_node@V?$allocator@U?$_Tree_node@U?$pair@$$CBV?$basic_string@DU?$char_traits@D@std@@V?$allocator@D@2@@std@@V?$shared_ptr@VRawImageData@@@2@@std@@PAX@std@@@std@@@std@@QAE@AAV?$allocator@U?$_Tree_node@U?$pair@$$CBV?$basic_string@DU?$char_traits@D@std@@V?$allocator@D@2@@std@@V?$shared_ptr@VRawImageData@@@2@@std@@PAX@std@@@1@PAU?$_Tree_node@U?$pair@$$CBV?$basic_string@DU?$char_traits@D@std@@V?$allocator@D@2@@std@@V?$shared_ptr@VRawImageData@@@2@@std@@PAX@1@$$QAU?$pair@V?$basic_string@DU?$char_traits@D@std@@V?$allocator@D@2@@std@@V?$shared_ptr@VRawImageData@@@2@@1@@Z 0040000d f   GameMainObject.obj
 0001:fffff00d       __ehhandler$??$?0U?$pair@V?$basic_string@DU?$char_traits@D@std@@V?$allocator@D@2@@std@@V?$weak_ptr@VRawImageData@@@2@@std@@@?$_Tree_temp_node@V?$allocator@U?$_Tree_node@U?$pair@$$CBV?$basic_string@DU?$char_traits@D@std@@V?$allocator@D@2@@std@@V?$weak_ptr@VRawImageData@@@2@@std@@PAX@std@@@std@@@std@@QAE@AAV?$allocator@U?$_Tree_node@U?$pair@$$CBV?$basic_string@DU?$char_traits@D@std@@V?$allocator@D@2@@std@@V?$weak_ptr@VRawImageData@@@2@@std@@PAX@std@@@1@PAU?$_Tree_node@U?$pair@$$CBV?$basic_string@DU?$char_traits@D@std@@V?$allocator@D@2@@std@@V?$weak_ptr@VRawImageData@@@2@@std@@PAX@1@$$QAU?$pair@V?$basic_string@DU?$char_traits@D@std@@V?$allocator@D@2@@std@@V?$weak_ptr@VRawImageData@@@2@@1@@Z 0040000d f   GameMainObject.obj
 0001:fffff00d       __ehhandler$??$?6U?$char_traits@D@std@@@std@@YAAAV?$basic_ostream@DU?$char_traits@D@std@@@0@AAV10@PBD@Z 0040000d f   GameMainObject.obj
 0001:fffff00d       __ehhandler$??$_Insert_string@DU?$char_traits@D@std@@I@std@@YAAAV?$basic_ostream@DU?$char_traits@D@std@@@0@AAV10@QBDI@Z 0040000d f   GameMainObject.obj
 0001:fffff00d       __ehhandler$??0?$_Tree_temp_node_alloc@V?$allocator@U?$_Tree_node@U?$pair@$$CBV?$basic_string@DU?$char_traits@D@std@@V?$allocator@D@2@@std@@V?$shared_ptr@VRawImageData@@@2@@std@@PAX@std@@@std@@@std@@QAE@AAV?$allocator@U?$_Tree_node@U?$pair@$$CBV?$basic_string@DU?$char_traits@D@std@@V?$allocator@D@2@@std@@V?$shared_ptr@VRawImageData@@@2@@std@@PAX@std@@@1@@Z 0040000d f   GameMainObject.obj
 0001:fffff00d       __ehhandler$??0?$_Tree_temp_node_alloc@V?$allocator@U?$_Tree_node@U?$pair@$$CBV?$basic_string@DU?$char_traits@D@std@@V?$allocator@D@2@@std@@V?$weak_ptr@VRawImageData@@@2@@std@@PAX@std@@@std@@@std@@QAE@AAV?$allocator@U?$_Tree_node@U?$pair@$$CBV?$basic_string@DU?$char_traits@D@std@@V?$allocator@D@2@@std@@V?$weak_ptr@VRawImageData@@@2@@std@@PAX@std@@@1@@Z 0040000d f   GameMainObject.obj
 0001:fffff00d       __ehhandler$??0RawImageData@@QAE@V?$basic_string@DU?$char_traits@D@std@@V?$allocator@D@2@@std@@@Z 0040000d f   GameMainObject.obj
 0001:fffff00d       __ehhandler$??0sentry@?$basic_ostream@DU?$char_traits@D@std@@@std@@QAE@AAV12@@Z 0040000d f   GameMainObject.obj
 0001:fffff00d       __ehhandler$?_Alloc_sentinel_and_proxy@?$_Tree@V?$_Tmap_traits@V?$basic_string@DU?$char_traits@D@std@@V?$allocator@D@2@@std@@V?$shared_ptr@VRawImageData@@@2@U?$less@V?$basic_string@DU?$char_traits@D@std@@V?$allocator@D@2@@std@@@2@V?$allocator@U?$pair@$$CBV?$basic_string@DU?$char_traits@D@std@@V?$allocator@D@2@@std@@V?$shared_ptr@VRawImageData@@@2@@std@@@2@$0A@@std@@@std@@IAEXXZ 0040000d f   GameMainObject.obj
 0001:fffff00d       __ehhandler$?_Alloc_sentinel_and_proxy@?$_Tree@V?$_Tmap_traits@V?$basic_string@DU?$char_traits@D@std@@V?$allocator@D@2@@std@@V?$weak_ptr@VRawImageData@@@2@U?$less@V?$basic_string@DU?$char_traits@D@std@@V?$allocator@D@2@@std@@@2@V?$allocator@U?$pair@$$CBV?$basic_string@DU?$char_traits@D@std@@V?$allocator@D@2@@std@@V?$weak_ptr@VRawImageData@@@2@@std@@@2@$0A@@std@@@std@@IAEXXZ 0040000d f   GameMainObject.obj
 0001:fffff00d       __ehhandler$?getImagebyURL@ImageManager@@QAE?AVSimpleImage@@V?$basic_string@DU?$char_traits@D@std@@V?$allocator@D@2@@std@@_N1@Z 0040000d f   GameMainObject.obj
 0001:fffff00d       __ehhandler$?loadImage@RawImageData@@QAE_NV?$basic_string@DU?$char_traits@D@std@@V?$allocator@D@2@@std@@HHHHH_N@Z 0040000d f   GameMainObject.obj
 0001:fffff00d       __ehhandler$??$?0U?$pair@V?$basic_string@DU?$char_traits@D@std@@V?$allocator@D@2@@std@@V?$shared_ptr@VRawImageData@@@2@@std@@@?$_Tree_temp_node@V?$allocator@U?$_Tree_node@U?$pair@$$CBV?$basic_string@DU?$char_traits@D@std@@V?$allocator@D@2@@std@@V?$shared_ptr@VRawImageData@@@2@@std@@PAX@std@@@std@@@std@@QAE@AAV?$allocator@U?$_Tree_node@U?$pair@$$CBV?$basic_string@DU?$char_traits@D@std@@V?$allocator@D@2@@std@@V?$shared_ptr@VRawImageData@@@2@@std@@PAX@std@@@1@PAU?$_Tree_node@U?$pair@$$CBV?$basic_string@DU?$char_traits@D@std@@V?$allocator@D@2@@std@@V?$shared_ptr@VRawImageData@@@2@@std@@PAX@1@$$QAU?$pair@V?$basic_string@DU?$char_traits@D@std@@V?$allocator@D@2@@std@@V?$shared_ptr@VRawImageData@@@2@@1@@Z 0040000d f   Guard.obj
 0001:fffff00d       __ehhandler$??$?0U?$pair@V?$basic_string@DU?$char_traits@D@std@@V?$allocator@D@2@@std@@V?$weak_ptr@VRawImageData@@@2@@std@@@?$_Tree_temp_node@V?$allocator@U?$_Tree_node@U?$pair@$$CBV?$basic_string@DU?$char_traits@D@std@@V?$allocator@D@2@@std@@V?$weak_ptr@VRawImageData@@@2@@std@@PAX@std@@@std@@@std@@QAE@AAV?$allocator@U?$_Tree_node@U?$pair@$$CBV?$basic_string@DU?$char_traits@D@std@@V?$allocator@D@2@@std@@V?$weak_ptr@VRawImageData@@@2@@std@@PAX@std@@@1@PAU?$_Tree_node@U?$pair@$$CBV?$basic_string@DU?$char_traits@D@std@@V?$allocator@D@2@@std@@V?$weak_ptr@VRawImageData@@@2@@std@@PAX@1@$$QAU?$pair@V?$basic_string@DU?$char_traits@D@std@@V?$allocator@D@2@@std@@V?$weak_ptr@VRawImageData@@@2@@1@@Z 0040000d f   Guard.obj
 0001:fffff00d       __ehhandler$??$?6U?$char_traits@D@std@@@std@@YAAAV?$basic_ostream@DU?$char_traits@D@std@@@0@AAV10@PBD@Z 0040000d f   Guard.obj
 0001:fffff00d       __ehhandler$??$_Insert_string@DU?$char_traits@D@std@@I@std@@YAAAV?$basic_ostream@DU?$char_traits@D@std@@@0@AAV10@QBDI@Z 0040000d f   Guard.obj
 0001:fffff00d       __ehhandler$??0?$_Tree_temp_node_alloc@V?$allocator@U?$_Tree_node@U?$pair@$$CBV?$basic_string@DU?$char_traits@D@std@@V?$allocator@D@2@@std@@V?$shared_ptr@VRawImageData@@@2@@std@@PAX@std@@@std@@@std@@QAE@AAV?$allocator@U?$_Tree_node@U?$pair@$$CBV?$basic_string@DU?$char_traits@D@std@@V?$allocator@D@2@@std@@V?$shared_ptr@VRawImageData@@@2@@std@@PAX@std@@@1@@Z 0040000d f   Guard.obj
 0001:fffff00d       __ehhandler$??0?$_Tree_temp_node_alloc@V?$allocator@U?$_Tree_node@U?$pair@$$CBV?$basic_string@DU?$char_traits@D@std@@V?$allocator@D@2@@std@@V?$weak_ptr@VRawImageData@@@2@@std@@PAX@std@@@std@@@std@@QAE@AAV?$allocator@U?$_Tree_node@U?$pair@$$CBV?$basic_string@DU?$char_traits@D@std@@V?$allocator@D@2@@std@@V?$weak_ptr@VRawImageData@@@2@@std@@PAX@std@@@1@@Z 0040000d f   Guard.obj
 0001:fffff00d       __ehhandler$??0RawImageData@@QAE@V?$basic_string@DU?$char_traits@D@std@@V?$allocator@D@2@@std@@@Z 0040000d f   Guard.obj
 0001:fffff00d       __ehhandler$??0sentry@?$basic_ostream@DU?$char_traits@D@std@@@std@@QAE@AAV12@@Z 0040000d f   Guard.obj
 0001:fffff00d       __ehhandler$?_Alloc_sentinel_and_proxy@?$_Tree@V?$_Tmap_traits@V?$basic_string@DU?$char_traits@D@std@@V?$allocator@D@2@@std@@V?$shared_ptr@VRawImageData@@@2@U?$less@V?$basic_string@DU?$char_traits@D@std@@V?$allocator@D@2@@std@@@2@V?$allocator@U?$pair@$$CBV?$basic_string@DU?$char_traits@D@std@@V?$allocator@D@2@@std@@V?$shared_ptr@VRawImageData@@@2@@std@@@2@$0A@@std@@@std@@IAEXXZ 0040000d f   Guard.obj
 0001:fffff00d       __ehhandler$?_Alloc_sentinel_and_proxy@?$_Tree@V?$_Tmap_traits@V?$basic_string@DU?$char_traits@D@std@@V?$allocator@D@2@@std@@V?$weak_ptr@VRawImageData@@@2@U?$less@V?$basic_string@DU?$char_traits@D@std@@V?$allocator@D@2@@std@@@2@V?$allocator@U?$pair@$$CBV?$basic_string@DU?$char_traits@D@std@@V?$allocator@D@2@@std@@V?$weak_ptr@VRawImageData@@@2@@std@@@2@$0A@@std@@@std@@IAEXXZ 0040000d f   Guard.obj
 0001:fffff00d       __ehhandler$?getImagebyURL@ImageManager@@QAE?AVSimpleImage@@V?$basic_string@DU?$char_traits@D@std@@V?$allocator@D@2@@std@@_N1@Z 0040000d f   Guard.obj
 0001:fffff00d       __ehhandler$?loadImage@RawImageData@@QAE_NV?$basic_string@DU?$char_traits@D@std@@V?$allocator@D@2@@std@@HHHHH_N@Z 0040000d f   Guard.obj
 0001:fffff00d       __ehhandler$??$?0U?$pair@V?$basic_string@DU?$char_traits@D@std@@V?$allocator@D@2@@std@@V?$shared_ptr@VRawImageData@@@2@@std@@@?$_Tree_temp_node@V?$allocator@U?$_Tree_node@U?$pair@$$CBV?$basic_string@DU?$char_traits@D@std@@V?$allocator@D@2@@std@@V?$shared_ptr@VRawImageData@@@2@@std@@PAX@std@@@std@@@std@@QAE@AAV?$allocator@U?$_Tree_node@U?$pair@$$CBV?$basic_string@DU?$char_traits@D@std@@V?$allocator@D@2@@std@@V?$shared_ptr@VRawImageData@@@2@@std@@PAX@std@@@1@PAU?$_Tree_node@U?$pair@$$CBV?$basic_string@DU?$char_traits@D@std@@V?$allocator@D@2@@std@@V?$shared_ptr@VRawImageData@@@2@@std@@PAX@1@$$QAU?$pair@V?$basic_string@DU?$char_traits@D@std@@V?$allocator@D@2@@std@@V?$shared_ptr@VRawImageData@@@2@@1@@Z 0040000d f   RunningState.obj
 0001:fffff00d       __ehhandler$??$?0U?$pair@V?$basic_string@DU?$char_traits@D@std@@V?$allocator@D@2@@std@@V?$weak_ptr@VRawImageData@@@2@@std@@@?$_Tree_temp_node@V?$allocator@U?$_Tree_node@U?$pair@$$CBV?$basic_string@DU?$char_traits@D@std@@V?$allocator@D@2@@std@@V?$weak_ptr@VRawImageData@@@2@@std@@PAX@std@@@std@@@std@@QAE@AAV?$allocator@U?$_Tree_node@U?$pair@$$CBV?$basic_string@DU?$char_traits@D@std@@V?$allocator@D@2@@std@@V?$weak_ptr@VRawImageData@@@2@@std@@PAX@std@@@1@PAU?$_Tree_node@U?$pair@$$CBV?$basic_string@DU?$char_traits@D@std@@V?$allocator@D@2@@std@@V?$weak_ptr@VRawImageData@@@2@@std@@PAX@1@$$QAU?$pair@V?$basic_string@DU?$char_traits@D@std@@V?$allocator@D@2@@std@@V?$weak_ptr@VRawImageData@@@2@@1@@Z 0040000d f   RunningState.obj
 0001:fffff00d       __ehhandler$??$?6U?$char_traits@D@std@@@std@@YAAAV?$basic_ostream@DU?$char_traits@D@std@@@0@AAV10@PBD@Z 0040000d f   RunningState.obj
 0001:fffff00d       __ehhandler$??$_Insert_string@DU?$char_traits@D@std@@I@std@@YAAAV?$basic_ostream@DU?$char_traits@D@std@@@0@AAV10@QBDI@Z 0040000d f   RunningState.obj
 0001:fffff00d       __ehhandler$??0?$_Tree_temp_node_alloc@V?$allocator@U?$_Tree_node@U?$pair@$$CBV?$basic_string@DU?$char_traits@D@std@@V?$allocator@D@2@@std@@V?$shared_ptr@VRawImageData@@@2@@std@@PAX@std@@@std@@@std@@QAE@AAV?$allocator@U?$_Tree_node@U?$pair@$$CBV?$basic_string@DU?$char_traits@D@std@@V?$allocator@D@2@@std@@V?$shared_ptr@VRawImageData@@@2@@std@@PAX@std@@@1@@Z 0040000d f   RunningState.obj
 0001:fffff00d       __ehhandler$??0?$_Tree_temp_node_alloc@V?$allocator@U?$_Tree_node@U?$pair@$$CBV?$basic_string@DU?$char_traits@D@std@@V?$allocator@D@2@@std@@V?$weak_ptr@VRawImageData@@@2@@std@@PAX@std@@@std@@@std@@QAE@AAV?$allocator@U?$_Tree_node@U?$pair@$$CBV?$basic_string@DU?$char_traits@D@std@@V?$allocator@D@2@@std@@V?$weak_ptr@VRawImageData@@@2@@std@@PAX@std@@@1@@Z 0040000d f   RunningState.obj
 0001:fffff00d       __ehhandler$??0RawImageData@@QAE@V?$basic_string@DU?$char_traits@D@std@@V?$allocator@D@2@@std@@@Z 0040000d f   RunningState.obj
 0001:fffff00d       __ehhandler$??0sentry@?$basic_ostream@DU?$char_traits@D@std@@@std@@QAE@AAV12@@Z 0040000d f   RunningState.obj
 0001:fffff00d       __ehhandler$?_Alloc_sentinel_and_proxy@?$_Tree@V?$_Tmap_traits@V?$basic_string@DU?$char_traits@D@std@@V?$allocator@D@2@@std@@V?$shared_ptr@VRawImageData@@@2@U?$less@V?$basic_string@DU?$char_traits@D@std@@V?$allocator@D@2@@std@@@2@V?$allocator@U?$pair@$$CBV?$basic_string@DU?$char_traits@D@std@@V?$allocator@D@2@@std@@V?$shared_ptr@VRawImageData@@@2@@std@@@2@$0A@@std@@@std@@IAEXXZ 0040000d f   RunningState.obj
 0001:fffff00d       __ehhandler$?_Alloc_sentinel_and_proxy@?$_Tree@V?$_Tmap_traits@V?$basic_string@DU?$char_traits@D@std@@V?$allocator@D@2@@std@@V?$weak_ptr@VRawImageData@@@2@U?$less@V?$basic_string@DU?$char_traits@D@std@@V?$allocator@D@2@@std@@@2@V?$allocator@U?$pair@$$CBV?$basic_string@DU?$char_traits@D@std@@V?$allocator@D@2@@std@@V?$weak_ptr@VRawImageData@@@2@@std@@@2@$0A@@std@@@std@@IAEXXZ 0040000d f   RunningState.obj
 0001:fffff00d       __ehhandler$?getImagebyURL@ImageManager@@QAE?AVSimpleImage@@V?$basic_string@DU?$char_traits@D@std@@V?$allocator@D@2@@std@@_N1@Z 0040000d f   RunningState.obj
 0001:fffff00d       __ehhandler$?loadImage@RawImageData@@QAE_NV?$basic_string@DU?$char_traits@D@std@@V?$allocator@D@2@@std@@HHHHH_N@Z 0040000d f   RunningState.obj
 0001:fffff00d       __ehhandler$??$?6U?$char_traits@D@std@@@std@@YAAAV?$basic_ostream@DU?$char_traits@D@std@@@0@AAV10@PBD@Z 0040000d f   SimpleImage.obj
 0001:fffff00d       __ehhandler$??0sentry@?$basic_ostream@DU?$char_traits@D@std@@@std@@QAE@AAV12@@Z 0040000d f   SimpleImage.obj
 0002:fffc9010       __ehfuncinfo$??$?0VRawImageData@@$0A@@?$shared_ptr@VRawImageData@@@std@@QAE@PAVRawImageData@@@Z 00400010     AdvancedTileManager.obj
 0002:fffc9010       __ehfuncinfo$??0?$basic_string@DU?$char_traits@D@std@@V?$allocator@D@2@@std@@QAE@ABV01@@Z 00400010     AdvancedTileManager.obj
 0002:fffc9010       __ehfuncinfo$??0?$basic_string@DU?$char_traits@D@std@@V?$allocator@D@2@@std@@QAE@QBD@Z 00400010     AdvancedTileManager.obj
 0002:fffc9010       __ehfuncinfo$??0ImageManager@@QAE@XZ 00400010     AdvancedTileManager.obj
 0002:fffc9010       __ehfuncinfo$?loadAsNew@ImageManager@@QAE?AV?$shared_ptr@VRawImageData@@@std@@V?$basic_string@DU?$char_traits@D@std@@V?$allocator@D@2@@3@@Z 00400010     AdvancedTileManager.obj
 0002:fffc9010       __ehfuncinfo$?loadImage@ImageManager@@SA?AVSimpleImage@@V?$basic_string@DU?$char_traits@D@std@@V?$allocator@D@2@@std@@_N@Z 00400010     AdvancedTileManager.obj
 0002:fffc9010       __tryblocktable$??$?6U?$char_traits@D@std@@@std@@YAAAV?$basic_ostream@DU?$char_traits@D@std@@@0@AAV10@PBD@Z 00400010     AdvancedTileManager.obj
 0002:fffc9010       __tryblocktable$??$_Insert_string@DU?$char_traits@D@std@@I@std@@YAAAV?$basic_ostream@DU?$char_traits@D@std@@@0@AAV10@QBDI@Z 00400010     AdvancedTileManager.obj
 0001:fffff010       __unwindfunclet$?getImagePtrbyURL@ImageManager@@QAE?AV?$shared_ptr@VRawImageData@@@std@@V?$basic_string@DU?$char_traits@D@std@@V?$allocator@D@2@@3@_N1@Z$2 00400010 f   AdvancedTileManager.obj
 0002:fffc9010       __ehfuncinfo$??$?0VRawImageData@@$0A@@?$shared_ptr@VRawImageData@@@std@@QAE@PAVRawImageData@@@Z 00400010     Bullet.obj
 0002:fffc9010       __ehfuncinfo$??0?$basic_string@DU?$char_traits@D@std@@V?$allocator@D@2@@std@@QAE@ABV01@@Z 00400010     Bullet.obj
 0002:fffc9010       __ehfuncinfo$??0?$basic_string@DU?$char_traits@D@std@@V?$allocator@D@2@@std@@QAE@QBD@Z 00400010     Bullet.obj
 0002:fffc9010       __ehfuncinfo$??0ImageManager@@QAE@XZ 00400010     Bullet.obj
 0002:fffc9010       __ehfuncinfo$?loadAsNew@ImageManager@@QAE?AV?$shared_ptr@VRawImageData@@@std@@V?$basic_string@DU?$char_traits@D@std@@V?$allocator@D@2@@3@@Z 00400010     Bullet.obj
 0002:fffc9010       __ehfuncinfo$?loadImage@ImageManager@@SA?AVSimpleImage@@V?$basic_string@DU?$char_traits@D@std@@V?$allocator@D@2@@std@@_N@Z 00400010     Bullet.obj
 0002:fffc9010       __tryblocktable$??$?6U?$char_traits@D@std@@@std@@YAAAV?$basic_ostream@DU?$char_traits@D@std@@@0@AAV10@PBD@Z 00400010     Bullet.obj
 0002:fffc9010       __tryblocktable$??$_Insert_string@DU?$char_traits@D@std@@I@std@@YAAAV?$basic_ostream@DU?$char_traits@D@std@@@0@AAV10@QBDI@Z 00400010     Bullet.obj
 0001:fffff010       __unwindfunclet$?getImagePtrbyURL@ImageManager@@QAE?AV?$shared_ptr@VRawImageData@@@std@@V?$basic_string@DU?$char_traits@D@std@@V?$allocator@D@2@@3@_N1@Z$2 00400010 f   Bullet.obj
 0002:fffc9010       __tryblocktable$??$?6U?$char_traits@D@std@@@std@@YAAAV?$basic_ostream@DU?$char_traits@D@std@@@0@AAV10@PBD@Z 00400010     DisplayableObject.obj
 0002:fffc9010       __tryblocktable$??$?6U?$char_traits@D@std@@@std@@YAAAV?$basic_ostream@DU?$char_traits@D@std@@@0@AAV10@PBD@Z 00400010     DrawingSurface.obj
 0002:fffc9010       __ehfuncinfo$??$?0VRawImageData@@$0A@@?$shared_ptr@VRawImageData@@@std@@QAE@PAVRawImageData@@@Z 00400010     GameEngine.obj
 0002:fffc9010       __ehfuncinfo$??0?$basic_string@DU?$char_traits@D@std@@V?$allocator@D@2@@std@@QAE@ABV01@@Z 00400010     GameEngine.obj
 0002:fffc9010       __ehfuncinfo$??0?$basic_string@DU?$char_traits@D@std@@V?$allocator@D@2@@std@@QAE@QBD@Z 00400010     GameEngine.obj
 0002:fffc9010       __ehfuncinfo$??0ImageManager@@QAE@XZ 00400010     GameEngine.obj
 0002:fffc9010       __ehfuncinfo$?loadAsNew@ImageManager@@QAE?AV?$shared_ptr@VRawImageData@@@std@@V?$basic_string@DU?$char_traits@D@std@@V?$allocator@D@2@@3@@Z 00400010     GameEngine.obj
 0002:fffc9010       __ehfuncinfo$?loadImage@ImageManager@@SA?AVSimpleImage@@V?$basic_string@DU?$char_traits@D@std@@V?$allocator@D@2@@std@@_N@Z 00400010     GameEngine.obj
 0002:fffc9010       __ehfuncinfo$?setAllObjectsVisible@DisplayableObjectContainer@@QBEX_N@Z 00400010     GameEngine.obj
 0002:fffc9010       __tryblocktable$??$?6U?$char_traits@D@std@@@std@@YAAAV?$basic_ostream@DU?$char_traits@D@std@@@0@AAV10@PBD@Z 00400010     GameEngine.obj
 0002:fffc9010       __tryblocktable$??$_Insert_string@DU?$char_traits@D@std@@I@std@@YAAAV?$basic_ostream@DU?$char_traits@D@std@@@0@AAV10@QBDI@Z 00400010     GameEngine.obj
 0001:fffff010       __unwindfunclet$?getImagePtrbyURL@ImageManager@@QAE?AV?$shared_ptr@VRawImageData@@@std@@V?$basic_string@DU?$char_traits@D@std@@V?$allocator@D@2@@3@_N1@Z$2 00400010 f   GameEngine.obj
 0002:fffc9010       __ehfuncinfo$??$?0VRawImageData@@$0A@@?$shared_ptr@VRawImageData@@@std@@QAE@PAVRawImageData@@@Z 00400010     GameMainObject.obj
 0002:fffc9010       __ehfuncinfo$??0?$basic_string@DU?$char_traits@D@std@@V?$allocator@D@2@@std@@QAE@ABV01@@Z 00400010     GameMainObject.obj
 0002:fffc9010       __ehfuncinfo$??0?$basic_string@DU?$char_traits@D@std@@V?$allocator@D@2@@std@@QAE@QBD@Z 00400010     GameMainObject.obj
 0002:fffc9010       __ehfuncinfo$??0ImageManager@@QAE@XZ 00400010     GameMainObject.obj
 0002:fffc9010       __ehfuncinfo$?loadAsNew@ImageManager@@QAE?AV?$shared_ptr@VRawImageData@@@std@@V?$basic_string@DU?$char_traits@D@std@@V?$allocator@D@2@@3@@Z 00400010     GameMainObject.obj
 0002:fffc9010       __ehfuncinfo$?loadImage@ImageManager@@SA?AVSimpleImage@@V?$basic_string@DU?$char_traits@D@std@@V?$allocator@D@2@@std@@_N@Z 00400010     GameMainObject.obj
 0002:fffc9010       __tryblocktable$??$?6U?$char_traits@D@std@@@std@@YAAAV?$basic_ostream@DU?$char_traits@D@std@@@0@AAV10@PBD@Z 00400010     GameMainObject.obj
 0002:fffc9010       __tryblocktable$??$_Insert_string@DU?$char_traits@D@std@@I@std@@YAAAV?$basic_ostream@DU?$char_traits@D@std@@@0@AAV10@QBDI@Z 00400010     GameMainObject.obj
 0001:fffff010       __unwindfunclet$?getImagePtrbyURL@ImageManager@@QAE?AV?$shared_ptr@VRawImageData@@@std@@V?$basic_string@DU?$char_traits@D@std@@V?$allocator@D@2@@3@_N1@Z$2 00400010 f   GameMainObject.obj
 0002:fffc9010       __ehfuncinfo$??$?0VRawImageData@@$0A@@?$shared_ptr@VRawImageData@@@std@@QAE@PAVRawImageData@@@Z 00400010     Guard.obj
 0002:fffc9010       __ehfuncinfo$??0?$basic_string@DU?$char_traits@D@std@@V?$allocator@D@2@@std@@QAE@ABV01@@Z 00400010     Guard.obj
 0002:fffc9010       __ehfuncinfo$??0?$basic_string@DU?$char_traits@D@std@@V?$allocator@D@2@@std@@QAE@QBD@Z 00400010     Guard.obj
 0002:fffc9010       __ehfuncinfo$??0ImageManager@@QAE@XZ 00400010     Guard.obj
 0002:fffc9010       __ehfuncinfo$?loadAsNew@ImageManager@@QAE?AV?$shared_ptr@VRawImageData@@@std@@V?$basic_string@DU?$char_traits@D@std@@V?$allocator@D@2@@3@@Z 00400010     Guard.obj
 0002:fffc9010       __ehfuncinfo$?loadImage@ImageManager@@SA?AVSimpleImage@@V?$basic_string@DU?$char_traits@D@std@@V?$allocator@D@2@@std@@_N@Z 00400010     Guard.obj
 0002:fffc9010       __tryblocktable$??$?6U?$char_traits@D@std@@@std@@YAAAV?$basic_ostream@DU?$char_traits@D@std@@@0@AAV10@PBD@Z 00400010     Guard.obj
 0002:fffc9010       __tryblocktable$??$_Insert_string@DU?$char_traits@D@std@@I@std@@YAAAV?$basic_ostream@DU?$char_traits@D@std@@@0@AAV10@QBDI@Z 00400010     Guard.obj
 0001:fffff010       __unwindfunclet$?getImagePtrbyURL@ImageManager@@QAE?AV?$shared_ptr@VRawImageData@@@std@@V?$basic_string@DU?$char_traits@D@std@@V?$allocator@D@2@@3@_N1@Z$2 00400010 f   Guard.obj
 0002:fffc9010       __ehfuncinfo$??$?0VRawImageData@@$0A@@?$shared_ptr@VRawImageData@@@std@@QAE@PAVRawImageData@@@Z 00400010     RunningState.obj
 0002:fffc9010       __ehfuncinfo$??0?$basic_string@DU?$char_traits@D@std@@V?$allocator@D@2@@std@@QAE@ABV01@@Z 00400010     RunningState.obj
 0002:fffc9010       __ehfuncinfo$??0?$basic_string@DU?$char_traits@D@std@@V?$allocator@D@2@@std@@QAE@QBD@Z 00400010     RunningState.obj
 0002:fffc9010       __ehfuncinfo$??0ImageManager@@QAE@XZ 00400010     RunningState.obj
 0002:fffc9010       __ehfuncinfo$?loadAsNew@ImageManager@@QAE?AV?$shared_ptr@VRawImageData@@@std@@V?$basic_string@DU?$char_traits@D@std@@V?$allocator@D@2@@3@@Z 00400010     RunningState.obj
 0002:fffc9010       __ehfuncinfo$?loadImage@ImageManager@@SA?AVSimpleImage@@V?$basic_string@DU?$char_traits@D@std@@V?$allocator@D@2@@std@@_N@Z 00400010     RunningState.obj
 0002:fffc9010       __tryblocktable$??$?6U?$char_traits@D@std@@@std@@YAAAV?$basic_ostream@DU?$char_traits@D@std@@@0@AAV10@PBD@Z 00400010     RunningState.obj
 0002:fffc9010       __tryblocktable$??$_Insert_string@DU?$char_traits@D@std@@I@std@@YAAAV?$basic_ostream@DU?$char_traits@D@std@@@0@AAV10@QBDI@Z 00400010     RunningState.obj
 0001:fffff010       __unwindfunclet$?getImagePtrbyURL@ImageManager@@QAE?AV?$shared_ptr@VRawImageData@@@std@@V?$basic_string@DU?$char_traits@D@std@@V?$allocator@D@2@@3@_N1@Z$2 00400010 f   RunningState.obj
 0002:fffc9010       __tryblocktable$??$?6U?$char_traits@D@std@@@std@@YAAAV?$basic_ostream@DU?$char_traits@D@std@@@0@AAV10@PBD@Z 00400010     SimpleImage.obj
 0001:fffff014       __ehhandler$?get@ImageManager@@SAPAV1@XZ 00400014 f   AdvancedTileManager.obj
 0001:fffff014       __ehhandler$?get@ImageManager@@SAPAV1@XZ 00400014 f   Bullet.obj
 0001:fffff014       __ehhandler$?get@ImageManager@@SAPAV1@XZ 00400014 f   GameEngine.obj
 0001:fffff014       __ehhandler$?get@ImageManager@@SAPAV1@XZ 00400014 f   GameMainObject.obj
 0001:fffff014       __ehhandler$?get@ImageManager@@SAPAV1@XZ 00400014 f   Guard.obj
 0001:fffff014       __ehhandler$?get@ImageManager@@SAPAV1@XZ 00400014 f   RunningState.obj
 0001:fffff015       __ehhandler$??0?$basic_string@DU?$char_traits@D@std@@V?$allocator@D@2@@std@@QAE@ABV01@@Z 00400015 f   AdvancedTileManager.obj
 0001:fffff015       __ehhandler$??0?$basic_string@DU?$char_traits@D@std@@V?$allocator@D@2@@std@@QAE@QBD@Z 00400015 f   AdvancedTileManager.obj
 0001:fffff015       __ehhandler$?loadImage@ImageManager@@SA?AVSimpleImage@@V?$basic_string@DU?$char_traits@D@std@@V?$allocator@D@2@@std@@_N@Z 00400015 f   AdvancedTileManager.obj
 0001:fffff015       __ehhandler$??0?$basic_string@DU?$char_traits@D@std@@V?$allocator@D@2@@std@@QAE@ABV01@@Z 00400015 f   Bullet.obj
 0001:fffff015       __ehhandler$??0?$basic_string@DU?$char_traits@D@std@@V?$allocator@D@2@@std@@QAE@QBD@Z 00400015 f   Bullet.obj
 0001:fffff015       __ehhandler$?loadImage@ImageManager@@SA?AVSimpleImage@@V?$basic_string@DU?$char_traits@D@std@@V?$allocator@D@2@@std@@_N@Z 00400015 f   Bullet.obj
 0001:fffff015       __ehhandler$??0?$basic_string@DU?$char_traits@D@std@@V?$allocator@D@2@@std@@QAE@ABV01@@Z 00400015 f   GameEngine.obj
 0001:fffff015       __ehhandler$??0?$basic_string@DU?$char_traits@D@std@@V?$allocator@D@2@@std@@QAE@QBD@Z 00400015 f   GameEngine.obj
 0001:fffff015       __ehhandler$?loadImage@ImageManager@@SA?AVSimpleImage@@V?$basic_string@DU?$char_traits@D@std@@V?$allocator@D@2@@std@@_N@Z 00400015 f   GameEngine.obj
 0001:fffff015       __ehhandler$?setAllObjectsVisible@DisplayableObjectContainer@@QBEX_N@Z 00400015 f   GameEngine.obj
 0001:fffff015       __ehhandler$??0?$basic_string@DU?$char_traits@D@std@@V?$allocator@D@2@@std@@QAE@ABV01@@Z 00400015 f   GameMainObject.obj
 0001:fffff015       __ehhandler$??0?$basic_string@DU?$char_traits@D@std@@V?$allocator@D@2@@std@@QAE@QBD@Z 00400015 f   GameMainObject.obj
 0001:fffff015       __ehhandler$?loadImage@ImageManager@@SA?AVSimpleImage@@V?$basic_string@DU?$char_traits@D@std@@V?$allocator@D@2@@std@@_N@Z 00400015 f   GameMainObject.obj
 0001:fffff015       __ehhandler$??0?$basic_string@DU?$char_traits@D@std@@V?$allocator@D@2@@std@@QAE@ABV01@@Z 00400015 f   Guard.obj
 0001:fffff015       __ehhandler$??0?$basic_string@DU?$char_traits@D@std@@V?$allocator@D@2@@std@@QAE@QBD@Z 00400015 f   Guard.obj
 0001:fffff015       __ehhandler$?loadImage@ImageManager@@SA?AVSimpleImage@@V?$basic_string@DU?$char_traits@D@std@@V?$allocator@D@2@@std@@_N@Z 00400015 f   Guard.obj
 0001:fffff015       __ehhandler$??0?$basic_string@DU?$char_traits@D@std@@V?$allocator@D@2@@std@@QAE@ABV01@@Z 00400015 f   RunningState.obj
 0001:fffff015       __ehhandler$??0?$basic_string@DU?$char_traits@D@std@@V?$allocator@D@2@@std@@QAE@QBD@Z 00400015 f   RunningState.obj
 0001:fffff015       __ehhandler$?loadImage@ImageManager@@SA?AVSimpleImage@@V?$basic_string@DU?$char_traits@D@std@@V?$allocator@D@2@@std@@_N@Z 00400015 f   RunningState.obj
 0001:fffff018       __ehhandler$??0ImageManager@@QAE@XZ 00400018 f   AdvancedTileManager.obj
 0001:fffff018       __ehhandler$??0ImageManager@@QAE@XZ 00400018 f   Bullet.obj
 0001:fffff018       __ehhandler$??0ImageManager@@QAE@XZ 00400018 f   GameEngine.obj
 0001:fffff018       __ehhandler$??0ImageManager@@QAE@XZ 00400018 f   GameMainObject.obj
 0001:fffff018       __ehhandler$??0ImageManager@@QAE@XZ 00400018 f   Guard.obj
 0001:fffff018       __ehhandler$??0ImageManager@@QAE@XZ 00400018 f   RunningState.obj
 0001:fffff01b       __unwindfunclet$?getImagePtrbyURL@ImageManager@@QAE?AV?$shared_ptr@VRawImageData@@@std@@V?$basic_string@DU?$char_traits@D@std@@V?$allocator@D@2@@3@_N1@Z$9 0040001b f   AdvancedTileManager.obj
 0001:fffff01b       __unwindfunclet$?getImagePtrbyURL@ImageManager@@QAE?AV?$shared_ptr@VRawImageData@@@std@@V?$basic_string@DU?$char_traits@D@std@@V?$allocator@D@2@@3@_N1@Z$9 0040001b f   Bullet.obj
 0001:fffff01b       __unwindfunclet$?getImagePtrbyURL@ImageManager@@QAE?AV?$shared_ptr@VRawImageData@@@std@@V?$basic_string@DU?$char_traits@D@std@@V?$allocator@D@2@@3@_N1@Z$9 0040001b f   GameEngine.obj
 0001:fffff01b       __unwindfunclet$?getImagePtrbyURL@ImageManager@@QAE?AV?$shared_ptr@VRawImageData@@@std@@V?$basic_string@DU?$char_traits@D@std@@V?$allocator@D@2@@3@_N1@Z$9 0040001b f   GameMainObject.obj
 0001:fffff01b       __unwindfunclet$?getImagePtrbyURL@ImageManager@@QAE?AV?$shared_ptr@VRawImageData@@@std@@V?$basic_string@DU?$char_traits@D@std@@V?$allocator@D@2@@3@_N1@Z$9 0040001b f   Guard.obj
 0001:fffff01b       __unwindfunclet$?getImagePtrbyURL@ImageManager@@QAE?AV?$shared_ptr@VRawImageData@@@std@@V?$basic_string@DU?$char_traits@D@std@@V?$allocator@D@2@@3@_N1@Z$9 0040001b f   RunningState.obj
 0001:fffff01c       __ehhandler$??$?0VRawImageData@@$0A@@?$shared_ptr@VRawImageData@@@std@@QAE@PAVRawImageData@@@Z 0040001c f   AdvancedTileManager.obj
 0001:fffff01c       __ehhandler$?loadAsNew@ImageManager@@QAE?AV?$shared_ptr@VRawImageData@@@std@@V?$basic_string@DU?$char_traits@D@std@@V?$allocator@D@2@@3@@Z 0040001c f   AdvancedTileManager.obj
 0001:fffff01c       __ehhandler$??$?0VRawImageData@@$0A@@?$shared_ptr@VRawImageData@@@std@@QAE@PAVRawImageData@@@Z 0040001c f   Bullet.obj
 0001:fffff01c       __ehhandler$?loadAsNew@ImageManager@@QAE?AV?$shared_ptr@VRawImageData@@@std@@V?$basic_string@DU?$char_traits@D@std@@V?$allocator@D@2@@3@@Z 0040001c f   Bullet.obj
 0001:fffff01c       __ehhandler$??$?0VRawImageData@@$0A@@?$shared_ptr@VRawImageData@@@std@@QAE@PAVRawImageData@@@Z 0040001c f   GameEngine.obj
 0001:fffff01c       __ehhandler$?loadAsNew@ImageManager@@QAE?AV?$shared_ptr@VRawImageData@@@std@@V?$basic_string@DU?$char_traits@D@std@@V?$allocator@D@2@@3@@Z 0040001c f   GameEngine.obj
 0001:fffff01c       __ehhandler$??$?0VRawImageData@@$0A@@?$shared_ptr@VRawImageData@@@std@@QAE@PAVRawImageData@@@Z 0040001c f   GameMainObject.obj
 0001:fffff01c       __ehhandler$?loadAsNew@ImageManager@@QAE?AV?$shared_ptr@VRawImageData@@@std@@V?$basic_string@DU?$char_traits@D@std@@V?$allocator@D@2@@3@@Z 0040001c f   GameMainObject.obj
 0001:fffff01c       __ehhandler$??$?0VRawImageData@@$0A@@?$shared_ptr@VRawImageData@@@std@@QAE@PAVRawImageData@@@Z 0040001c f   Guard.obj
 0001:fffff01c       __ehhandler$?loadAsNew@ImageManager@@QAE?AV?$shared_ptr@VRawImageData@@@std@@V?$basic_string@DU?$char_traits@D@std@@V?$allocator@D@2@@3@@Z 0040001c f   Guard.obj
 0001:fffff01c       __ehhandler$??$?0VRawImageData@@$0A@@?$shared_ptr@VRawImageData@@@std@@QAE@PAVRawImageData@@@Z 0040001c f   RunningState.obj
 0001:fffff01c       __ehhandler$?loadAsNew@ImageManager@@QAE?AV?$shared_ptr@VRawImageData@@@std@@V?$basic_string@DU?$char_traits@D@std@@V?$allocator@D@2@@3@@Z 0040001c f   RunningState.obj
 0001:fffff023       __unwindfunclet$?getImagePtrbyURL@ImageManager@@QAE?AV?$shared_ptr@VRawImageData@@@std@@V?$basic_string@DU?$char_traits@D@std@@V?$allocator@D@2@@3@_N1@Z$10 00400023 f   AdvancedTileManager.obj
 0001:fffff023       __unwindfunclet$?getImagePtrbyURL@ImageManager@@QAE?AV?$shared_ptr@VRawImageData@@@std@@V?$basic_string@DU?$char_traits@D@std@@V?$allocator@D@2@@3@_N1@Z$10 00400023 f   Bullet.obj
 0001:fffff023       __unwindfunclet$?getImagePtrbyURL@ImageManager@@QAE?AV?$shared_ptr@VRawImageData@@@std@@V?$basic_string@DU?$char_traits@D@std@@V?$allocator@D@2@@3@_N1@Z$10 00400023 f   GameEngine.obj
 0001:fffff023       __unwindfunclet$?getImagePtrbyURL@ImageManager@@QAE?AV?$shared_ptr@VRawImageData@@@std@@V?$basic_string@DU?$char_traits@D@std@@V?$allocator@D@2@@3@_N1@Z$10 00400023 f   GameMainObject.obj
 0001:fffff023       __unwindfunclet$?getImagePtrbyURL@ImageManager@@QAE?AV?$shared_ptr@VRawImageData@@@std@@V?$basic_string@DU?$char_traits@D@std@@V?$allocator@D@2@@3@_N1@Z$10 00400023 f   Guard.obj
 0001:fffff023       __unwindfunclet$?getImagePtrbyURL@ImageManager@@QAE?AV?$shared_ptr@VRawImageData@@@std@@V?$basic_string@DU?$char_traits@D@std@@V?$allocator@D@2@@3@_N1@Z$10 00400023 f   RunningState.obj
 0002:fffc9024       __unwindtable$??$?6U?$char_traits@D@std@@@std@@YAAAV?$basic_ostream@DU?$char_traits@D@std@@@0@AAV10@PBD@Z 00400024     AdvancedTileManager.obj
 0002:fffc9024       __unwindtable$??$_Insert_string@DU?$char_traits@D@std@@I@std@@YAAAV?$basic_ostream@DU?$char_traits@D@std@@@0@AAV10@QBDI@Z 00400024     AdvancedTileManager.obj
 0002:fffc9024       __unwindtable$?getImagePtrbyURL@ImageManager@@QAE?AV?$shared_ptr@VRawImageData@@@std@@V?$basic_string@DU?$char_traits@D@std@@V?$allocator@D@2@@3@_N1@Z 00400024     AdvancedTileManager.obj
 0002:fffc9024       __unwindtable$??$?6U?$char_traits@D@std@@@std@@YAAAV?$basic_ostream@DU?$char_traits@D@std@@@0@AAV10@PBD@Z 00400024     Bullet.obj
 0002:fffc9024       __unwindtable$??$_Insert_string@DU?$char_traits@D@std@@I@std@@YAAAV?$basic_ostream@DU?$char_traits@D@std@@@0@AAV10@QBDI@Z 00400024     Bullet.obj
 0002:fffc9024       __unwindtable$?getImagePtrbyURL@ImageManager@@QAE?AV?$shared_ptr@VRawImageData@@@std@@V?$basic_string@DU?$char_traits@D@std@@V?$allocator@D@2@@3@_N1@Z 00400024     Bullet.obj
 0002:fffc9024       __unwindtable$??$?6U?$char_traits@D@std@@@std@@YAAAV?$basic_ostream@DU?$char_traits@D@std@@@0@AAV10@PBD@Z 00400024     DisplayableObject.obj
 0002:fffc9024       __unwindtable$??$?6U?$char_traits@D@std@@@std@@YAAAV?$basic_ostream@DU?$char_traits@D@std@@@0@AAV10@PBD@Z 00400024     DrawingSurface.obj
 0002:fffc9024       __unwindtable$??$?6U?$char_traits@D@std@@@std@@YAAAV?$basic_ostream@DU?$char_traits@D@std@@@0@AAV10@PBD@Z 00400024     GameEngine.obj
 0002:fffc9024       __unwindtable$??$_Insert_string@DU?$char_traits@D@std@@I@std@@YAAAV?$basic_ostream@DU?$char_traits@D@std@@@0@AAV10@QBDI@Z 00400024     GameEngine.obj
 0002:fffc9024       __unwindtable$?getImagePtrbyURL@ImageManager@@QAE?AV?$shared_ptr@VRawImageData@@@std@@V?$basic_string@DU?$char_traits@D@std@@V?$allocator@D@2@@3@_N1@Z 00400024     GameEngine.obj
 0002:fffc9024       __unwindtable$??$?6U?$char_traits@D@std@@@std@@YAAAV?$basic_ostream@DU?$char_traits@D@std@@@0@AAV10@PBD@Z 00400024     GameMainObject.obj
 0002:fffc9024       __unwindtable$??$_Insert_string@DU?$char_traits@D@std@@I@std@@YAAAV?$basic_ostream@DU?$char_traits@D@std@@@0@AAV10@QBDI@Z 00400024     GameMainObject.obj
 0002:fffc9024       __unwindtable$?getImagePtrbyURL@ImageManager@@QAE?AV?$shared_ptr@VRawImageData@@@std@@V?$basic_string@DU?$char_traits@D@std@@V?$allocator@D@2@@3@_N1@Z 00400024     GameMainObject.obj
 0002:fffc9024       __unwindtable$??$?6U?$char_traits@D@std@@@std@@YAAAV?$basic_ostream@DU?$char_traits@D@std@@@0@AAV10@PBD@Z 00400024     Guard.obj
 0002:fffc9024       __unwindtable$??$_Insert_string@DU?$char_traits@D@std@@I@std@@YAAAV?$basic_ostream@DU?$char_traits@D@std@@@0@AAV10@QBDI@Z 00400024     Guard.obj
 0002:fffc9024       __unwindtable$?getImagePtrbyURL@ImageManager@@QAE?AV?$shared_ptr@VRawImageData@@@std@@V?$basic_string@DU?$char_traits@D@std@@V?$allocator@D@2@@3@_N1@Z 00400024     Guard.obj
 0002:fffc9024       __unwindtable$??$?6U?$char_traits@D@std@@@std@@YAAAV?$basic_ostream@DU?$char_traits@D@std@@@0@AAV10@PBD@Z 00400024     RunningState.obj
 0002:fffc9024       __unwindtable$??$_Insert_string@DU?$char_traits@D@std@@I@std@@YAAAV?$basic_ostream@DU?$char_traits@D@std@@@0@AAV10@QBDI@Z 00400024     RunningState.obj
 0002:fffc9024       __unwindtable$?getImagePtrbyURL@ImageManager@@QAE?AV?$shared_ptr@VRawImageData@@@std@@V?$basic_string@DU?$char_traits@D@std@@V?$allocator@D@2@@3@_N1@Z 00400024     RunningState.obj
 0002:fffc9024       __unwindtable$??$?6U?$char_traits@D@std@@@std@@YAAAV?$basic_ostream@DU?$char_traits@D@std@@@0@AAV10@PBD@Z 00400024     SimpleImage.obj
 0001:fffff02e       __unwindfunclet$?getImagePtrbyURL@ImageManager@@QAE?AV?$shared_ptr@VRawImageData@@@std@@V?$basic_string@DU?$char_traits@D@std@@V?$allocator@D@2@@3@_N1@Z$11 0040002e f   AdvancedTileManager.obj
 0001:fffff02e       __unwindfunclet$?getImagePtrbyURL@ImageManager@@QAE?AV?$shared_ptr@VRawImageData@@@std@@V?$basic_string@DU?$char_traits@D@std@@V?$allocator@D@2@@3@_N1@Z$11 0040002e f   Bullet.obj
 0001:fffff02e       __unwindfunclet$?getImagePtrbyURL@ImageManager@@QAE?AV?$shared_ptr@VRawImageData@@@std@@V?$basic_string@DU?$char_traits@D@std@@V?$allocator@D@2@@3@_N1@Z$11 0040002e f   GameEngine.obj
 0001:fffff02e       __unwindfunclet$?getImagePtrbyURL@ImageManager@@QAE?AV?$shared_ptr@VRawImageData@@@std@@V?$basic_string@DU?$char_traits@D@std@@V?$allocator@D@2@@3@_N1@Z$11 0040002e f   GameMainObject.obj
 0001:fffff02e       __unwindfunclet$?getImagePtrbyURL@ImageManager@@QAE?AV?$shared_ptr@VRawImageData@@@std@@V?$basic_string@DU?$char_traits@D@std@@V?$allocator@D@2@@3@_N1@Z$11 0040002e f   Guard.obj
 0001:fffff02e       __unwindfunclet$?getImagePtrbyURL@ImageManager@@QAE?AV?$shared_ptr@VRawImageData@@@std@@V?$basic_string@DU?$char_traits@D@std@@V?$allocator@D@2@@3@_N1@Z$11 0040002e f   RunningState.obj
 0001:fffff036       __unwindfunclet$?getImagePtrbyURL@ImageManager@@QAE?AV?$shared_ptr@VRawImageData@@@std@@V?$basic_string@DU?$char_traits@D@std@@V?$allocator@D@2@@3@_N1@Z$13 00400036 f   AdvancedTileManager.obj
 0001:fffff036       __unwindfunclet$?getImagePtrbyURL@ImageManager@@QAE?AV?$shared_ptr@VRawImageData@@@std@@V?$basic_string@DU?$char_traits@D@std@@V?$allocator@D@2@@3@_N1@Z$13 00400036 f   Bullet.obj
 0001:fffff036       __unwindfunclet$?getImagePtrbyURL@ImageManager@@QAE?AV?$shared_ptr@VRawImageData@@@std@@V?$basic_string@DU?$char_traits@D@std@@V?$allocator@D@2@@3@_N1@Z$13 00400036 f   GameEngine.obj
 0001:fffff036       __unwindfunclet$?getImagePtrbyURL@ImageManager@@QAE?AV?$shared_ptr@VRawImageData@@@std@@V?$basic_string@DU?$char_traits@D@std@@V?$allocator@D@2@@3@_N1@Z$13 00400036 f   GameMainObject.obj
 0001:fffff036       __unwindfunclet$?getImagePtrbyURL@ImageManager@@QAE?AV?$shared_ptr@VRawImageData@@@std@@V?$basic_string@DU?$char_traits@D@std@@V?$allocator@D@2@@3@_N1@Z$13 00400036 f   Guard.obj
 0001:fffff036       __unwindfunclet$?getImagePtrbyURL@ImageManager@@QAE?AV?$shared_ptr@VRawImageData@@@std@@V?$basic_string@DU?$char_traits@D@std@@V?$allocator@D@2@@3@_N1@Z$13 00400036 f   RunningState.obj
 0002:fffc903c       __ehfuncinfo$??$?6U?$char_traits@D@std@@@std@@YAAAV?$basic_ostream@DU?$char_traits@D@std@@@0@AAV10@PBD@Z 0040003c     AdvancedTileManager.obj
 0002:fffc903c       __ehfuncinfo$??$_Insert_string@DU?$char_traits@D@std@@I@std@@YAAAV?$basic_ostream@DU?$char_traits@D@std@@@0@AAV10@QBDI@Z 0040003c     AdvancedTileManager.obj
 0002:fffc903c       __ehfuncinfo$??$?6U?$char_traits@D@std@@@std@@YAAAV?$basic_ostream@DU?$char_traits@D@std@@@0@AAV10@PBD@Z 0040003c     Bullet.obj
 0002:fffc903c       __ehfuncinfo$??$_Insert_string@DU?$char_traits@D@std@@I@std@@YAAAV?$basic_ostream@DU?$char_traits@D@std@@@0@AAV10@QBDI@Z 0040003c     Bullet.obj
 0002:fffc903c       __ehfuncinfo$??$?6U?$char_traits@D@std@@@std@@YAAAV?$basic_ostream@DU?$char_traits@D@std@@@0@AAV10@PBD@Z 0040003c     DisplayableObject.obj
 0002:fffc903c       __ehfuncinfo$??$?6U?$char_traits@D@std@@@std@@YAAAV?$basic_ostream@DU?$char_traits@D@std@@@0@AAV10@PBD@Z 0040003c     DrawingSurface.obj
 0002:fffc903c       __ehfuncinfo$??$?6U?$char_traits@D@std@@@std@@YAAAV?$basic_ostream@DU?$char_traits@D@std@@@0@AAV10@PBD@Z 0040003c     GameEngine.obj
 0002:fffc903c       __ehfuncinfo$??$_Insert_string@DU?$char_traits@D@std@@I@std@@YAAAV?$basic_ostream@DU?$char_traits@D@std@@@0@AAV10@QBDI@Z 0040003c     GameEngine.obj
 0002:fffc903c       __ehfuncinfo$??$?6U?$char_traits@D@std@@@std@@YAAAV?$basic_ostream@DU?$char_traits@D@std@@@0@AAV10@PBD@Z 0040003c     GameMainObject.obj
 0002:fffc903c       __ehfuncinfo$??$_Insert_string@DU?$char_traits@D@std@@I@std@@YAAAV?$basic_ostream@DU?$char_traits@D@std@@@0@AAV10@QBDI@Z 0040003c     GameMainObject.obj
 0002:fffc903c       __ehfuncinfo$??$?6U?$char_traits@D@std@@@std@@YAAAV?$basic_ostream@DU?$char_traits@D@std@@@0@AAV10@PBD@Z 0040003c     Guard.obj
 0002:fffc903c       __ehfuncinfo$??$_Insert_string@DU?$char_traits@D@std@@I@std@@YAAAV?$basic_ostream@DU?$char_traits@D@std@@@0@AAV10@QBDI@Z 0040003c     Guard.obj
 0002:fffc903c       __ehfuncinfo$??$?6U?$char_traits@D@std@@@std@@YAAAV?$basic_ostream@DU?$char_traits@D@std@@@0@AAV10@PBD@Z 0040003c     RunningState.obj
 0002:fffc903c       __ehfuncinfo$??$_Insert_string@DU?$char_traits@D@std@@I@std@@YAAAV?$basic_ostream@DU?$char_traits@D@std@@@0@AAV10@QBDI@Z 0040003c     RunningState.obj
 0002:fffc903c       __ehfuncinfo$??$?6U?$char_traits@D@std@@@std@@YAAAV?$basic_ostream@DU?$char_traits@D@std@@@0@AAV10@PBD@Z 0040003c     SimpleImage.obj
 0001:fffff043       __ehhandler$?getImagePtrbyURL@ImageManager@@QAE?AV?$shared_ptr@VRawImageData@@@std@@V?$basic_string@DU?$char_traits@D@std@@V?$allocator@D@2@@3@_N1@Z 00400043 f   AdvancedTileManager.obj
 0001:fffff043       __ehhandler$?getImagePtrbyURL@ImageManager@@QAE?AV?$shared_ptr@VRawImageData@@@std@@V?$basic_string@DU?$char_traits@D@std@@V?$allocator@D@2@@3@_N1@Z 00400043 f   Bullet.obj
 0001:fffff043       __ehhandler$?getImagePtrbyURL@ImageManager@@QAE?AV?$shared_ptr@VRawImageData@@@std@@V?$basic_string@DU?$char_traits@D@std@@V?$allocator@D@2@@3@_N1@Z 00400043 f   GameEngine.obj
 0001:fffff043       __ehhandler$?getImagePtrbyURL@ImageManager@@QAE?AV?$shared_ptr@VRawImageData@@@std@@V?$basic_string@DU?$char_traits@D@std@@V?$allocator@D@2@@3@_N1@Z 00400043 f   GameMainObject.obj
 0001:fffff043       __ehhandler$?getImagePtrbyURL@ImageManager@@QAE?AV?$shared_ptr@VRawImageData@@@std@@V?$basic_string@DU?$char_traits@D@std@@V?$allocator@D@2@@3@_N1@Z 00400043 f   Guard.obj
 0001:fffff043       __ehhandler$?getImagePtrbyURL@ImageManager@@QAE?AV?$shared_ptr@VRawImageData@@@std@@V?$basic_string@DU?$char_traits@D@std@@V?$allocator@D@2@@3@_N1@Z 00400043 f   RunningState.obj
 0001:fffff25f       __catch$??$_Insert_string@DU?$char_traits@D@std@@I@std@@YAAAV?$basic_ostream@DU?$char_traits@D@std@@@0@AAV10@QBDI@Z$0 0040025f f   AdvancedTileManager.obj
 0001:fffff25f       __catch$??$_Insert_string@DU?$char_traits@D@std@@I@std@@YAAAV?$basic_ostream@DU?$char_traits@D@std@@@0@AAV10@QBDI@Z$0 0040025f f   Bullet.obj
 0001:fffff25f       __catch$??$_Insert_string@DU?$char_traits@D@std@@I@std@@YAAAV?$basic_ostream@DU?$char_traits@D@std@@@0@AAV10@QBDI@Z$0 0040025f f   GameEngine.obj
 0001:fffff25f       __catch$??$_Insert_string@DU?$char_traits@D@std@@I@std@@YAAAV?$basic_ostream@DU?$char_traits@D@std@@@0@AAV10@QBDI@Z$0 0040025f f   GameMainObject.obj
 0001:fffff25f       __catch$??$_Insert_string@DU?$char_traits@D@std@@I@std@@YAAAV?$basic_ostream@DU?$char_traits@D@std@@@0@AAV10@QBDI@Z$0 0040025f f   Guard.obj
 0001:fffff25f       __catch$??$_Insert_string@DU?$char_traits@D@std@@I@std@@YAAAV?$basic_ostream@DU?$char_traits@D@std@@@0@AAV10@QBDI@Z$0 0040025f f   RunningState.obj
 0001:fffff2ba       __catch$??$?6U?$char_traits@D@std@@@std@@YAAAV?$basic_ostream@DU?$char_traits@D@std@@@0@AAV10@PBD@Z$0 004002ba f   AdvancedTileManager.obj
 0001:fffff2ba       __catch$??$?6U?$char_traits@D@std@@@std@@YAAAV?$basic_ostream@DU?$char_traits@D@std@@@0@AAV10@PBD@Z$0 004002ba f   Bullet.obj
 0001:fffff2ba       __catch$??$?6U?$char_traits@D@std@@@std@@YAAAV?$basic_ostream@DU?$char_traits@D@std@@@0@AAV10@PBD@Z$0 004002ba f   DisplayableObject.obj
 0001:fffff2ba       __catch$??$?6U?$char_traits@D@std@@@std@@YAAAV?$basic_ostream@DU?$char_traits@D@std@@@0@AAV10@PBD@Z$0 004002ba f   DrawingSurface.obj
 0001:fffff2ba       __catch$??$?6U?$char_traits@D@std@@@std@@YAAAV?$basic_ostream@DU?$char_traits@D@std@@@0@AAV10@PBD@Z$0 004002ba f   GameEngine.obj
 0001:fffff2ba       __catch$??$?6U?$char_traits@D@std@@@std@@YAAAV?$basic_ostream@DU?$char_traits@D@std@@@0@AAV10@PBD@Z$0 004002ba f   GameMainObject.obj
 0001:fffff2ba       __catch$??$?6U?$char_traits@D@std@@@std@@YAAAV?$basic_ostream@DU?$char_traits@D@std@@@0@AAV10@PBD@Z$0 004002ba f   Guard.obj
 0001:fffff2ba       __catch$??$?6U?$char_traits@D@std@@@std@@YAAAV?$basic_ostream@DU?$char_traits@D@std@@@0@AAV10@PBD@Z$0 004002ba f   RunningState.obj
 0001:fffff2ba       __catch$??$?6U?$char_traits@D@std@@@std@@YAAAV?$basic_ostream@DU?$char_traits@D@std@@@0@AAV10@PBD@Z$0 004002ba f   SimpleImage.obj
 0001:00003130       ??__F_Fac_tidy_reg@std@@YAXXZ 00404130 f   msvcprtd:locale0_implib.obj
 0001:00005c0c       $LN46                      00406c0c     Boss.obj
 0001:00005f78       $LN22                      00406f78     Boss.obj
 0001:00005f88       $LN23                      00406f88     Boss.obj
 0001:0000761a       __catch$??$?6U?$char_traits@D@std@@@std@@YAAAV?$basic_ostream@DU?$char_traits@D@std@@@0@AAV10@PBD@Z$0 0040861a f i Boss.obj
 0001:0000898a       __catch$??$_Emplace_reallocate@ABUPoint@Boss@@@?$vector@UPoint@Boss@@V?$allocator@UPoint@Boss@@@std@@@std@@QAEPAUPoint@Boss@@QAU23@ABU23@@Z$0 0040998a f i Boss.obj
 0001:000093cf       __catch$??$_Insert_string@DU?$char_traits@D@std@@I@std@@YAAAV?$basic_ostream@DU?$char_traits@D@std@@@0@AAV10@QBDI@Z$0 0040a3cf f i Boss.obj
 0001:00010fe8       $LN10                      00411fe8     Boss.obj
 0001:000110e8       $LN10                      004120e8     Boss.obj
 0001:00012658       $LN31                      00413658     Bullet.obj
 0001:0001733c       $LN53                      0041833c     EndState.obj
 0001:000173d8       $LN52                      004183d8     EndState.obj
 0001:000185f0       $LN32                      004195f0     Guard.obj
 0001:00018ad4       $LN36                      00419ad4     Guard.obj
 0001:00018ae4       $LN37                      00419ae4     Guard.obj
 0001:00018e98       $LN22                      00419e98     Guard.obj
 0001:00018ea8       $LN23                      00419ea8     Guard.obj
 0001:000196c0       _time                      0041a6c0 f   mainfunction.obj
 0001:0001aaa0       $LN46                      0041baa0     BaseEngine.obj
 0001:0001b710       ??$for_each@V?$_Vector_iterator@V?$_Vector_val@U?$_Simple_types@PAVDisplayableObject@@@std@@@std@@@std@@V<lambda_2d496414b0c7d43f4e487792af6f686a>@@@std@@YA?AV<lambda_2d496414b0c7d43f4e487792af6f686a>@@V?$_Vector_iterator@V?$_Vector_val@U?$_Simple_types@PAVDisplayableObject@@@std@@@std@@@0@0V1@@Z 0041c710 f   BaseEngine.obj
 0001:0001b800       ??$for_each@V?$_Vector_iterator@V?$_Vector_val@U?$_Simple_types@PAVDisplayableObject@@@std@@@std@@@std@@V<lambda_3bf13a20ebaf36ed7ec66e97340dd9ba>@@@std@@YA?AV<lambda_3bf13a20ebaf36ed7ec66e97340dd9ba>@@V?$_Vector_iterator@V?$_Vector_val@U?$_Simple_types@PAVDisplayableObject@@@std@@@std@@@0@0V1@@Z 0041c800 f   BaseEngine.obj
 0001:0001b8e0       ??$for_each@V?$_Vector_iterator@V?$_Vector_val@U?$_Simple_types@PAVDisplayableObject@@@std@@@std@@@std@@V<lambda_4814087fedc56a938eeabe39b7d4bf7e>@@@std@@YA?AV<lambda_4814087fedc56a938eeabe39b7d4bf7e>@@V?$_Vector_iterator@V?$_Vector_val@U?$_Simple_types@PAVDisplayableObject@@@std@@@std@@@0@0V1@@Z 0041c8e0 f   BaseEngine.obj
 0001:0001b9d0       ??$for_each@V?$_Vector_iterator@V?$_Vector_val@U?$_Simple_types@PAVDisplayableObject@@@std@@@std@@@std@@V<lambda_7e9f32a5da7c3beed7c2ce913dec1468>@@@std@@YA?AV<lambda_7e9f32a5da7c3beed7c2ce913dec1468>@@V?$_Vector_iterator@V?$_Vector_val@U?$_Simple_types@PAVDisplayableObject@@@std@@@std@@@0@0V1@@Z 0041c9d0 f   BaseEngine.obj
 0001:0001bab0       ??$for_each@V?$_Vector_iterator@V?$_Vector_val@U?$_Simple_types@PAVDisplayableObject@@@std@@@std@@@std@@V<lambda_c25f24c7a8fdeae876666db68ecaf488>@@@std@@YA?AV<lambda_c25f24c7a8fdeae876666db68ecaf488>@@V?$_Vector_iterator@V?$_Vector_val@U?$_Simple_types@PAVDisplayableObject@@@std@@@std@@@0@0V1@@Z 0041cab0 f   BaseEngine.obj
 0001:0001bba0       ??0<lambda_2d496414b0c7d43f4e487792af6f686a>@@QAE@ABQATSDL_Event@@QAVBaseEngine@@@Z 0041cba0 f   BaseEngine.obj
 0001:0001bbd0       ??0<lambda_3bf13a20ebaf36ed7ec66e97340dd9ba>@@QAE@ABQATSDL_Event@@@Z 0041cbd0 f   BaseEngine.obj
 0001:0001bbf0       ??0<lambda_4814087fedc56a938eeabe39b7d4bf7e>@@QAE@ABQATSDL_Event@@QAVBaseEngine@@@Z 0041cbf0 f   BaseEngine.obj
 0001:0001bc20       ??0<lambda_7e9f32a5da7c3beed7c2ce913dec1468>@@QAE@ABQATSDL_Event@@@Z 0041cc20 f   BaseEngine.obj
 0001:0001bc40       ??0<lambda_c25f24c7a8fdeae876666db68ecaf488>@@QAE@QAVBaseEngine@@@Z 0041cc40 f   BaseEngine.obj
 0001:0001c490       ??R<lambda_2d496414b0c7d43f4e487792af6f686a>@@QBE@PAVDisplayableObject@@@Z 0041d490 f   BaseEngine.obj
 0001:0001c4e0       ??R<lambda_3bf13a20ebaf36ed7ec66e97340dd9ba>@@QBE@PAVDisplayableObject@@@Z 0041d4e0 f   BaseEngine.obj
 0001:0001c520       ??R<lambda_4814087fedc56a938eeabe39b7d4bf7e>@@QBE@PAVDisplayableObject@@@Z 0041d520 f   BaseEngine.obj
 0001:0001c570       ??R<lambda_7e9f32a5da7c3beed7c2ce913dec1468>@@QBE@PAVDisplayableObject@@@Z 0041d570 f   BaseEngine.obj
 0001:0001c5b0       ??R<lambda_c25f24c7a8fdeae876666db68ecaf488>@@QBE@PAVDisplayableObject@@@Z 0041d5b0 f   BaseEngine.obj
 0001:0001d320       $LN53                      0041e320     BaseEngine.obj
 0001:0001d33c       $LN52                      0041e33c     BaseEngine.obj
 0001:0001d3b4       $LN55                      0041e3b4     BaseEngine.obj
 0001:0001d450       $LN54                      0041e450     BaseEngine.obj
 0001:000218bc       $LN21                      004228bc     GameEngine.obj
 0001:00023f37       __catch$??$?5DU?$char_traits@D@std@@V?$allocator@D@1@@std@@YAAAV?$basic_istream@DU?$char_traits@D@std@@@0@$$QAV10@AAV?$basic_string@DU?$char_traits@D@std@@V?$allocator@D@2@@0@@Z$0 00424f37 f i GameEngine.obj
 0001:000242ea       __catch$??$_Emplace_reallocate@ABQAVDisplayableObject@@@?$vector@PAVDisplayableObject@@V?$allocator@PAVDisplayableObject@@@std@@@std@@QAEPAPAVDisplayableObject@@QAPAV2@ABQAV2@@Z$0 004252ea f i GameEngine.obj
 0001:000249fd       __catch$??$getline@DU?$char_traits@D@std@@V?$allocator@D@2@@std@@YAAAV?$basic_istream@DU?$char_traits@D@std@@@0@$$QAV10@AAV?$basic_string@DU?$char_traits@D@std@@V?$allocator@D@2@@0@D@Z$0 004259fd f i GameEngine.obj
 0001:00028d9c       $LN22                      00429d9c     GameMainObject.obj
 0001:00028dac       $LN23                      00429dac     GameMainObject.obj
 0001:00029a38       $LN10                      0042aa38     GameMainObject.obj
 0001:00029aa8       $LN10                      0042aaa8     GameMainObject.obj
 0001:0002a5a4       $LN28                      0042b5a4     AdvancedTileManager.obj
 0001:0002a5d4       $LN27                      0042b5d4     AdvancedTileManager.obj
 0001:0002a5ec       $LN29                      0042b5ec     AdvancedTileManager.obj
 0001:0002cc00       _time                      0042dc00 f   StartState.obj
 0001:0002d570       ?pre_c_initialization@@YAHXZ 0042e570 f   MSVCRTD:exe_main.obj
 0001:0002d650       ?post_pgo_initialization@@YAHXZ 0042e650 f   MSVCRTD:exe_main.obj
 0001:0002d660       ?pre_cpp_initialization@@YAXXZ 0042e660 f   MSVCRTD:exe_main.obj
 0001:0002d680       ?__scrt_common_main@@YAHXZ 0042e680 f   MSVCRTD:exe_main.obj
 0001:0002d6a0       ?__scrt_common_main_seh@@YAHXZ 0042e6a0 f   MSVCRTD:exe_main.obj
 0001:0002d970       ?invoke_main@@YAHXZ        0042e970 f   MSVCRTD:exe_main.obj
 0001:0002db90       ?find_pe_section@@YAPAU_IMAGE_SECTION_HEADER@@QAEI@Z 0042eb90 f   MSVCRTD:utility.obj
 0001:0002dc40       ?is_potentially_valid_image_base@@YA_NQAX@Z 0042ec40 f   MSVCRTD:utility.obj
 0001:0002e3e0       ___get_entropy             0042f3e0 f   MSVCRTD:gs_support.obj
 0001:0002f600       _ParseCommandLine          00430600 f   SDL2main:SDL_windows_main.obj
 0001:0002f760       _main_getcmdline           00430760 f   SDL2main:SDL_windows_main.obj
 0001:000315c0       __unwindfunclet$??0AutomatedObject@@QAE@PAVGameEngine@@HHHH@Z$0 004325c0 f   AutomatedObject.obj
 0001:000315cd       __ehhandler$??0AutomatedObject@@QAE@PAVGameEngine@@HHHH@Z 004325cd f   AutomatedObject.obj
 0001:00031600       __unwindfunclet$??0Boss@@QAE@PAVGameEngine@@PAVAdvancedTileManager@@HHH@Z$0 00432600 f   Boss.obj
 0001:00031608       __unwindfunclet$??0Boss@@QAE@PAVGameEngine@@PAVAdvancedTileManager@@HHH@Z$1 00432608 f   Boss.obj
 0001:00031613       __unwindfunclet$??0Boss@@QAE@PAVGameEngine@@PAVAdvancedTileManager@@HHH@Z$3 00432613 f   Boss.obj
 0001:0003161e       __unwindfunclet$??0Boss@@QAE@PAVGameEngine@@PAVAdvancedTileManager@@HHH@Z$5 0043261e f   Boss.obj
 0001:0003162c       __unwindfunclet$??0Boss@@QAE@PAVGameEngine@@PAVAdvancedTileManager@@HHH@Z$7 0043262c f   Boss.obj
 0001:0003163a       __unwindfunclet$??0Boss@@QAE@PAVGameEngine@@PAVAdvancedTileManager@@HHH@Z$9 0043263a f   Boss.obj
 0001:00031648       __unwindfunclet$??0Boss@@QAE@PAVGameEngine@@PAVAdvancedTileManager@@HHH@Z$11 00432648 f   Boss.obj
 0001:00031656       __unwindfunclet$??0Boss@@QAE@PAVGameEngine@@PAVAdvancedTileManager@@HHH@Z$13 00432656 f   Boss.obj
 0001:00031664       __unwindfunclet$??0Boss@@QAE@PAVGameEngine@@PAVAdvancedTileManager@@HHH@Z$15 00432664 f   Boss.obj
 0001:00031672       __unwindfunclet$??0Boss@@QAE@PAVGameEngine@@PAVAdvancedTileManager@@HHH@Z$17 00432672 f   Boss.obj
 0001:00031680       __unwindfunclet$??0Boss@@QAE@PAVGameEngine@@PAVAdvancedTileManager@@HHH@Z$19 00432680 f   Boss.obj
 0001:00031693       __ehhandler$??0Boss@@QAE@PAVGameEngine@@PAVAdvancedTileManager@@HHH@Z 00432693 f   Boss.obj
 0001:000316b0       __unwindfunclet$?virtDoUpdate@Boss@@UAEXH@Z$0 004326b0 f   Boss.obj
 0001:000316bd       __ehhandler$?virtDoUpdate@Boss@@UAEXH@Z 004326bd f   Boss.obj
 0001:000316da       __unwindfunclet$?bfs@Boss@@QAEXAAUPoint@1@U21@AAV?$vector@UPoint@Boss@@V?$allocator@UPoint@Boss@@@std@@@std@@@Z$0 004326da f   Boss.obj
 0001:000316fb       __unwindfunclet$?bfs@Boss@@QAEXAAUPoint@1@U21@AAV?$vector@UPoint@Boss@@V?$allocator@UPoint@Boss@@@std@@@std@@@Z$1 004326fb f   Boss.obj
 0001:0003170b       __ehhandler$?bfs@Boss@@QAEXAAUPoint@1@U21@AAV?$vector@UPoint@Boss@@V?$allocator@UPoint@Boss@@@std@@@std@@@Z 0043270b f   Boss.obj
 0001:00031780       __unwindfunclet$??$?0U?$pair@V?$basic_string@DU?$char_traits@D@std@@V?$allocator@D@2@@std@@V?$shared_ptr@VRawImageData@@@2@@std@@@?$_Tree_temp_node@V?$allocator@U?$_Tree_node@U?$pair@$$CBV?$basic_string@DU?$char_traits@D@std@@V?$allocator@D@2@@std@@V?$shared_ptr@VRawImageData@@@2@@std@@PAX@std@@@std@@@std@@QAE@AAV?$allocator@U?$_Tree_node@U?$pair@$$CBV?$basic_string@DU?$char_traits@D@std@@V?$allocator@D@2@@std@@V?$shared_ptr@VRawImageData@@@2@@std@@PAX@std@@@1@PAU?$_Tree_node@U?$pair@$$CBV?$basic_string@DU?$char_traits@D@std@@V?$allocator@D@2@@std@@V?$shared_ptr@VRawImageData@@@2@@std@@PAX@1@$$QAU?$pair@V?$basic_string@DU?$char_traits@D@std@@V?$allocator@D@2@@std@@V?$shared_ptr@VRawImageData@@@2@@1@@Z$0 00432780 f   Boss.obj
 0001:0003178d       __ehhandler$??$?0U?$pair@V?$basic_string@DU?$char_traits@D@std@@V?$allocator@D@2@@std@@V?$shared_ptr@VRawImageData@@@2@@std@@@?$_Tree_temp_node@V?$allocator@U?$_Tree_node@U?$pair@$$CBV?$basic_string@DU?$char_traits@D@std@@V?$allocator@D@2@@std@@V?$shared_ptr@VRawImageData@@@2@@std@@PAX@std@@@std@@@std@@QAE@AAV?$allocator@U?$_Tree_node@U?$pair@$$CBV?$basic_string@DU?$char_traits@D@std@@V?$allocator@D@2@@std@@V?$shared_ptr@VRawImageData@@@2@@std@@PAX@std@@@1@PAU?$_Tree_node@U?$pair@$$CBV?$basic_string@DU?$char_traits@D@std@@V?$allocator@D@2@@std@@V?$shared_ptr@VRawImageData@@@2@@std@@PAX@1@$$QAU?$pair@V?$basic_string@DU?$char_traits@D@std@@V?$allocator@D@2@@std@@V?$shared_ptr@VRawImageData@@@2@@1@@Z 0043278d f   Boss.obj
 0001:000317c0       __unwindfunclet$??$?0U?$pair@V?$basic_string@DU?$char_traits@D@std@@V?$allocator@D@2@@std@@V?$weak_ptr@VRawImageData@@@2@@std@@@?$_Tree_temp_node@V?$allocator@U?$_Tree_node@U?$pair@$$CBV?$basic_string@DU?$char_traits@D@std@@V?$allocator@D@2@@std@@V?$weak_ptr@VRawImageData@@@2@@std@@PAX@std@@@std@@@std@@QAE@AAV?$allocator@U?$_Tree_node@U?$pair@$$CBV?$basic_string@DU?$char_traits@D@std@@V?$allocator@D@2@@std@@V?$weak_ptr@VRawImageData@@@2@@std@@PAX@std@@@1@PAU?$_Tree_node@U?$pair@$$CBV?$basic_string@DU?$char_traits@D@std@@V?$allocator@D@2@@std@@V?$weak_ptr@VRawImageData@@@2@@std@@PAX@1@$$QAU?$pair@V?$basic_string@DU?$char_traits@D@std@@V?$allocator@D@2@@std@@V?$weak_ptr@VRawImageData@@@2@@1@@Z$0 004327c0 f   Boss.obj
 0001:000317cd       __ehhandler$??$?0U?$pair@V?$basic_string@DU?$char_traits@D@std@@V?$allocator@D@2@@std@@V?$weak_ptr@VRawImageData@@@2@@std@@@?$_Tree_temp_node@V?$allocator@U?$_Tree_node@U?$pair@$$CBV?$basic_string@DU?$char_traits@D@std@@V?$allocator@D@2@@std@@V?$weak_ptr@VRawImageData@@@2@@std@@PAX@std@@@std@@@std@@QAE@AAV?$allocator@U?$_Tree_node@U?$pair@$$CBV?$basic_string@DU?$char_traits@D@std@@V?$allocator@D@2@@std@@V?$weak_ptr@VRawImageData@@@2@@std@@PAX@std@@@1@PAU?$_Tree_node@U?$pair@$$CBV?$basic_string@DU?$char_traits@D@std@@V?$allocator@D@2@@std@@V?$weak_ptr@VRawImageData@@@2@@std@@PAX@1@$$QAU?$pair@V?$basic_string@DU?$char_traits@D@std@@V?$allocator@D@2@@std@@V?$weak_ptr@VRawImageData@@@2@@1@@Z 004327cd f   Boss.obj
 0001:00031800       __unwindfunclet$??$?0VRawImageData@@$0A@@?$shared_ptr@VRawImageData@@@std@@QAE@PAVRawImageData@@@Z$0 00432800 f   Boss.obj
 0001:00031808       __unwindfunclet$??$?0VRawImageData@@$0A@@?$shared_ptr@VRawImageData@@@std@@QAE@PAVRawImageData@@@Z$1 00432808 f   Boss.obj
 0001:0003181c       __ehhandler$??$?0VRawImageData@@$0A@@?$shared_ptr@VRawImageData@@@std@@QAE@PAVRawImageData@@@Z 0043281c f   Boss.obj
 0001:00031850       __unwindfunclet$??$?6U?$char_traits@D@std@@@std@@YAAAV?$basic_ostream@DU?$char_traits@D@std@@@0@AAV10@PBD@Z$2 00432850 f   Boss.obj
 0001:0003185d       __ehhandler$??$?6U?$char_traits@D@std@@@std@@YAAAV?$basic_ostream@DU?$char_traits@D@std@@@0@AAV10@PBD@Z 0043285d f   Boss.obj
 0001:00031890       __ehhandler$??$_Deallocate@$07$0A@@std@@YAXPAXI@Z 00432890 f   Boss.obj
 0001:000318c0       __ehhandler$??$_Deallocate_plain@V?$allocator@U_Container_proxy@std@@@std@@@std@@YAXAAV?$allocator@U_Container_proxy@std@@@0@QAU_Container_proxy@0@@Z 004328c0 f   Boss.obj
 0001:000318f0       __ehhandler$??$_Emplace_reallocate@ABUPoint@Boss@@@?$vector@UPoint@Boss@@V?$allocator@UPoint@Boss@@@std@@@std@@QAEPAUPoint@Boss@@QAU23@ABU23@@Z 004328f0 f   Boss.obj
 0001:00031920       __ehhandler$??$_Freenode0@V?$allocator@U?$_Tree_node@U?$pair@$$CBV?$basic_string@DU?$char_traits@D@std@@V?$allocator@D@2@@std@@V?$shared_ptr@VRawImageData@@@2@@std@@PAX@std@@@std@@@?$_Tree_node@U?$pair@$$CBV?$basic_string@DU?$char_traits@D@std@@V?$allocator@D@2@@std@@V?$shared_ptr@VRawImageData@@@2@@std@@PAX@std@@SAXAAV?$allocator@U?$_Tree_node@U?$pair@$$CBV?$basic_string@DU?$char_traits@D@std@@V?$allocator@D@2@@std@@V?$shared_ptr@VRawImageData@@@2@@std@@PAX@std@@@1@PAU01@@Z 00432920 f   Boss.obj
 0001:00031950       __ehhandler$??$_Freenode0@V?$allocator@U?$_Tree_node@U?$pair@$$CBV?$basic_string@DU?$char_traits@D@std@@V?$allocator@D@2@@std@@V?$weak_ptr@VRawImageData@@@2@@std@@PAX@std@@@std@@@?$_Tree_node@U?$pair@$$CBV?$basic_string@DU?$char_traits@D@std@@V?$allocator@D@2@@std@@V?$weak_ptr@VRawImageData@@@2@@std@@PAX@std@@SAXAAV?$allocator@U?$_Tree_node@U?$pair@$$CBV?$basic_string@DU?$char_traits@D@std@@V?$allocator@D@2@@std@@V?$weak_ptr@VRawImageData@@@2@@std@@PAX@std@@@1@PAU01@@Z 00432950 f   Boss.obj
 0001:00031980       __ehhandler$??$_Freenode@V?$allocator@U?$_Tree_node@U?$pair@$$CBV?$basic_string@DU?$char_traits@D@std@@V?$allocator@D@2@@std@@V?$shared_ptr@VRawImageData@@@2@@std@@PAX@std@@@std@@@?$_Tree_node@U?$pair@$$CBV?$basic_string@DU?$char_traits@D@std@@V?$allocator@D@2@@std@@V?$shared_ptr@VRawImageData@@@2@@std@@PAX@std@@SAXAAV?$allocator@U?$_Tree_node@U?$pair@$$CBV?$basic_string@DU?$char_traits@D@std@@V?$allocator@D@2@@std@@V?$shared_ptr@VRawImageData@@@2@@std@@PAX@std@@@1@PAU01@@Z 00432980 f   Boss.obj
 0001:000319b0       __ehhandler$??$_Freenode@V?$allocator@U?$_Tree_node@U?$pair@$$CBV?$basic_string@DU?$char_traits@D@std@@V?$allocator@D@2@@std@@V?$weak_ptr@VRawImageData@@@2@@std@@PAX@std@@@std@@@?$_Tree_node@U?$pair@$$CBV?$basic_string@DU?$char_traits@D@std@@V?$allocator@D@2@@std@@V?$weak_ptr@VRawImageData@@@2@@std@@PAX@std@@SAXAAV?$allocator@U?$_Tree_node@U?$pair@$$CBV?$basic_string@DU?$char_traits@D@std@@V?$allocator@D@2@@std@@V?$weak_ptr@VRawImageData@@@2@@std@@PAX@std@@@1@PAU01@@Z 004329b0 f   Boss.obj
 0001:000319e0       __unwindfunclet$??$_Insert_string@DU?$char_traits@D@std@@I@std@@YAAAV?$basic_ostream@DU?$char_traits@D@std@@@0@AAV10@QBDI@Z$2 004329e0 f   Boss.obj
 0001:000319ed       __ehhandler$??$_Insert_string@DU?$char_traits@D@std@@I@std@@YAAAV?$basic_ostream@DU?$char_traits@D@std@@@0@AAV10@QBDI@Z 004329ed f   Boss.obj
 0001:00031a20       __unwindfunclet$??$_Uninitialized_copy@PAUPoint@Boss@@V?$allocator@UPoint@Boss@@@std@@@std@@YAPAUPoint@Boss@@QAU12@0PAU12@AAV?$allocator@UPoint@Boss@@@0@@Z$0 00432a20 f   Boss.obj
 0001:00031a2d       __ehhandler$??$_Uninitialized_copy@PAUPoint@Boss@@V?$allocator@UPoint@Boss@@@std@@@std@@YAPAUPoint@Boss@@QAU12@0PAU12@AAV?$allocator@UPoint@Boss@@@0@@Z 00432a2d f   Boss.obj
 0001:00031a60       __unwindfunclet$??$_Uninitialized_move@PAUPoint@Boss@@V?$allocator@UPoint@Boss@@@std@@@std@@YAPAUPoint@Boss@@QAU12@0PAU12@AAV?$allocator@UPoint@Boss@@@0@@Z$0 00432a60 f   Boss.obj
 0001:00031a6d       __ehhandler$??$_Uninitialized_move@PAUPoint@Boss@@V?$allocator@UPoint@Boss@@@std@@@std@@YAPAUPoint@Boss@@QAU12@0PAU12@AAV?$allocator@UPoint@Boss@@@0@@Z 00432a6d f   Boss.obj
 0001:00031aa0       __ehhandler$??$erase@V?$_Tree_iterator@V?$_Tree_val@U?$_Tree_simple_types@U?$pair@$$CBV?$basic_string@DU?$char_traits@D@std@@V?$allocator@D@2@@std@@V?$weak_ptr@VRawImageData@@@2@@std@@@std@@@std@@@std@@$0A@@?$_Tree@V?$_Tmap_traits@V?$basic_string@DU?$char_traits@D@std@@V?$allocator@D@2@@std@@V?$weak_ptr@VRawImageData@@@2@U?$less@V?$basic_string@DU?$char_traits@D@std@@V?$allocator@D@2@@std@@@2@V?$allocator@U?$pair@$$CBV?$basic_string@DU?$char_traits@D@std@@V?$allocator@D@2@@std@@V?$weak_ptr@VRawImageData@@@2@@std@@@2@$0A@@std@@@std@@QAE?AV?$_Tree_iterator@V?$_Tree_val@U?$_Tree_simple_types@U?$pair@$$CBV?$basic_string@DU?$char_traits@D@std@@V?$allocator@D@2@@std@@V?$weak_ptr@VRawImageData@@@2@@std@@@std@@@std@@@1@V21@@Z 00432aa0 f   Boss.obj
 0001:00031ad0       __unwindfunclet$??0?$_Tree_temp_node_alloc@V?$allocator@U?$_Tree_node@U?$pair@$$CBV?$basic_string@DU?$char_traits@D@std@@V?$allocator@D@2@@std@@V?$shared_ptr@VRawImageData@@@2@@std@@PAX@std@@@std@@@std@@QAE@AAV?$allocator@U?$_Tree_node@U?$pair@$$CBV?$basic_string@DU?$char_traits@D@std@@V?$allocator@D@2@@std@@V?$shared_ptr@VRawImageData@@@2@@std@@PAX@std@@@1@@Z$0 00432ad0 f   Boss.obj
 0001:00031add       __ehhandler$??0?$_Tree_temp_node_alloc@V?$allocator@U?$_Tree_node@U?$pair@$$CBV?$basic_string@DU?$char_traits@D@std@@V?$allocator@D@2@@std@@V?$shared_ptr@VRawImageData@@@2@@std@@PAX@std@@@std@@@std@@QAE@AAV?$allocator@U?$_Tree_node@U?$pair@$$CBV?$basic_string@DU?$char_traits@D@std@@V?$allocator@D@2@@std@@V?$shared_ptr@VRawImageData@@@2@@std@@PAX@std@@@1@@Z 00432add f   Boss.obj
 0001:00031b10       __unwindfunclet$??0?$_Tree_temp_node_alloc@V?$allocator@U?$_Tree_node@U?$pair@$$CBV?$basic_string@DU?$char_traits@D@std@@V?$allocator@D@2@@std@@V?$weak_ptr@VRawImageData@@@2@@std@@PAX@std@@@std@@@std@@QAE@AAV?$allocator@U?$_Tree_node@U?$pair@$$CBV?$basic_string@DU?$char_traits@D@std@@V?$allocator@D@2@@std@@V?$weak_ptr@VRawImageData@@@2@@std@@PAX@std@@@1@@Z$0 00432b10 f   Boss.obj
 0001:00031b1d       __ehhandler$??0?$_Tree_temp_node_alloc@V?$allocator@U?$_Tree_node@U?$pair@$$CBV?$basic_string@DU?$char_traits@D@std@@V?$allocator@D@2@@std@@V?$weak_ptr@VRawImageData@@@2@@std@@PAX@std@@@std@@@std@@QAE@AAV?$allocator@U?$_Tree_node@U?$pair@$$CBV?$basic_string@DU?$char_traits@D@std@@V?$allocator@D@2@@std@@V?$weak_ptr@VRawImageData@@@2@@std@@PAX@std@@@1@@Z 00432b1d f   Boss.obj
 0001:00031b50       __ehhandler$??0?$basic_string@DU?$char_traits@D@std@@V?$allocator@D@2@@std@@QAE@$$QAV01@@Z 00432b50 f   Boss.obj
 0001:00031b80       __unwindfunclet$??0?$basic_string@DU?$char_traits@D@std@@V?$allocator@D@2@@std@@QAE@ABV01@@Z$0 00432b80 f   Boss.obj
 0001:00031b88       __unwindfunclet$??0?$basic_string@DU?$char_traits@D@std@@V?$allocator@D@2@@std@@QAE@ABV01@@Z$1 00432b88 f   Boss.obj
 0001:00031b95       __ehhandler$??0?$basic_string@DU?$char_traits@D@std@@V?$allocator@D@2@@std@@QAE@ABV01@@Z 00432b95 f   Boss.obj
 0001:00031bc0       __unwindfunclet$??0?$basic_string@DU?$char_traits@D@std@@V?$allocator@D@2@@std@@QAE@QBD@Z$0 00432bc0 f   Boss.obj
 0001:00031bc8       __unwindfunclet$??0?$basic_string@DU?$char_traits@D@std@@V?$allocator@D@2@@std@@QAE@QBD@Z$1 00432bc8 f   Boss.obj
 0001:00031bd5       __ehhandler$??0?$basic_string@DU?$char_traits@D@std@@V?$allocator@D@2@@std@@QAE@QBD@Z 00432bd5 f   Boss.obj
 0001:00031c00       __ehhandler$??0?$queue@UPoint@Boss@@V?$deque@UPoint@Boss@@V?$allocator@UPoint@Boss@@@std@@@std@@@std@@QAE@XZ 00432c00 f   Boss.obj
 0001:00031c30       __ehhandler$??0?$vector@UPoint@Boss@@V?$allocator@UPoint@Boss@@@std@@@std@@QAE@XZ 00432c30 f   Boss.obj
 0001:00031c60       __unwindfunclet$??0ImageManager@@QAE@XZ$0 00432c60 f   Boss.obj
 0001:00031c68       __unwindfunclet$??0ImageManager@@QAE@XZ$1 00432c68 f   Boss.obj
 0001:00031c78       __ehhandler$??0ImageManager@@QAE@XZ 00432c78 f   Boss.obj
 0001:00031cb0       __unwindfunclet$??0RawImageData@@QAE@V?$basic_string@DU?$char_traits@D@std@@V?$allocator@D@2@@std@@@Z$0 00432cb0 f   Boss.obj
 0001:00031cbd       __ehhandler$??0RawImageData@@QAE@V?$basic_string@DU?$char_traits@D@std@@V?$allocator@D@2@@std@@@Z 00432cbd f   Boss.obj
 0001:00031cf0       __unwindfunclet$??0sentry@?$basic_ostream@DU?$char_traits@D@std@@@std@@QAE@AAV12@@Z$0 00432cf0 f   Boss.obj
 0001:00031cfd       __ehhandler$??0sentry@?$basic_ostream@DU?$char_traits@D@std@@@std@@QAE@AAV12@@Z 00432cfd f   Boss.obj
 0001:00031d30       __ehhandler$??1?$_Alloc_construct_ptr@V?$allocator@U?$_Tree_node@U?$pair@$$CBV?$basic_string@DU?$char_traits@D@std@@V?$allocator@D@2@@std@@V?$shared_ptr@VRawImageData@@@2@@std@@PAX@std@@@std@@@std@@QAE@XZ 00432d30 f   Boss.obj
 0001:00031d60       __ehhandler$??1?$_Alloc_construct_ptr@V?$allocator@U?$_Tree_node@U?$pair@$$CBV?$basic_string@DU?$char_traits@D@std@@V?$allocator@D@2@@std@@V?$weak_ptr@VRawImageData@@@2@@std@@PAX@std@@@std@@@std@@QAE@XZ 00432d60 f   Boss.obj
 0001:00031d90       __ehhandler$??1?$_Tree_temp_node@V?$allocator@U?$_Tree_node@U?$pair@$$CBV?$basic_string@DU?$char_traits@D@std@@V?$allocator@D@2@@std@@V?$shared_ptr@VRawImageData@@@2@@std@@PAX@std@@@std@@@std@@QAE@XZ 00432d90 f   Boss.obj
 0001:00031dc0       __ehhandler$??1?$_Tree_temp_node@V?$allocator@U?$_Tree_node@U?$pair@$$CBV?$basic_string@DU?$char_traits@D@std@@V?$allocator@D@2@@std@@V?$weak_ptr@VRawImageData@@@2@@std@@PAX@std@@@std@@@std@@QAE@XZ 00432dc0 f   Boss.obj
 0001:00031df0       __ehhandler$??1RawImageData@@QAE@XZ 00432df0 f   Boss.obj
 0001:00031e20       __ehhandler$??1_Sentry_base@?$basic_ostream@DU?$char_traits@D@std@@@std@@QAE@XZ 00432e20 f   Boss.obj
 0001:00031e50       __ehhandler$??1sentry@?$basic_ostream@DU?$char_traits@D@std@@@std@@QAE@XZ 00432e50 f   Boss.obj
 0001:00031e80       __unwindfunclet$?_Alloc_sentinel_and_proxy@?$_Tree@V?$_Tmap_traits@V?$basic_string@DU?$char_traits@D@std@@V?$allocator@D@2@@std@@V?$shared_ptr@VRawImageData@@@2@U?$less@V?$basic_string@DU?$char_traits@D@std@@V?$allocator@D@2@@std@@@2@V?$allocator@U?$pair@$$CBV?$basic_string@DU?$char_traits@D@std@@V?$allocator@D@2@@std@@V?$shared_ptr@VRawImageData@@@2@@std@@@2@$0A@@std@@@std@@IAEXXZ$0 00432e80 f   Boss.obj
 0001:00031e8d       __ehhandler$?_Alloc_sentinel_and_proxy@?$_Tree@V?$_Tmap_traits@V?$basic_string@DU?$char_traits@D@std@@V?$allocator@D@2@@std@@V?$shared_ptr@VRawImageData@@@2@U?$less@V?$basic_string@DU?$char_traits@D@std@@V?$allocator@D@2@@std@@@2@V?$allocator@U?$pair@$$CBV?$basic_string@DU?$char_traits@D@std@@V?$allocator@D@2@@std@@V?$shared_ptr@VRawImageData@@@2@@std@@@2@$0A@@std@@@std@@IAEXXZ 00432e8d f   Boss.obj
 0001:00031ec0       __unwindfunclet$?_Alloc_sentinel_and_proxy@?$_Tree@V?$_Tmap_traits@V?$basic_string@DU?$char_traits@D@std@@V?$allocator@D@2@@std@@V?$weak_ptr@VRawImageData@@@2@U?$less@V?$basic_string@DU?$char_traits@D@std@@V?$allocator@D@2@@std@@@2@V?$allocator@U?$pair@$$CBV?$basic_string@DU?$char_traits@D@std@@V?$allocator@D@2@@std@@V?$weak_ptr@VRawImageData@@@2@@std@@@2@$0A@@std@@@std@@IAEXXZ$0 00432ec0 f   Boss.obj
 0001:00031ecd       __ehhandler$?_Alloc_sentinel_and_proxy@?$_Tree@V?$_Tmap_traits@V?$basic_string@DU?$char_traits@D@std@@V?$allocator@D@2@@std@@V?$weak_ptr@VRawImageData@@@2@U?$less@V?$basic_string@DU?$char_traits@D@std@@V?$allocator@D@2@@std@@@2@V?$allocator@U?$pair@$$CBV?$basic_string@DU?$char_traits@D@std@@V?$allocator@D@2@@std@@V?$weak_ptr@VRawImageData@@@2@@std@@@2@$0A@@std@@@std@@IAEXXZ 00432ecd f   Boss.obj
 0001:00031f00       __ehhandler$?_Erase_unchecked@?$_Tree@V?$_Tmap_traits@V?$basic_string@DU?$char_traits@D@std@@V?$allocator@D@2@@std@@V?$weak_ptr@VRawImageData@@@2@U?$less@V?$basic_string@DU?$char_traits@D@std@@V?$allocator@D@2@@std@@@2@V?$allocator@U?$pair@$$CBV?$basic_string@DU?$char_traits@D@std@@V?$allocator@D@2@@std@@V?$weak_ptr@VRawImageData@@@2@@std@@@2@$0A@@std@@@std@@AAEPAU?$_Tree_node@U?$pair@$$CBV?$basic_string@DU?$char_traits@D@std@@V?$allocator@D@2@@std@@V?$weak_ptr@VRawImageData@@@2@@std@@PAX@2@V?$_Tree_unchecked_const_iterator@V?$_Tree_val@U?$_Tree_simple_types@U?$pair@$$CBV?$basic_string@DU?$char_traits@D@std@@V?$allocator@D@2@@std@@V?$weak_ptr@VRawImageData@@@2@@std@@@std@@@std@@U_Iterator_base0@2@@2@@Z 00432f00 f   Boss.obj
 0001:00031f30       __ehhandler$?_Extract@?$_Tree_val@U?$_Tree_simple_types@U?$pair@$$CBV?$basic_string@DU?$char_traits@D@std@@V?$allocator@D@2@@std@@V?$weak_ptr@VRawImageData@@@2@@std@@@std@@@std@@QAEPAU?$_Tree_node@U?$pair@$$CBV?$basic_string@DU?$char_traits@D@std@@V?$allocator@D@2@@std@@V?$weak_ptr@VRawImageData@@@2@@std@@PAX@2@V?$_Tree_unchecked_const_iterator@V?$_Tree_val@U?$_Tree_simple_types@U?$pair@$$CBV?$basic_string@DU?$char_traits@D@std@@V?$allocator@D@2@@std@@V?$weak_ptr@VRawImageData@@@2@@std@@@std@@@std@@U_Iterator_base0@2@@2@@Z 00432f30 f   Boss.obj
 0001:00031f60       __ehhandler$?_Take_contents@?$basic_string@DU?$char_traits@D@std@@V?$allocator@D@2@@std@@AAEXAAV12@U?$integral_constant@_N$00@2@@Z 00432f60 f   Boss.obj
 0001:00031f90       __ehhandler$?_Tidy@?$deque@UPoint@Boss@@V?$allocator@UPoint@Boss@@@std@@@std@@AAEXXZ 00432f90 f   Boss.obj
 0001:00031fc0       __ehhandler$?_Tidy@?$vector@UPoint@Boss@@V?$allocator@UPoint@Boss@@@std@@@std@@AAEXXZ 00432fc0 f   Boss.obj
 0001:00031ff0       __ehhandler$?_Tidy_deallocate@?$basic_string@DU?$char_traits@D@std@@V?$allocator@D@2@@std@@AAEXXZ 00432ff0 f   Boss.obj
 0001:00032020       __ehhandler$?clear@?$vector@UPoint@Boss@@V?$allocator@UPoint@Boss@@@std@@@std@@QAEXXZ 00433020 f   Boss.obj
 0001:00032050       __ehhandler$?front@?$deque@UPoint@Boss@@V?$allocator@UPoint@Boss@@@std@@@std@@QAEAAUPoint@Boss@@XZ 00433050 f   Boss.obj
 0001:00032080       __unwindfunclet$?get@ImageManager@@SAPAV1@XZ$0 00433080 f   Boss.obj
 0001:00032094       __ehhandler$?get@ImageManager@@SAPAV1@XZ 00433094 f   Boss.obj
 0001:000320c0       __unwindfunclet$?getImagePtrbyURL@ImageManager@@QAE?AV?$shared_ptr@VRawImageData@@@std@@V?$basic_string@DU?$char_traits@D@std@@V?$allocator@D@2@@3@_N1@Z$0 004330c0 f   Boss.obj
 0001:000320c8       __unwindfunclet$?getImagePtrbyURL@ImageManager@@QAE?AV?$shared_ptr@VRawImageData@@@std@@V?$basic_string@DU?$char_traits@D@std@@V?$allocator@D@2@@3@_N1@Z$1 004330c8 f   Boss.obj
 0001:000320d0       __unwindfunclet$?getImagePtrbyURL@ImageManager@@QAE?AV?$shared_ptr@VRawImageData@@@std@@V?$basic_string@DU?$char_traits@D@std@@V?$allocator@D@2@@3@_N1@Z$2 004330d0 f   Boss.obj
 0001:000320db       __unwindfunclet$?getImagePtrbyURL@ImageManager@@QAE?AV?$shared_ptr@VRawImageData@@@std@@V?$basic_string@DU?$char_traits@D@std@@V?$allocator@D@2@@3@_N1@Z$9 004330db f   Boss.obj
 0001:000320e3       __unwindfunclet$?getImagePtrbyURL@ImageManager@@QAE?AV?$shared_ptr@VRawImageData@@@std@@V?$basic_string@DU?$char_traits@D@std@@V?$allocator@D@2@@3@_N1@Z$10 004330e3 f   Boss.obj
 0001:000320ee       __unwindfunclet$?getImagePtrbyURL@ImageManager@@QAE?AV?$shared_ptr@VRawImageData@@@std@@V?$basic_string@DU?$char_traits@D@std@@V?$allocator@D@2@@3@_N1@Z$11 004330ee f   Boss.obj
 0001:000320f6       __unwindfunclet$?getImagePtrbyURL@ImageManager@@QAE?AV?$shared_ptr@VRawImageData@@@std@@V?$basic_string@DU?$char_traits@D@std@@V?$allocator@D@2@@3@_N1@Z$13 004330f6 f   Boss.obj
 0001:00032103       __ehhandler$?getImagePtrbyURL@ImageManager@@QAE?AV?$shared_ptr@VRawImageData@@@std@@V?$basic_string@DU?$char_traits@D@std@@V?$allocator@D@2@@3@_N1@Z 00433103 f   Boss.obj
 0001:00032150       __unwindfunclet$?getImagebyURL@ImageManager@@QAE?AVSimpleImage@@V?$basic_string@DU?$char_traits@D@std@@V?$allocator@D@2@@std@@_N1@Z$0 00433150 f   Boss.obj
 0001:0003215d       __ehhandler$?getImagebyURL@ImageManager@@QAE?AVSimpleImage@@V?$basic_string@DU?$char_traits@D@std@@V?$allocator@D@2@@std@@_N1@Z 0043315d f   Boss.obj
 0001:00032190       __unwindfunclet$?loadAsNew@ImageManager@@QAE?AV?$shared_ptr@VRawImageData@@@std@@V?$basic_string@DU?$char_traits@D@std@@V?$allocator@D@2@@3@@Z$0 00433190 f   Boss.obj
 0001:00032198       __unwindfunclet$?loadAsNew@ImageManager@@QAE?AV?$shared_ptr@VRawImageData@@@std@@V?$basic_string@DU?$char_traits@D@std@@V?$allocator@D@2@@3@@Z$1 00433198 f   Boss.obj
 0001:000321ac       __ehhandler$?loadAsNew@ImageManager@@QAE?AV?$shared_ptr@VRawImageData@@@std@@V?$basic_string@DU?$char_traits@D@std@@V?$allocator@D@2@@3@@Z 004331ac f   Boss.obj
 0001:000321e0       __unwindfunclet$?loadImage@ImageManager@@SA?AVSimpleImage@@V?$basic_string@DU?$char_traits@D@std@@V?$allocator@D@2@@std@@_N@Z$0 004331e0 f   Boss.obj
 0001:000321e8       __unwindfunclet$?loadImage@ImageManager@@SA?AVSimpleImage@@V?$basic_string@DU?$char_traits@D@std@@V?$allocator@D@2@@std@@_N@Z$1 004331e8 f   Boss.obj
 0001:000321f5       __ehhandler$?loadImage@ImageManager@@SA?AVSimpleImage@@V?$basic_string@DU?$char_traits@D@std@@V?$allocator@D@2@@std@@_N@Z 004331f5 f   Boss.obj
 0001:00032220       __unwindfunclet$?loadImage@RawImageData@@QAE_NV?$basic_string@DU?$char_traits@D@std@@V?$allocator@D@2@@std@@HHHHH_N@Z$0 00433220 f   Boss.obj
 0001:0003222d       __ehhandler$?loadImage@RawImageData@@QAE_NV?$basic_string@DU?$char_traits@D@std@@V?$allocator@D@2@@std@@HHHHH_N@Z 0043322d f   Boss.obj
 0001:00032260       __ehhandler$?pop_back@?$deque@UPoint@Boss@@V?$allocator@UPoint@Boss@@@std@@@std@@QAEXXZ 00433260 f   Boss.obj
 0001:00032290       __ehhandler$?pop_back@?$vector@UPoint@Boss@@V?$allocator@UPoint@Boss@@@std@@@std@@QAEXXZ 00433290 f   Boss.obj
 0001:000322c0       __ehhandler$?pop_front@?$deque@UPoint@Boss@@V?$allocator@UPoint@Boss@@@std@@@std@@QAEXXZ 004332c0 f   Boss.obj
 0001:000322f0       __unwindfunclet$??0Bullet@@QAE@PAVGameEngine@@PAVAdvancedTileManager@@HHH@Z$0 004332f0 f   Bullet.obj
 0001:000322fd       __ehhandler$??0Bullet@@QAE@PAVGameEngine@@PAVAdvancedTileManager@@HHH@Z 004332fd f   Bullet.obj
 0001:00032330       __unwindfunclet$??0?$basic_string@DU?$char_traits@D@std@@V?$allocator@D@2@@std@@QAE@ABV01@IIABV?$allocator@D@1@@Z$0 00433330 f   EndState.obj
 0001:00032338       __unwindfunclet$??0?$basic_string@DU?$char_traits@D@std@@V?$allocator@D@2@@std@@QAE@ABV01@IIABV?$allocator@D@1@@Z$1 00433338 f   EndState.obj
 0001:00032345       __ehhandler$??0?$basic_string@DU?$char_traits@D@std@@V?$allocator@D@2@@std@@QAE@ABV01@IIABV?$allocator@D@1@@Z 00433345 f   EndState.obj
 0001:00032370       __unwindfunclet$??0Guard@@QAE@PAVGameEngine@@HHHHHHHHHH@Z$0 00433370 f   Guard.obj
 0001:00032378       __unwindfunclet$??0Guard@@QAE@PAVGameEngine@@HHHHHHHHHH@Z$2 00433378 f   Guard.obj
 0001:00032383       __unwindfunclet$??0Guard@@QAE@PAVGameEngine@@HHHHHHHHHH@Z$4 00433383 f   Guard.obj
 0001:0003238e       __unwindfunclet$??0Guard@@QAE@PAVGameEngine@@HHHHHHHHHH@Z$6 0043338e f   Guard.obj
 0001:00032399       __unwindfunclet$??0Guard@@QAE@PAVGameEngine@@HHHHHHHHHH@Z$8 00433399 f   Guard.obj
 0001:000323a7       __unwindfunclet$??0Guard@@QAE@PAVGameEngine@@HHHHHHHHHH@Z$10 004333a7 f   Guard.obj
 0001:000323b5       __unwindfunclet$??0Guard@@QAE@PAVGameEngine@@HHHHHHHHHH@Z$12 004333b5 f   Guard.obj
 0001:000323c3       __unwindfunclet$??0Guard@@QAE@PAVGameEngine@@HHHHHHHHHH@Z$14 004333c3 f   Guard.obj
 0001:000323d1       __unwindfunclet$??0Guard@@QAE@PAVGameEngine@@HHHHHHHHHH@Z$16 004333d1 f   Guard.obj
 0001:000323df       __unwindfunclet$??0Guard@@QAE@PAVGameEngine@@HHHHHHHHHH@Z$18 004333df f   Guard.obj
 0001:000323f2       __ehhandler$??0Guard@@QAE@PAVGameEngine@@HHHHHHHHHH@Z 004333f2 f   Guard.obj
 0001:00032440       __unwindfunclet$?doProgram@@YAHHQAPAD@Z$0 00433440 f   mainfunction.obj
 0001:00032450       __ehhandler$?doProgram@@YAHHQAPAD@Z 00433450 f   mainfunction.obj
 0001:00032490       __unwindfunclet$??0BaseEngine@@QAE@XZ$0 00433490 f   BaseEngine.obj
 0001:00032498       __unwindfunclet$??0BaseEngine@@QAE@XZ$1 00433498 f   BaseEngine.obj
 0001:000324a6       __unwindfunclet$??0BaseEngine@@QAE@XZ$2 004334a6 f   BaseEngine.obj
 0001:000324b9       __ehhandler$??0BaseEngine@@QAE@XZ 004334b9 f   BaseEngine.obj
 0001:000324d6       __unwindfunclet$?drawAllObjects@BaseEngine@@UAEXXZ$0 004334d6 f   BaseEngine.obj
 0001:000324de       __unwindfunclet$?drawAllObjects@BaseEngine@@UAEXXZ$2 004334de f   BaseEngine.obj
 0001:000324e6       __unwindfunclet$?drawAllObjects@BaseEngine@@UAEXXZ$3 004334e6 f   BaseEngine.obj
 0001:000324ee       __unwindfunclet$?drawAllObjects@BaseEngine@@UAEXXZ$5 004334ee f   BaseEngine.obj
 0001:000324fb       __ehhandler$?drawAllObjects@BaseEngine@@UAEXXZ 004334fb f   BaseEngine.obj
 0001:00032518       __unwindfunclet$?updateAllObjects@BaseEngine@@UAEXH@Z$0 00433518 f   BaseEngine.obj
 0001:00032520       __unwindfunclet$?updateAllObjects@BaseEngine@@UAEXH@Z$2 00433520 f   BaseEngine.obj
 0001:00032528       __unwindfunclet$?updateAllObjects@BaseEngine@@UAEXH@Z$3 00433528 f   BaseEngine.obj
 0001:00032530       __unwindfunclet$?updateAllObjects@BaseEngine@@UAEXH@Z$5 00433530 f   BaseEngine.obj
 0001:0003253d       __ehhandler$?updateAllObjects@BaseEngine@@UAEXH@Z 0043353d f   BaseEngine.obj
 0001:00032590       __unwindfunclet$??$_Construct_n_copies_of_ty@U_Value_init_tag@std@@@?$vector@PAVDisplayableObject@@V?$allocator@PAVDisplayableObject@@@std@@@std@@AAEXIABU_Value_init_tag@1@@Z$0 00433590 f   BaseEngine.obj
 0001:00032598       __unwindfunclet$??$_Construct_n_copies_of_ty@U_Value_init_tag@std@@@?$vector@PAVDisplayableObject@@V?$allocator@PAVDisplayableObject@@@std@@@std@@AAEXIABU_Value_init_tag@1@@Z$1 00433598 f   BaseEngine.obj
 0001:000325a5       __ehhandler$??$_Construct_n_copies_of_ty@U_Value_init_tag@std@@@?$vector@PAVDisplayableObject@@V?$allocator@PAVDisplayableObject@@@std@@@std@@AAEXIABU_Value_init_tag@1@@Z 004335a5 f   BaseEngine.obj
 0001:000325d0       __unwindfunclet$??$for_each@V?$_Vector_iterator@V?$_Vector_val@U?$_Simple_types@PAVDisplayableObject@@@std@@@std@@@std@@V<lambda_2d496414b0c7d43f4e487792af6f686a>@@@std@@YA?AV<lambda_2d496414b0c7d43f4e487792af6f686a>@@V?$_Vector_iterator@V?$_Vector_val@U?$_Simple_types@PAVDisplayableObject@@@std@@@std@@@0@0V1@@Z$0 004335d0 f   BaseEngine.obj
 0001:000325d8       __unwindfunclet$??$for_each@V?$_Vector_iterator@V?$_Vector_val@U?$_Simple_types@PAVDisplayableObject@@@std@@@std@@@std@@V<lambda_2d496414b0c7d43f4e487792af6f686a>@@@std@@YA?AV<lambda_2d496414b0c7d43f4e487792af6f686a>@@V?$_Vector_iterator@V?$_Vector_val@U?$_Simple_types@PAVDisplayableObject@@@std@@@std@@@0@0V1@@Z$1 004335d8 f   BaseEngine.obj
 0001:000325e5       __ehhandler$??$for_each@V?$_Vector_iterator@V?$_Vector_val@U?$_Simple_types@PAVDisplayableObject@@@std@@@std@@@std@@V<lambda_2d496414b0c7d43f4e487792af6f686a>@@@std@@YA?AV<lambda_2d496414b0c7d43f4e487792af6f686a>@@V?$_Vector_iterator@V?$_Vector_val@U?$_Simple_types@PAVDisplayableObject@@@std@@@std@@@0@0V1@@Z 004335e5 f   BaseEngine.obj
 0001:00032610       __unwindfunclet$??$for_each@V?$_Vector_iterator@V?$_Vector_val@U?$_Simple_types@PAVDisplayableObject@@@std@@@std@@@std@@V<lambda_3bf13a20ebaf36ed7ec66e97340dd9ba>@@@std@@YA?AV<lambda_3bf13a20ebaf36ed7ec66e97340dd9ba>@@V?$_Vector_iterator@V?$_Vector_val@U?$_Simple_types@PAVDisplayableObject@@@std@@@std@@@0@0V1@@Z$0 00433610 f   BaseEngine.obj
 0001:00032618       __unwindfunclet$??$for_each@V?$_Vector_iterator@V?$_Vector_val@U?$_Simple_types@PAVDisplayableObject@@@std@@@std@@@std@@V<lambda_3bf13a20ebaf36ed7ec66e97340dd9ba>@@@std@@YA?AV<lambda_3bf13a20ebaf36ed7ec66e97340dd9ba>@@V?$_Vector_iterator@V?$_Vector_val@U?$_Simple_types@PAVDisplayableObject@@@std@@@std@@@0@0V1@@Z$1 00433618 f   BaseEngine.obj
 0001:00032625       __ehhandler$??$for_each@V?$_Vector_iterator@V?$_Vector_val@U?$_Simple_types@PAVDisplayableObject@@@std@@@std@@@std@@V<lambda_3bf13a20ebaf36ed7ec66e97340dd9ba>@@@std@@YA?AV<lambda_3bf13a20ebaf36ed7ec66e97340dd9ba>@@V?$_Vector_iterator@V?$_Vector_val@U?$_Simple_types@PAVDisplayableObject@@@std@@@std@@@0@0V1@@Z 00433625 f   BaseEngine.obj
 0001:00032650       __unwindfunclet$??$for_each@V?$_Vector_iterator@V?$_Vector_val@U?$_Simple_types@PAVDisplayableObject@@@std@@@std@@@std@@V<lambda_4814087fedc56a938eeabe39b7d4bf7e>@@@std@@YA?AV<lambda_4814087fedc56a938eeabe39b7d4bf7e>@@V?$_Vector_iterator@V?$_Vector_val@U?$_Simple_types@PAVDisplayableObject@@@std@@@std@@@0@0V1@@Z$0 00433650 f   BaseEngine.obj
 0001:00032658       __unwindfunclet$??$for_each@V?$_Vector_iterator@V?$_Vector_val@U?$_Simple_types@PAVDisplayableObject@@@std@@@std@@@std@@V<lambda_4814087fedc56a938eeabe39b7d4bf7e>@@@std@@YA?AV<lambda_4814087fedc56a938eeabe39b7d4bf7e>@@V?$_Vector_iterator@V?$_Vector_val@U?$_Simple_types@PAVDisplayableObject@@@std@@@std@@@0@0V1@@Z$1 00433658 f   BaseEngine.obj
 0001:00032665       __ehhandler$??$for_each@V?$_Vector_iterator@V?$_Vector_val@U?$_Simple_types@PAVDisplayableObject@@@std@@@std@@@std@@V<lambda_4814087fedc56a938eeabe39b7d4bf7e>@@@std@@YA?AV<lambda_4814087fedc56a938eeabe39b7d4bf7e>@@V?$_Vector_iterator@V?$_Vector_val@U?$_Simple_types@PAVDisplayableObject@@@std@@@std@@@0@0V1@@Z 00433665 f   BaseEngine.obj
 0001:00032690       __unwindfunclet$??$for_each@V?$_Vector_iterator@V?$_Vector_val@U?$_Simple_types@PAVDisplayableObject@@@std@@@std@@@std@@V<lambda_7e9f32a5da7c3beed7c2ce913dec1468>@@@std@@YA?AV<lambda_7e9f32a5da7c3beed7c2ce913dec1468>@@V?$_Vector_iterator@V?$_Vector_val@U?$_Simple_types@PAVDisplayableObject@@@std@@@std@@@0@0V1@@Z$0 00433690 f   BaseEngine.obj
 0001:00032698       __unwindfunclet$??$for_each@V?$_Vector_iterator@V?$_Vector_val@U?$_Simple_types@PAVDisplayableObject@@@std@@@std@@@std@@V<lambda_7e9f32a5da7c3beed7c2ce913dec1468>@@@std@@YA?AV<lambda_7e9f32a5da7c3beed7c2ce913dec1468>@@V?$_Vector_iterator@V?$_Vector_val@U?$_Simple_types@PAVDisplayableObject@@@std@@@std@@@0@0V1@@Z$1 00433698 f   BaseEngine.obj
 0001:000326a5       __ehhandler$??$for_each@V?$_Vector_iterator@V?$_Vector_val@U?$_Simple_types@PAVDisplayableObject@@@std@@@std@@@std@@V<lambda_7e9f32a5da7c3beed7c2ce913dec1468>@@@std@@YA?AV<lambda_7e9f32a5da7c3beed7c2ce913dec1468>@@V?$_Vector_iterator@V?$_Vector_val@U?$_Simple_types@PAVDisplayableObject@@@std@@@std@@@0@0V1@@Z 004336a5 f   BaseEngine.obj
 0001:000326d0       __unwindfunclet$??$for_each@V?$_Vector_iterator@V?$_Vector_val@U?$_Simple_types@PAVDisplayableObject@@@std@@@std@@@std@@V<lambda_c25f24c7a8fdeae876666db68ecaf488>@@@std@@YA?AV<lambda_c25f24c7a8fdeae876666db68ecaf488>@@V?$_Vector_iterator@V?$_Vector_val@U?$_Simple_types@PAVDisplayableObject@@@std@@@std@@@0@0V1@@Z$0 004336d0 f   BaseEngine.obj
 0001:000326d8       __unwindfunclet$??$for_each@V?$_Vector_iterator@V?$_Vector_val@U?$_Simple_types@PAVDisplayableObject@@@std@@@std@@@std@@V<lambda_c25f24c7a8fdeae876666db68ecaf488>@@@std@@YA?AV<lambda_c25f24c7a8fdeae876666db68ecaf488>@@V?$_Vector_iterator@V?$_Vector_val@U?$_Simple_types@PAVDisplayableObject@@@std@@@std@@@0@0V1@@Z$1 004336d8 f   BaseEngine.obj
 0001:000326e5       __ehhandler$??$for_each@V?$_Vector_iterator@V?$_Vector_val@U?$_Simple_types@PAVDisplayableObject@@@std@@@std@@@std@@V<lambda_c25f24c7a8fdeae876666db68ecaf488>@@@std@@YA?AV<lambda_c25f24c7a8fdeae876666db68ecaf488>@@V?$_Vector_iterator@V?$_Vector_val@U?$_Simple_types@PAVDisplayableObject@@@std@@@std@@@0@0V1@@Z 004336e5 f   BaseEngine.obj
 0001:00032710       __ehhandler$??1DisplayableObjectContainer@@UAE@XZ 00433710 f   BaseEngine.obj
 0001:00032740       __unwindfunclet$??E?$_Vector_iterator@V?$_Vector_val@U?$_Simple_types@PAVDisplayableObject@@@std@@@std@@@std@@QAE?AV01@H@Z$0 00433740 f   BaseEngine.obj
 0001:0003274d       __ehhandler$??E?$_Vector_iterator@V?$_Vector_val@U?$_Simple_types@PAVDisplayableObject@@@std@@@std@@@std@@QAE?AV01@H@Z 0043374d f   BaseEngine.obj
 0001:00032780       __ehhandler$?_Tidy@?$vector@PAVDisplayableObject@@V?$allocator@PAVDisplayableObject@@@std@@@std@@AAEXXZ 00433780 f   BaseEngine.obj
 0001:000327b0       __unwindfunclet$?getFont@FontManager@@QAEPAVFont@@PBDH@Z$0 004337b0 f   FontManager.obj
 0001:000327c4       __ehhandler$?getFont@FontManager@@QAEPAVFont@@PBDH@Z 004337c4 f   FontManager.obj
 0001:000327f0       __unwindfunclet$?virtDrawLabelText@RunningState@@UAEXAAVGameEngine@@@Z$1 004337f0 f   RunningState.obj
 0001:00032800       __ehhandler$?virtDrawLabelText@RunningState@@UAEXAAVGameEngine@@@Z 00433800 f   RunningState.obj
 0001:00032840       __unwindfunclet$??E?$_Vector_const_iterator@V?$_Vector_val@U?$_Simple_types@PAVDisplayableObject@@@std@@@std@@@std@@QAE?AV01@H@Z$0 00433840 f   RunningState.obj
 0001:0003284d       __ehhandler$??E?$_Vector_const_iterator@V?$_Vector_val@U?$_Simple_types@PAVDisplayableObject@@@std@@@std@@@std@@QAE?AV01@H@Z 0043384d f   RunningState.obj
 0001:00032880       __unwindfunclet$?setAllObjectsVisible@DisplayableObjectContainer@@QBEX_N@Z$0 00433880 f   RunningState.obj
 0001:00032888       __unwindfunclet$?setAllObjectsVisible@DisplayableObjectContainer@@QBEX_N@Z$2 00433888 f   RunningState.obj
 0001:00032895       __ehhandler$?setAllObjectsVisible@DisplayableObjectContainer@@QBEX_N@Z 00433895 f   RunningState.obj
 0001:000328c0       __unwindfunclet$??0GameEngine@@QAE@XZ$0 004338c0 f   GameEngine.obj
 0001:000328c8       __unwindfunclet$??0GameEngine@@QAE@XZ$1 004338c8 f   GameEngine.obj
 0001:000328d6       __unwindfunclet$??0GameEngine@@QAE@XZ$2 004338d6 f   GameEngine.obj
 0001:000328e4       __unwindfunclet$??0GameEngine@@QAE@XZ$3 004338e4 f   GameEngine.obj
 0001:000328f2       __unwindfunclet$??0GameEngine@@QAE@XZ$4 004338f2 f   GameEngine.obj
 0001:00032900       __unwindfunclet$??0GameEngine@@QAE@XZ$5 00433900 f   GameEngine.obj
 0001:0003290e       __unwindfunclet$??0GameEngine@@QAE@XZ$6 0043390e f   GameEngine.obj
 0001:0003291c       __unwindfunclet$??0GameEngine@@QAE@XZ$7 0043391c f   GameEngine.obj
 0001:0003292a       __unwindfunclet$??0GameEngine@@QAE@XZ$8 0043392a f   GameEngine.obj
 0001:00032938       __unwindfunclet$??0GameEngine@@QAE@XZ$10 00433938 f   GameEngine.obj
 0001:00032946       __unwindfunclet$??0GameEngine@@QAE@XZ$12 00433946 f   GameEngine.obj
 0001:00032954       __unwindfunclet$??0GameEngine@@QAE@XZ$14 00433954 f   GameEngine.obj
 0001:00032962       __unwindfunclet$??0GameEngine@@QAE@XZ$16 00433962 f   GameEngine.obj
 0001:00032970       __unwindfunclet$??0GameEngine@@QAE@XZ$18 00433970 f   GameEngine.obj
 0001:0003297e       __unwindfunclet$??0GameEngine@@QAE@XZ$20 0043397e f   GameEngine.obj
 0001:0003298c       __unwindfunclet$??0GameEngine@@QAE@XZ$22 0043398c f   GameEngine.obj
 0001:0003299a       __unwindfunclet$??0GameEngine@@QAE@XZ$24 0043399a f   GameEngine.obj
 0001:000329a8       __unwindfunclet$??0GameEngine@@QAE@XZ$26 004339a8 f   GameEngine.obj
 0001:000329b6       __unwindfunclet$??0GameEngine@@QAE@XZ$28 004339b6 f   GameEngine.obj
 0001:000329c4       __unwindfunclet$??0GameEngine@@QAE@XZ$30 004339c4 f   GameEngine.obj
 0001:000329d2       __unwindfunclet$??0GameEngine@@QAE@XZ$32 004339d2 f   GameEngine.obj
 0001:000329e0       __unwindfunclet$??0GameEngine@@QAE@XZ$34 004339e0 f   GameEngine.obj
 0001:000329ee       __unwindfunclet$??0GameEngine@@QAE@XZ$36 004339ee f   GameEngine.obj
 0001:000329fc       __unwindfunclet$??0GameEngine@@QAE@XZ$38 004339fc f   GameEngine.obj
 0001:00032a0f       __ehhandler$??0GameEngine@@QAE@XZ 00433a0f f   GameEngine.obj
 0001:00032a2f       __unwindfunclet$?virtInitialiseObjects@GameEngine@@UAEHXZ$0 00433a2f f   GameEngine.obj
 0001:00032a3f       __ehhandler$?virtInitialiseObjects@GameEngine@@UAEHXZ 00433a3f f   GameEngine.obj
 0001:00032a5f       __unwindfunclet$??5@YAAAV?$basic_istream@DU?$char_traits@D@std@@@std@@AAV01@AAVGameEngine@@@Z$0 00433a5f f   GameEngine.obj
 0001:00032a67       __unwindfunclet$??5@YAAAV?$basic_istream@DU?$char_traits@D@std@@@std@@AAV01@AAVGameEngine@@@Z$1 00433a67 f   GameEngine.obj
 0001:00032a6f       __unwindfunclet$??5@YAAAV?$basic_istream@DU?$char_traits@D@std@@@std@@AAV01@AAVGameEngine@@@Z$2 00433a6f f   GameEngine.obj
 0001:00032a81       __unwindfunclet$??5@YAAAV?$basic_istream@DU?$char_traits@D@std@@@std@@AAV01@AAVGameEngine@@@Z$3 00433a81 f   GameEngine.obj
 0001:00032a93       __unwindfunclet$??5@YAAAV?$basic_istream@DU?$char_traits@D@std@@@std@@AAV01@AAVGameEngine@@@Z$5 00433a93 f   GameEngine.obj
 0001:00032aad       __ehhandler$??5@YAAAV?$basic_istream@DU?$char_traits@D@std@@@std@@AAV01@AAVGameEngine@@@Z 00433aad f   GameEngine.obj
 0001:00032ad7       __unwindfunclet$?save@GameEngine@@QAEXXZ$0 00433ad7 f   GameEngine.obj
 0001:00032ae7       __ehhandler$?save@GameEngine@@QAEXXZ 00433ae7 f   GameEngine.obj
 0001:00032b07       __unwindfunclet$?readScoreFile@GameEngine@@QAEXXZ$0 00433b07 f   GameEngine.obj
 0001:00032b12       __unwindfunclet$?readScoreFile@GameEngine@@QAEXXZ$1 00433b12 f   GameEngine.obj
 0001:00032b1f       __ehhandler$?readScoreFile@GameEngine@@QAEXXZ 00433b1f f   GameEngine.obj
 0001:00032b49       __unwindfunclet$?updateScoreFile@GameEngine@@QAEXXZ$0 00433b49 f   GameEngine.obj
 0001:00032b59       __ehhandler$?updateScoreFile@GameEngine@@QAEXXZ 00433b59 f   GameEngine.obj
 0001:00032b79       __unwindfunclet$?addBossObject@GameEngine@@QAEXHHH@Z$0 00433b79 f   GameEngine.obj
 0001:00032b90       __ehhandler$?addBossObject@GameEngine@@QAEXHHH@Z 00433b90 f   GameEngine.obj
 0001:00032bad       __unwindfunclet$?addBullet@GameEngine@@QAEXHHH@Z$0 00433bad f   GameEngine.obj
 0001:00032bbc       __unwindfunclet$?addBullet@GameEngine@@QAEXHHH@Z$1 00433bbc f   GameEngine.obj
 0001:00032bcb       __unwindfunclet$?addBullet@GameEngine@@QAEXHHH@Z$2 00433bcb f   GameEngine.obj
 0001:00032bda       __unwindfunclet$?addBullet@GameEngine@@QAEXHHH@Z$3 00433bda f   GameEngine.obj
 0001:00032bee       __ehhandler$?addBullet@GameEngine@@QAEXHHH@Z 00433bee f   GameEngine.obj
 0001:00032c0b       __unwindfunclet$?initialiseEasyObjects@GameEngine@@QAEXXZ$0 00433c0b f   GameEngine.obj
 0001:00032c1d       __unwindfunclet$?initialiseEasyObjects@GameEngine@@QAEXXZ$1 00433c1d f   GameEngine.obj
 0001:00032c2c       __unwindfunclet$?initialiseEasyObjects@GameEngine@@QAEXXZ$3 00433c2c f   GameEngine.obj
 0001:00032c3e       __unwindfunclet$?initialiseEasyObjects@GameEngine@@QAEXXZ$4 00433c3e f   GameEngine.obj
 0001:00032c50       __unwindfunclet$?initialiseEasyObjects@GameEngine@@QAEXXZ$5 00433c50 f   GameEngine.obj
 0001:00032c67       __ehhandler$?initialiseEasyObjects@GameEngine@@QAEXXZ 00433c67 f   GameEngine.obj
 0001:00032c84       __unwindfunclet$?initialiseMediumObjects@GameEngine@@QAEXXZ$0 00433c84 f   GameEngine.obj
 0001:00032c96       __unwindfunclet$?initialiseMediumObjects@GameEngine@@QAEXXZ$1 00433c96 f   GameEngine.obj
 0001:00032ca5       __unwindfunclet$?initialiseMediumObjects@GameEngine@@QAEXXZ$3 00433ca5 f   GameEngine.obj
 0001:00032cb7       __unwindfunclet$?initialiseMediumObjects@GameEngine@@QAEXXZ$4 00433cb7 f   GameEngine.obj
 0001:00032cc9       __unwindfunclet$?initialiseMediumObjects@GameEngine@@QAEXXZ$5 00433cc9 f   GameEngine.obj
 0001:00032cdb       __unwindfunclet$?initialiseMediumObjects@GameEngine@@QAEXXZ$6 00433cdb f   GameEngine.obj
 0001:00032ced       __unwindfunclet$?initialiseMediumObjects@GameEngine@@QAEXXZ$7 00433ced f   GameEngine.obj
 0001:00032d04       __ehhandler$?initialiseMediumObjects@GameEngine@@QAEXXZ 00433d04 f   GameEngine.obj
 0001:00032d24       __unwindfunclet$?initialiseDifficultObjects@GameEngine@@QAEXXZ$0 00433d24 f   GameEngine.obj
 0001:00032d36       __unwindfunclet$?initialiseDifficultObjects@GameEngine@@QAEXXZ$1 00433d36 f   GameEngine.obj
 0001:00032d45       __unwindfunclet$?initialiseDifficultObjects@GameEngine@@QAEXXZ$3 00433d45 f   GameEngine.obj
 0001:00032d57       __unwindfunclet$?initialiseDifficultObjects@GameEngine@@QAEXXZ$4 00433d57 f   GameEngine.obj
 0001:00032d69       __unwindfunclet$?initialiseDifficultObjects@GameEngine@@QAEXXZ$5 00433d69 f   GameEngine.obj
 0001:00032d7b       __unwindfunclet$?initialiseDifficultObjects@GameEngine@@QAEXXZ$6 00433d7b f   GameEngine.obj
 0001:00032d8d       __unwindfunclet$?initialiseDifficultObjects@GameEngine@@QAEXXZ$7 00433d8d f   GameEngine.obj
 0001:00032d9f       __unwindfunclet$?initialiseDifficultObjects@GameEngine@@QAEXXZ$8 00433d9f f   GameEngine.obj
 0001:00032db6       __ehhandler$?initialiseDifficultObjects@GameEngine@@QAEXXZ 00433db6 f   GameEngine.obj
 0001:00032f20       __unwindfunclet$??$?5DU?$char_traits@D@std@@V?$allocator@D@1@@std@@YAAAV?$basic_istream@DU?$char_traits@D@std@@@0@$$QAV10@AAV?$basic_string@DU?$char_traits@D@std@@V?$allocator@D@2@@0@@Z$2 00433f20 f   GameEngine.obj
 0001:00032f28       __unwindfunclet$??$?5DU?$char_traits@D@std@@V?$allocator@D@1@@std@@YAAAV?$basic_istream@DU?$char_traits@D@std@@@0@$$QAV10@AAV?$basic_string@DU?$char_traits@D@std@@V?$allocator@D@2@@0@@Z$3 00433f28 f   GameEngine.obj
 0001:00032f35       __ehhandler$??$?5DU?$char_traits@D@std@@V?$allocator@D@1@@std@@YAAAV?$basic_istream@DU?$char_traits@D@std@@@0@$$QAV10@AAV?$basic_string@DU?$char_traits@D@std@@V?$allocator@D@2@@0@@Z 00433f35 f   GameEngine.obj
 0001:00032f60       __ehhandler$??$_Emplace_reallocate@ABQAVDisplayableObject@@@?$vector@PAVDisplayableObject@@V?$allocator@PAVDisplayableObject@@@std@@@std@@QAEPAPAVDisplayableObject@@QAPAV2@ABQAV2@@Z 00433f60 f   GameEngine.obj
 0001:00032f90       __unwindfunclet$??$find@V?$_Vector_iterator@V?$_Vector_val@U?$_Simple_types@PAVDisplayableObject@@@std@@@std@@@std@@PAVDisplayableObject@@@std@@YA?AV?$_Vector_iterator@V?$_Vector_val@U?$_Simple_types@PAVDisplayableObject@@@std@@@std@@@0@V10@V10@ABQAVDisplayableObject@@@Z$0 00433f90 f   GameEngine.obj
 0001:00032f98       __unwindfunclet$??$find@V?$_Vector_iterator@V?$_Vector_val@U?$_Simple_types@PAVDisplayableObject@@@std@@@std@@@std@@PAVDisplayableObject@@@std@@YA?AV?$_Vector_iterator@V?$_Vector_val@U?$_Simple_types@PAVDisplayableObject@@@std@@@std@@@0@V10@V10@ABQAVDisplayableObject@@@Z$1 00433f98 f   GameEngine.obj
 0001:00032fa5       __ehhandler$??$find@V?$_Vector_iterator@V?$_Vector_val@U?$_Simple_types@PAVDisplayableObject@@@std@@@std@@@std@@PAVDisplayableObject@@@std@@YA?AV?$_Vector_iterator@V?$_Vector_val@U?$_Simple_types@PAVDisplayableObject@@@std@@@std@@@0@V10@V10@ABQAVDisplayableObject@@@Z 00433fa5 f   GameEngine.obj
 0001:00032fd0       __unwindfunclet$??$getline@DU?$char_traits@D@std@@V?$allocator@D@2@@std@@YAAAV?$basic_istream@DU?$char_traits@D@std@@@0@$$QAV10@AAV?$basic_string@DU?$char_traits@D@std@@V?$allocator@D@2@@0@D@Z$2 00433fd0 f   GameEngine.obj
 0001:00032fdd       __ehhandler$??$getline@DU?$char_traits@D@std@@V?$allocator@D@2@@std@@YAAAV?$basic_istream@DU?$char_traits@D@std@@@0@$$QAV10@AAV?$basic_string@DU?$char_traits@D@std@@V?$allocator@D@2@@0@D@Z 00433fdd f   GameEngine.obj
 0001:00033010       __unwindfunclet$??$use_facet@V?$codecvt@DDU_Mbstatet@@@std@@@std@@YAABV?$codecvt@DDU_Mbstatet@@@0@ABVlocale@0@@Z$0 00434010 f   GameEngine.obj
 0001:00033019       __unwindfunclet$??$use_facet@V?$codecvt@DDU_Mbstatet@@@std@@@std@@YAABV?$codecvt@DDU_Mbstatet@@@0@ABVlocale@0@@Z$1 00434019 f   GameEngine.obj
 0001:00033026       __ehhandler$??$use_facet@V?$codecvt@DDU_Mbstatet@@@std@@@std@@YAABV?$codecvt@DDU_Mbstatet@@@0@ABVlocale@0@@Z 00434026 f   GameEngine.obj
 0001:00033050       __unwindfunclet$??$use_facet@V?$ctype@D@std@@@std@@YAABV?$ctype@D@0@ABVlocale@0@@Z$0 00434050 f   GameEngine.obj
 0001:00033059       __unwindfunclet$??$use_facet@V?$ctype@D@std@@@std@@YAABV?$ctype@D@0@ABVlocale@0@@Z$1 00434059 f   GameEngine.obj
 0001:00033066       __ehhandler$??$use_facet@V?$ctype@D@std@@@std@@YAABV?$ctype@D@0@ABVlocale@0@@Z 00434066 f   GameEngine.obj
 0001:00033090       __unwindfunclet$??0?$basic_filebuf@DU?$char_traits@D@std@@@std@@QAE@XZ$0 00434090 f   GameEngine.obj
 0001:0003309e       __ehhandler$??0?$basic_filebuf@DU?$char_traits@D@std@@@std@@QAE@XZ 0043409e f   GameEngine.obj
 0001:000330d0       __unwindfunclet$??0?$basic_fstream@DU?$char_traits@D@std@@@std@@QAE@XZ$0 004340d0 f   GameEngine.obj
 0001:000330ed       __unwindfunclet$??0?$basic_fstream@DU?$char_traits@D@std@@@std@@QAE@XZ$1 004340ed f   GameEngine.obj
 0001:000330fe       __ehhandler$??0?$basic_fstream@DU?$char_traits@D@std@@@std@@QAE@XZ 004340fe f   GameEngine.obj
 0001:00033130       __ehhandler$??0?$basic_string@DU?$char_traits@D@std@@V?$allocator@D@2@@std@@QAE@XZ 00434130 f   GameEngine.obj
 0001:00033160       __unwindfunclet$??0DragableImageObject@@QAE@HHPAVBaseEngine@@V?$basic_string@DU?$char_traits@D@std@@V?$allocator@D@2@@std@@_N2@Z$0 00434160 f   GameEngine.obj
 0001:00033168       __unwindfunclet$??0DragableImageObject@@QAE@HHPAVBaseEngine@@V?$basic_string@DU?$char_traits@D@std@@V?$allocator@D@2@@std@@_N2@Z$1 00434168 f   GameEngine.obj
 0001:00033170       __unwindfunclet$??0DragableImageObject@@QAE@HHPAVBaseEngine@@V?$basic_string@DU?$char_traits@D@std@@V?$allocator@D@2@@std@@_N2@Z$2 00434170 f   GameEngine.obj
 0001:00033178       __unwindfunclet$??0DragableImageObject@@QAE@HHPAVBaseEngine@@V?$basic_string@DU?$char_traits@D@std@@V?$allocator@D@2@@std@@_N2@Z$3 00434178 f   GameEngine.obj
 0001:00033188       __ehhandler$??0DragableImageObject@@QAE@HHPAVBaseEngine@@V?$basic_string@DU?$char_traits@D@std@@V?$allocator@D@2@@std@@_N2@Z 00434188 f   GameEngine.obj
 0001:000331c0       __unwindfunclet$??0MappableImageObject@@QAE@PAVCoordinateMapping@@HHPAVBaseEngine@@V?$basic_string@DU?$char_traits@D@std@@V?$allocator@D@2@@std@@_N3@Z$0 004341c0 f   GameEngine.obj
 0001:000331cd       __ehhandler$??0MappableImageObject@@QAE@PAVCoordinateMapping@@HHPAVBaseEngine@@V?$basic_string@DU?$char_traits@D@std@@V?$allocator@D@2@@std@@_N3@Z 004341cd f   GameEngine.obj
 0001:00033200       __unwindfunclet$??0sentry@?$basic_istream@DU?$char_traits@D@std@@@std@@QAE@AAV12@_N@Z$0 00434200 f   GameEngine.obj
 0001:0003320d       __ehhandler$??0sentry@?$basic_istream@DU?$char_traits@D@std@@@std@@QAE@AAV12@_N@Z 0043420d f   GameEngine.obj
 0001:00033240       __ehhandler$??1?$basic_filebuf@DU?$char_traits@D@std@@@std@@UAE@XZ 00434240 f   GameEngine.obj
 0001:00033270       __ehhandler$??1_Sentry_base@?$basic_istream@DU?$char_traits@D@std@@@std@@QAE@XZ 00434270 f   GameEngine.obj
 0001:000332a0       __ehhandler$?erase@?$vector@PAVDisplayableObject@@V?$allocator@PAVDisplayableObject@@@std@@@std@@QAE?AV?$_Vector_iterator@V?$_Vector_val@U?$_Simple_types@PAVDisplayableObject@@@std@@@std@@@2@V?$_Vector_const_iterator@V?$_Vector_val@U?$_Simple_types@PAVDisplayableObject@@@std@@@std@@@2@@Z 004342a0 f   GameEngine.obj
 0001:000332d0       __unwindfunclet$?open@?$basic_filebuf@DU?$char_traits@D@std@@@std@@QAEPAV12@PBDHH@Z$0 004342d0 f   GameEngine.obj
 0001:000332dd       __ehhandler$?open@?$basic_filebuf@DU?$char_traits@D@std@@@std@@QAEPAV12@PBDHH@Z 004342dd f   GameEngine.obj
 0001:00033310       __unwindfunclet$?removeDisplayableObject@DisplayableObjectContainer@@QAE_NPAVDisplayableObject@@@Z$2 00434310 f   GameEngine.obj
 0001:00033318       __unwindfunclet$?removeDisplayableObject@DisplayableObjectContainer@@QAE_NPAVDisplayableObject@@@Z$3 00434318 f   GameEngine.obj
 0001:00033325       __ehhandler$?removeDisplayableObject@DisplayableObjectContainer@@QAE_NPAVDisplayableObject@@@Z 00434325 f   GameEngine.obj
 0001:00033350       __unwindfunclet$?uflow@?$basic_filebuf@DU?$char_traits@D@std@@@std@@MAEHXZ$0 00434350 f   GameEngine.obj
 0001:0003335d       __ehhandler$?uflow@?$basic_filebuf@DU?$char_traits@D@std@@@std@@MAEHXZ 0043435d f   GameEngine.obj
 0001:000333a0       __unwindfunclet$??0GameMainObject@@QAE@PAVGameEngine@@PAVAdvancedTileManager@@HHHH@Z$0 004343a0 f   GameMainObject.obj
 0001:000333a8       __unwindfunclet$??0GameMainObject@@QAE@PAVGameEngine@@PAVAdvancedTileManager@@HHHH@Z$2 004343a8 f   GameMainObject.obj
 0001:000333b3       __unwindfunclet$??0GameMainObject@@QAE@PAVGameEngine@@PAVAdvancedTileManager@@HHHH@Z$4 004343b3 f   GameMainObject.obj
 0001:000333be       __unwindfunclet$??0GameMainObject@@QAE@PAVGameEngine@@PAVAdvancedTileManager@@HHHH@Z$6 004343be f   GameMainObject.obj
 0001:000333c9       __unwindfunclet$??0GameMainObject@@QAE@PAVGameEngine@@PAVAdvancedTileManager@@HHHH@Z$8 004343c9 f   GameMainObject.obj
 0001:000333d4       __unwindfunclet$??0GameMainObject@@QAE@PAVGameEngine@@PAVAdvancedTileManager@@HHHH@Z$10 004343d4 f   GameMainObject.obj
 0001:000333df       __unwindfunclet$??0GameMainObject@@QAE@PAVGameEngine@@PAVAdvancedTileManager@@HHHH@Z$12 004343df f   GameMainObject.obj
 0001:000333ed       __unwindfunclet$??0GameMainObject@@QAE@PAVGameEngine@@PAVAdvancedTileManager@@HHHH@Z$14 004343ed f   GameMainObject.obj
 0001:000333fb       __unwindfunclet$??0GameMainObject@@QAE@PAVGameEngine@@PAVAdvancedTileManager@@HHHH@Z$16 004343fb f   GameMainObject.obj
 0001:00033409       __unwindfunclet$??0GameMainObject@@QAE@PAVGameEngine@@PAVAdvancedTileManager@@HHHH@Z$18 00434409 f   GameMainObject.obj
 0001:0003341c       __ehhandler$??0GameMainObject@@QAE@PAVGameEngine@@PAVAdvancedTileManager@@HHHH@Z 0043441c f   GameMainObject.obj
 0001:00033460       __unwindfunclet$??0AdvancedTileManager@@QAE@XZ$0 00434460 f   AdvancedTileManager.obj
 0001:00033468       __unwindfunclet$??0AdvancedTileManager@@QAE@XZ$2 00434468 f   AdvancedTileManager.obj
 0001:00033473       __unwindfunclet$??0AdvancedTileManager@@QAE@XZ$4 00434473 f   AdvancedTileManager.obj
 0001:0003347e       __unwindfunclet$??0AdvancedTileManager@@QAE@XZ$6 0043447e f   AdvancedTileManager.obj
 0001:00033489       __unwindfunclet$??0AdvancedTileManager@@QAE@XZ$8 00434489 f   AdvancedTileManager.obj
 0001:00033494       __unwindfunclet$??0AdvancedTileManager@@QAE@XZ$10 00434494 f   AdvancedTileManager.obj
 0001:0003349f       __unwindfunclet$??0AdvancedTileManager@@QAE@XZ$12 0043449f f   AdvancedTileManager.obj
 0001:000334aa       __unwindfunclet$??0AdvancedTileManager@@QAE@XZ$14 004344aa f   AdvancedTileManager.obj
 0001:000334b8       __unwindfunclet$??0AdvancedTileManager@@QAE@XZ$16 004344b8 f   AdvancedTileManager.obj
 0001:000334c6       __unwindfunclet$??0AdvancedTileManager@@QAE@XZ$18 004344c6 f   AdvancedTileManager.obj
 0001:000334d4       __unwindfunclet$??0AdvancedTileManager@@QAE@XZ$20 004344d4 f   AdvancedTileManager.obj
 0001:000334e2       __unwindfunclet$??0AdvancedTileManager@@QAE@XZ$22 004344e2 f   AdvancedTileManager.obj
 0001:000334f0       __unwindfunclet$??0AdvancedTileManager@@QAE@XZ$24 004344f0 f   AdvancedTileManager.obj
 0001:000334fe       __unwindfunclet$??0AdvancedTileManager@@QAE@XZ$26 004344fe f   AdvancedTileManager.obj
 0001:0003350c       __unwindfunclet$??0AdvancedTileManager@@QAE@XZ$28 0043450c f   AdvancedTileManager.obj
 0001:0003351a       __unwindfunclet$??0AdvancedTileManager@@QAE@XZ$30 0043451a f   AdvancedTileManager.obj
 0001:00033528       __unwindfunclet$??0AdvancedTileManager@@QAE@XZ$32 00434528 f   AdvancedTileManager.obj
 0001:0003353b       __ehhandler$??0AdvancedTileManager@@QAE@XZ 0043453b f   AdvancedTileManager.obj
 0001:000335a0       __unwindfunclet$??0RawImageData@@QAE@ABV?$shared_ptr@VRawImageData@@@std@@H@Z$0 004345a0 f   RawImage.obj
 0001:000335b0       __ehhandler$??0RawImageData@@QAE@ABV?$shared_ptr@VRawImageData@@@std@@H@Z 004345b0 f   RawImage.obj
 0001:000335cd       __unwindfunclet$??0RawImageData@@QAE@HHABV?$shared_ptr@VRawImageData@@@std@@@Z$0 004345cd f   RawImage.obj
 0001:000335dd       __ehhandler$??0RawImageData@@QAE@HHABV?$shared_ptr@VRawImageData@@@std@@@Z 004345dd f   RawImage.obj
 0001:00033610       __unwindfunclet$?_Facet_Register@std@@YAXPAV_Facet_base@1@@Z$0 00434610 f   msvcprtd:locale0_implib.obj
 0001:0003361b       __ehhandler$?_Facet_Register@std@@YAXPAV_Facet_base@1@@Z 0043461b f   msvcprtd:locale0_implib.obj
 0001:00034740       ??__F_Fac_tidy_reg@std@@YAXXZ 00435740 f   msvcprtd:locale0_implib.obj
 0002:00000104       ?pre_cpp_initializer@@3P6AXXZA 00437104     MSVCRTD:exe_main.obj
 0002:00000208       ?_Fac_tidy_reg$initializer$@std@@3P6AXXZA 00437208     msvcprtd:locale0_implib.obj
 0002:00000514       ?pre_c_initializer@@3P6AHXZA 00437514     MSVCRTD:exe_main.obj
 0002:00000618       ?post_pgo_initializer@@3P6AHXZA 00437618     MSVCRTD:exe_main.obj
 0002:00000c30       $SG93671                   00437c30     AutomatedObject.obj
 0002:00000d24       $SG93672                   00437d24     AutomatedObject.obj
 0002:00000d28       $SG93673                   00437d28     AutomatedObject.obj
 0002:00000d90       $SG93674                   00437d90     AutomatedObject.obj
 0002:00000e60       $SG93675                   00437e60     AutomatedObject.obj
 0002:00000e80       $SG93676                   00437e80     AutomatedObject.obj
 0002:0000107c       $SG96911                   0043807c     AutomatedObject.obj
 0002:00001090       $SG96912                   00438090     AutomatedObject.obj
 0002:00001094       $SG97348                   00438094     AutomatedObject.obj
 0002:000010b0       $SG96913                   004380b0     AutomatedObject.obj
 0002:00001118       $SG96914                   00438118     AutomatedObject.obj
 0002:000011e8       $SG96915                   004381e8     AutomatedObject.obj
 0002:00001238       $SG96916                   00438238     AutomatedObject.obj
 0002:00001260       $SG97187                   00438260     AutomatedObject.obj
 0002:000012c8       $SG97349                   004382c8     AutomatedObject.obj
 0002:000012cc       $SG97352                   004382cc     AutomatedObject.obj
 0002:000012f8       $SG97350                   004382f8     AutomatedObject.obj
 0002:00001364       $SG97353                   00438364     AutomatedObject.obj
 0002:000013a0       $SG97351                   004383a0     AutomatedObject.obj
 0002:00001660       $SG99997                   00438660     Boss.obj
 0002:00001674       $SG99998                   00438674     Boss.obj
 0002:00001678       $SG99999                   00438678     Boss.obj
 0002:000016e0       $SG100000                  004386e0     Boss.obj
 0002:000017b0       $SG100001                  004387b0     Boss.obj
 0002:00001800       $SG100002                  00438800     Boss.obj
 0002:00001828       $SG100545                  00438828     Boss.obj
 0002:00001890       $SG100729                  00438890     Boss.obj
 0002:000018ac       $SG100730                  004388ac     Boss.obj
 0002:000018b0       $SG100731                  004388b0     Boss.obj
 0002:0000191c       $SG100733                  0043891c     Boss.obj
 0002:00001948       $SG100732                  00438948     Boss.obj
 0002:00001a1c       $SG100734                  00438a1c     Boss.obj
 0002:00001a54       $SG86506                   00438a54     Boss.obj
 0002:00001a68       $SG86507                   00438a68     Boss.obj
 0002:00001a80       $SG86508                   00438a80     Boss.obj
 0002:00001a98       $SG86509                   00438a98     Boss.obj
 0002:00001ab0       $SG86510                   00438ab0     Boss.obj
 0002:00001ac8       $SG86511                   00438ac8     Boss.obj
 0002:00001ae0       $SG86512                   00438ae0     Boss.obj
 0002:00001afc       $SG86513                   00438afc     Boss.obj
 0002:00001b18       $SG86514                   00438b18     Boss.obj
 0002:00001b34       $SG87359                   00438b34     Boss.obj
 0002:00001b48       $SG96362                   00438b48     Boss.obj
 0002:00001c3c       $SG96363                   00438c3c     Boss.obj
 0002:00001c40       $SG96364                   00438c40     Boss.obj
 0002:00001ca8       $SG96365                   00438ca8     Boss.obj
 0002:00001d78       $SG96366                   00438d78     Boss.obj
 0002:00001d98       $SG96367                   00438d98     Boss.obj
 0002:00003fa8       $SG85605                   0043afa8     Bullet.obj
 0002:00003fc0       $SG93838                   0043afc0     Bullet.obj
 0002:000040b4       $SG93839                   0043b0b4     Bullet.obj
 0002:000040b8       $SG93840                   0043b0b8     Bullet.obj
 0002:00004120       $SG93841                   0043b120     Bullet.obj
 0002:000041f0       $SG93842                   0043b1f0     Bullet.obj
 0002:00004210       $SG93843                   0043b210     Bullet.obj
 0002:0000440c       $SG97078                   0043b40c     Bullet.obj
 0002:00004420       $SG97079                   0043b420     Bullet.obj
 0002:00004424       $SG97515                   0043b424     Bullet.obj
 0002:00004440       $SG97080                   0043b440     Bullet.obj
 0002:000044a8       $SG97081                   0043b4a8     Bullet.obj
 0002:00004578       $SG97082                   0043b578     Bullet.obj
 0002:000045c8       $SG97083                   0043b5c8     Bullet.obj
 0002:000045f0       $SG97354                   0043b5f0     Bullet.obj
 0002:00004658       $SG97516                   0043b658     Bullet.obj
 0002:0000465c       $SG97519                   0043b65c     Bullet.obj
 0002:00004688       $SG97517                   0043b688     Bullet.obj
 0002:000046f4       $SG97520                   0043b6f4     Bullet.obj
 0002:00004730       $SG97518                   0043b730     Bullet.obj
 0002:00004a00       $SG150362                  0043ba00     DrawingSurface.obj
 0002:00004a14       $SG150363                  0043ba14     DrawingSurface.obj
 0002:00004a18       $SG150364                  0043ba18     DrawingSurface.obj
 0002:00004a80       $SG150365                  0043ba80     DrawingSurface.obj
 0002:00004b50       $SG150366                  0043bb50     DrawingSurface.obj
 0002:00004ba0       $SG150367                  0043bba0     DrawingSurface.obj
 0002:00004bc8       $SG150638                  0043bbc8     DrawingSurface.obj
 0002:00004c30       $SG150799                  0043bc30     DrawingSurface.obj
 0002:00004c4c       $SG150800                  0043bc4c     DrawingSurface.obj
 0002:00004c50       $SG150801                  0043bc50     DrawingSurface.obj
 0002:00004cbc       $SG150803                  0043bcbc     DrawingSurface.obj
 0002:00004ce8       $SG150802                  0043bce8     DrawingSurface.obj
 0002:00004dbc       $SG150804                  0043bdbc     DrawingSurface.obj
 0002:00004df4       $SG147119                  0043bdf4     DrawingSurface.obj
 0002:00004df8       $SG147118                  0043bdf8     DrawingSurface.obj
 0002:00004eec       $SG147122                  0043beec     DrawingSurface.obj
 0002:00004f10       $SG147120                  0043bf10     DrawingSurface.obj
 0002:00004f78       $SG147121                  0043bf78     DrawingSurface.obj
 0002:00005048       $SG147123                  0043c048     DrawingSurface.obj
 0002:00005680       $SG84610                   0043c680     EndState.obj
 0002:00005694       $SG84613                   0043c694     EndState.obj
 0002:0000569c       $SG84615                   0043c69c     EndState.obj
 0002:000056a8       $SG84616                   0043c6a8     EndState.obj
 0002:000056b8       $SG84617                   0043c6b8     EndState.obj
 0002:000056c4       $SG92914                   0043c6c4     EndState.obj
 0002:000056c8       $SG92913                   0043c6c8     EndState.obj
 0002:000057bc       $SG92917                   0043c7bc     EndState.obj
 0002:000057dc       $SG96136                   0043c7dc     EndState.obj
 0002:000057f0       $SG92915                   0043c7f0     EndState.obj
 0002:00005858       $SG92916                   0043c858     EndState.obj
 0002:00005928       $SG92918                   0043c928     EndState.obj
 0002:00005b24       $SG96137                   0043cb24     EndState.obj
 0002:00005b28       $SG96138                   0043cb28     EndState.obj
 0002:00005b90       $SG96139                   0043cb90     EndState.obj
 0002:00005c60       $SG96140                   0043cc60     EndState.obj
 0002:00005cb0       $SG96141                   0043ccb0     EndState.obj
 0002:00005cd8       $SG96412                   0043ccd8     EndState.obj
 0002:00005d40       $SG96565                   0043cd40     EndState.obj
 0002:00005d5c       $SG96566                   0043cd5c     EndState.obj
 0002:00005d60       $SG96567                   0043cd60     EndState.obj
 0002:00005dcc       $SG96569                   0043cdcc     EndState.obj
 0002:00005df8       $SG96568                   0043cdf8     EndState.obj
 0002:00005ecc       $SG96570                   0043cecc     EndState.obj
 0002:00006120       $SG84860                   0043d120     Guard.obj
 0002:00006138       $SG84861                   0043d138     Guard.obj
 0002:00006150       $SG84862                   0043d150     Guard.obj
 0002:0000616c       $SG84863                   0043d16c     Guard.obj
 0002:00006184       $SG84864                   0043d184     Guard.obj
 0002:000061a0       $SG84865                   0043d1a0     Guard.obj
 0002:000061bc       $SG84866                   0043d1bc     Guard.obj
 0002:000061d8       $SG84867                   0043d1d8     Guard.obj
 0002:000061f4       $SG84868                   0043d1f4     Guard.obj
 0002:00006208       $SG93149                   0043d208     Guard.obj
 0002:000062fc       $SG93150                   0043d2fc     Guard.obj
 0002:00006300       $SG93151                   0043d300     Guard.obj
 0002:00006368       $SG93152                   0043d368     Guard.obj
 0002:00006438       $SG93153                   0043d438     Guard.obj
 0002:00006458       $SG93154                   0043d458     Guard.obj
 0002:00006654       $SG96389                   0043d654     Guard.obj
 0002:00006668       $SG96390                   0043d668     Guard.obj
 0002:0000666c       $SG96826                   0043d66c     Guard.obj
 0002:00006688       $SG96391                   0043d688     Guard.obj
 0002:000066f0       $SG96392                   0043d6f0     Guard.obj
 0002:000067c0       $SG96393                   0043d7c0     Guard.obj
 0002:00006810       $SG96394                   0043d810     Guard.obj
 0002:00006838       $SG96665                   0043d838     Guard.obj
 0002:000068a0       $SG96827                   0043d8a0     Guard.obj
 0002:000068a4       $SG96830                   0043d8a4     Guard.obj
 0002:000068d0       $SG96828                   0043d8d0     Guard.obj
 0002:0000693c       $SG96831                   0043d93c     Guard.obj
 0002:00006978       $SG96829                   0043d978     Guard.obj
 0002:00006c68       $SG92798                   0043dc68     HelpState.obj
 0002:00006d5c       $SG92799                   0043dd5c     HelpState.obj
 0002:00006d60       $SG84607                   0043dd60     HelpState.obj
 0002:00006d68       $SG92800                   0043dd68     HelpState.obj
 0002:00006dd0       $SG92801                   0043ddd0     HelpState.obj
 0002:00006ea0       $SG92802                   0043dea0     HelpState.obj
 0002:00006ec0       $SG92803                   0043dec0     HelpState.obj
 0002:000070bc       $SG96040                   0043e0bc     HelpState.obj
 0002:000070d0       $SG96041                   0043e0d0     HelpState.obj
 0002:000070d4       $SG96477                   0043e0d4     HelpState.obj
 0002:000070f0       $SG96042                   0043e0f0     HelpState.obj
 0002:00007158       $SG96043                   0043e158     HelpState.obj
 0002:00007228       $SG96044                   0043e228     HelpState.obj
 0002:00007278       $SG96045                   0043e278     HelpState.obj
 0002:000072a0       $SG96316                   0043e2a0     HelpState.obj
 0002:00007308       $SG96478                   0043e308     HelpState.obj
 0002:0000730c       $SG96481                   0043e30c     HelpState.obj
 0002:00007338       $SG96479                   0043e338     HelpState.obj
 0002:000073a4       $SG96482                   0043e3a4     HelpState.obj
 0002:000073e0       $SG96480                   0043e3e0     HelpState.obj
 0002:00007660       $SG93073                   0043e660     mainfunction.obj
 0002:00007754       $SG93074                   0043e754     mainfunction.obj
 0002:00007758       $SG93075                   0043e758     mainfunction.obj
 0002:000077c0       $SG93076                   0043e7c0     mainfunction.obj
 0002:00007890       $SG93077                   0043e890     mainfunction.obj
 0002:000078b0       $SG93078                   0043e8b0     mainfunction.obj
 0002:00007aac       $SG84901                   0043eaac     mainfunction.obj
 0002:00007adc       $SG84902                   0043eadc     mainfunction.obj
 0002:00007af4       $SG96313                   0043eaf4     mainfunction.obj
 0002:00007b08       $SG96314                   0043eb08     mainfunction.obj
 0002:00007b0c       $SG96750                   0043eb0c     mainfunction.obj
 0002:00007b28       $SG96315                   0043eb28     mainfunction.obj
 0002:00007b90       $SG96316                   0043eb90     mainfunction.obj
 0002:00007c60       $SG96317                   0043ec60     mainfunction.obj
 0002:00007cb0       $SG96318                   0043ecb0     mainfunction.obj
 0002:00007cd8       $SG96589                   0043ecd8     mainfunction.obj
 0002:00007d40       $SG96751                   0043ed40     mainfunction.obj
 0002:00007d44       $SG96754                   0043ed44     mainfunction.obj
 0002:00007d70       $SG96752                   0043ed70     mainfunction.obj
 0002:00007ddc       $SG96755                   0043eddc     mainfunction.obj
 0002:00007e18       $SG96753                   0043ee18     mainfunction.obj
 0002:000080a8       $SG149946                  0043f0a8     BaseEngine.obj
 0002:000080bc       $SG149947                  0043f0bc     BaseEngine.obj
 0002:000080c0       $SG149948                  0043f0c0     BaseEngine.obj
 0002:00008128       $SG149949                  0043f128     BaseEngine.obj
 0002:000081f8       $SG149950                  0043f1f8     BaseEngine.obj
 0002:00008248       $SG149951                  0043f248     BaseEngine.obj
 0002:00008270       $SG150222                  0043f270     BaseEngine.obj
 0002:000082d8       $SG150383                  0043f2d8     BaseEngine.obj
 0002:000082f4       $SG150384                  0043f2f4     BaseEngine.obj
 0002:000082f8       $SG150385                  0043f2f8     BaseEngine.obj
 0002:00008364       $SG150387                  0043f364     BaseEngine.obj
 0002:00008390       $SG150386                  0043f390     BaseEngine.obj
 0002:00008464       $SG150388                  0043f464     BaseEngine.obj
 0002:0000849c       $SG138044                  0043f49c     BaseEngine.obj
 0002:000084cc       $SG138077                  0043f4cc     BaseEngine.obj
 0002:000084e4       $SG146679                  0043f4e4     BaseEngine.obj
 0002:000084e8       $SG146678                  0043f4e8     BaseEngine.obj
 0002:000085dc       $SG146682                  0043f5dc     BaseEngine.obj
 0002:00008600       $SG146680                  0043f600     BaseEngine.obj
 0002:00008668       $SG146681                  0043f668     BaseEngine.obj
 0002:00008738       $SG146683                  0043f738     BaseEngine.obj
 0002:000093d8       $SG91793                   004403d8     DisplayableObject.obj
 0002:000094cc       $SG91794                   004404cc     DisplayableObject.obj
 0002:000094d0       $SG91795                   004404d0     DisplayableObject.obj
 0002:00009538       $SG91796                   00440538     DisplayableObject.obj
 0002:00009608       $SG91797                   00440608     DisplayableObject.obj
 0002:00009628       $SG91798                   00440628     DisplayableObject.obj
 0002:00009824       $SG95033                   00440824     DisplayableObject.obj
 0002:00009838       $SG95034                   00440838     DisplayableObject.obj
 0002:0000983c       $SG95470                   0044083c     DisplayableObject.obj
 0002:00009858       $SG95035                   00440858     DisplayableObject.obj
 0002:000098c0       $SG95036                   004408c0     DisplayableObject.obj
 0002:00009990       $SG95037                   00440990     DisplayableObject.obj
 0002:000099e0       $SG95038                   004409e0     DisplayableObject.obj
 0002:00009a08       $SG95309                   00440a08     DisplayableObject.obj
 0002:00009a70       $SG95471                   00440a70     DisplayableObject.obj
 0002:00009a74       $SG95474                   00440a74     DisplayableObject.obj
 0002:00009aa0       $SG95472                   00440aa0     DisplayableObject.obj
 0002:00009b0c       $SG95475                   00440b0c     DisplayableObject.obj
 0002:00009b48       $SG95473                   00440b48     DisplayableObject.obj
 0002:00009e08       $SG77899                   00440e08     FontManager.obj
 0002:00009e1c       $SG77900                   00440e1c     FontManager.obj
 0002:00009e20       $SG77901                   00440e20     FontManager.obj
 0002:00009e88       $SG77902                   00440e88     FontManager.obj
 0002:00009f58       $SG77903                   00440f58     FontManager.obj
 0002:00009fa8       $SG77904                   00440fa8     FontManager.obj
 0002:00009fd0       $SG77930                   00440fd0     FontManager.obj
 0002:0000a038       $SG69896                   00441038     FontManager.obj
 0002:0000a054       $SG69900                   00441054     FontManager.obj
 0002:0000a100       $SG92803                   00441100     PauseState.obj
 0002:0000a1f4       $SG84611                   004411f4     PauseState.obj
 0002:0000a214       $SG92804                   00441214     PauseState.obj
 0002:0000a218       $SG92805                   00441218     PauseState.obj
 0002:0000a280       $SG92806                   00441280     PauseState.obj
 0002:0000a350       $SG92807                   00441350     PauseState.obj
 0002:0000a370       $SG92808                   00441370     PauseState.obj
 0002:0000a56c       $SG96045                   0044156c     PauseState.obj
 0002:0000a580       $SG96046                   00441580     PauseState.obj
 0002:0000a584       $SG96482                   00441584     PauseState.obj
 0002:0000a5a0       $SG96047                   004415a0     PauseState.obj
 0002:0000a608       $SG96048                   00441608     PauseState.obj
 0002:0000a6d8       $SG96049                   004416d8     PauseState.obj
 0002:0000a728       $SG96050                   00441728     PauseState.obj
 0002:0000a750       $SG96321                   00441750     PauseState.obj
 0002:0000a7b8       $SG96483                   004417b8     PauseState.obj
 0002:0000a7bc       $SG96486                   004417bc     PauseState.obj
 0002:0000a7e8       $SG96484                   004417e8     PauseState.obj
 0002:0000a854       $SG96487                   00441854     PauseState.obj
 0002:0000a890       $SG96485                   00441890     PauseState.obj
 0002:0000ab38       $SG84622                   00441b38     RunningState.obj
 0002:0000ab48       $SG84623                   00441b48     RunningState.obj
 0002:0000ab50       $SG84624                   00441b50     RunningState.obj
 0002:0000ab58       $SG84625                   00441b58     RunningState.obj
 0002:0000ab6c       $SG84653                   00441b6c     RunningState.obj
 0002:0000ab90       $SG92845                   00441b90     RunningState.obj
 0002:0000ac84       $SG92846                   00441c84     RunningState.obj
 0002:0000ac88       $SG84654                   00441c88     RunningState.obj
 0002:0000aca0       $SG92847                   00441ca0     RunningState.obj
 0002:0000ad08       $SG84655                   00441d08     RunningState.obj
 0002:0000ad0c       $SG84656                   00441d0c     RunningState.obj
 0002:0000ad24       $SG84668                   00441d24     RunningState.obj
 0002:0000ad38       $SG92848                   00441d38     RunningState.obj
 0002:0000ae08       $SG92849                   00441e08     RunningState.obj
 0002:0000ae28       $SG84657                   00441e28     RunningState.obj
 0002:0000ae30       $SG92850                   00441e30     RunningState.obj
 0002:0000b02c       $SG84658                   0044202c     RunningState.obj
 0002:0000b044       $SG84659                   00442044     RunningState.obj
 0002:0000b04c       $SG84660                   0044204c     RunningState.obj
 0002:0000b064       $SG84661                   00442064     RunningState.obj
 0002:0000b06c       $SG84662                   0044206c     RunningState.obj
 0002:0000b084       $SG84663                   00442084     RunningState.obj
 0002:0000b08c       $SG84664                   0044208c     RunningState.obj
 0002:0000b0a4       $SG84665                   004420a4     RunningState.obj
 0002:0000b0ac       $SG84666                   004420ac     RunningState.obj
 0002:0000b0c4       $SG84667                   004420c4     RunningState.obj
 0002:0000b0cc       $SG84669                   004420cc     RunningState.obj
 0002:0000b0d8       $SG84670                   004420d8     RunningState.obj
 0002:0000b0ec       $SG84671                   004420ec     RunningState.obj
 0002:0000b0f8       $SG84672                   004420f8     RunningState.obj
 0002:0000b108       $SG84673                   00442108     RunningState.obj
 0002:0000b118       $SG84674                   00442118     RunningState.obj
 0002:0000b12c       $SG84675                   0044212c     RunningState.obj
 0002:0000b140       $SG84676                   00442140     RunningState.obj
 0002:0000b154       $SG96087                   00442154     RunningState.obj
 0002:0000b168       $SG96088                   00442168     RunningState.obj
 0002:0000b16c       $SG96524                   0044216c     RunningState.obj
 0002:0000b188       $SG96089                   00442188     RunningState.obj
 0002:0000b1f0       $SG96090                   004421f0     RunningState.obj
 0002:0000b2c0       $SG96091                   004422c0     RunningState.obj
 0002:0000b310       $SG96092                   00442310     RunningState.obj
 0002:0000b338       $SG96363                   00442338     RunningState.obj
 0002:0000b3a0       $SG96525                   004423a0     RunningState.obj
 0002:0000b3a4       $SG96528                   004423a4     RunningState.obj
 0002:0000b3d0       $SG96526                   004423d0     RunningState.obj
 0002:0000b43c       $SG96529                   0044243c     RunningState.obj
 0002:0000b478       $SG96527                   00442478     RunningState.obj
 0002:0000b778       $SG99746                   00442778     GameEngine.obj
 0002:0000b78c       $SG99747                   0044278c     GameEngine.obj
 0002:0000b790       $SG99748                   00442790     GameEngine.obj
 0002:0000b7f8       $SG99749                   004427f8     GameEngine.obj
 0002:0000b8c8       $SG99750                   004428c8     GameEngine.obj
 0002:0000b918       $SG99751                   00442918     GameEngine.obj
 0002:0000b940       $SG100022                  00442940     GameEngine.obj
 0002:0000b9a8       $SG100197                  004429a8     GameEngine.obj
 0002:0000b9c4       $SG100198                  004429c4     GameEngine.obj
 0002:0000b9c8       $SG100199                  004429c8     GameEngine.obj
 0002:0000ba34       $SG100201                  00442a34     GameEngine.obj
 0002:0000ba60       $SG100200                  00442a60     GameEngine.obj
 0002:0000bb34       $SG100202                  00442b34     GameEngine.obj
 0002:0000bb6c       $SG86484                   00442b6c     GameEngine.obj
 0002:0000bb70       $SG86485                   00442b70     GameEngine.obj
 0002:0000bb88       $SG86486                   00442b88     GameEngine.obj
 0002:0000bba4       $SG86487                   00442ba4     GameEngine.obj
 0002:0000bbbc       $SG86488                   00442bbc     GameEngine.obj
 0002:0000bbd4       $SG86489                   00442bd4     GameEngine.obj
 0002:0000bbf0       $SG86490                   00442bf0     GameEngine.obj
 0002:0000bc08       $SG86491                   00442c08     GameEngine.obj
 0002:0000bc20       $SG86492                   00442c20     GameEngine.obj
 0002:0000bc38       $SG86493                   00442c38     GameEngine.obj
 0002:0000bc50       $SG86494                   00442c50     GameEngine.obj
 0002:0000bc68       $SG86495                   00442c68     GameEngine.obj
 0002:0000bc80       $SG86496                   00442c80     GameEngine.obj
 0002:0000bc98       $SG86497                   00442c98     GameEngine.obj
 0002:0000bcb4       $SG86498                   00442cb4     GameEngine.obj
 0002:0000bccc       $SG86499                   00442ccc     GameEngine.obj
 0002:0000bce4       $SG86500                   00442ce4     GameEngine.obj
 0002:0000bcfc       $SG86828                   00442cfc     GameEngine.obj
 0002:0000bd08       $SG86831                   00442d08     GameEngine.obj
 0002:0000bd18       $SG86832                   00442d18     GameEngine.obj
 0002:0000bd2c       $SG86856                   00442d2c     GameEngine.obj
 0002:0000bd40       $SG86887                   00442d40     GameEngine.obj
 0002:0000bd54       $SG86923                   00442d54     GameEngine.obj
 0002:0000bd68       $SG86962                   00442d68     GameEngine.obj
 0002:0000bd74       $SG86965                   00442d74     GameEngine.obj
 0002:0000bd84       $SG86966                   00442d84     GameEngine.obj
 0002:0000bd98       $SG87130                   00442d98     GameEngine.obj
 0002:0000bda0       $SG87133                   00442da0     GameEngine.obj
 0002:0000bda8       $SG87135                   00442da8     GameEngine.obj
 0002:0000bdb4       $SG87137                   00442db4     GameEngine.obj
 0002:0000bdc0       $SG87139                   00442dc0     GameEngine.obj
 0002:0000bdc8       $SG87141                   00442dc8     GameEngine.obj
 0002:0000bdd0       $SG87143                   00442dd0     GameEngine.obj
 0002:0000bddc       $SG87145                   00442ddc     GameEngine.obj
 0002:0000bde4       $SG87146                   00442de4     GameEngine.obj
 0002:0000bde8       $SG87267                   00442de8     GameEngine.obj
 0002:0000bdf0       $SG87270                   00442df0     GameEngine.obj
 0002:0000bdf8       $SG87272                   00442df8     GameEngine.obj
 0002:0000be04       $SG87275                   00442e04     GameEngine.obj
 0002:0000be0c       $SG87278                   00442e0c     GameEngine.obj
 0002:0000be18       $SG87282                   00442e18     GameEngine.obj
 0002:0000be24       $SG87284                   00442e24     GameEngine.obj
 0002:0000be38       $SG87287                   00442e38     GameEngine.obj
 0002:0000be40       $SG87290                   00442e40     GameEngine.obj
 0002:0000be48       $SG87319                   00442e48     GameEngine.obj
 0002:0000be4c       $SG87320                   00442e4c     GameEngine.obj
 0002:0000be68       $SG87321                   00442e68     GameEngine.obj
 0002:0000be7c       $SG87324                   00442e7c     GameEngine.obj
 0002:0000bea0       $SG87325                   00442ea0     GameEngine.obj
 0002:0000bea8       $SG87327                   00442ea8     GameEngine.obj
 0002:0000beac       $SG87328                   00442eac     GameEngine.obj
 0002:0000bec4       $SG87330                   00442ec4     GameEngine.obj
 0002:0000bec8       $SG87331                   00442ec8     GameEngine.obj
 0002:0000bee0       $SG87333                   00442ee0     GameEngine.obj
 0002:0000bee4       $SG87334                   00442ee4     GameEngine.obj
 0002:0000befc       $SG87336                   00442efc     GameEngine.obj
 0002:0000bf00       $SG87337                   00442f00     GameEngine.obj
 0002:0000bf14       $SG87339                   00442f14     GameEngine.obj
 0002:0000bf18       $SG87340                   00442f18     GameEngine.obj
 0002:0000bf30       $SG87342                   00442f30     GameEngine.obj
 0002:0000bf34       $SG87343                   00442f34     GameEngine.obj
 0002:0000bf48       $SG87370                   00442f48     GameEngine.obj
 0002:0000bf54       $SG87373                   00442f54     GameEngine.obj
 0002:0000bf64       $SG87397                   00442f64     GameEngine.obj
 0002:0000bf70       $SG87400                   00442f70     GameEngine.obj
 0002:0000bf80       $SG87404                   00442f80     GameEngine.obj
 0002:0000bf84       $SG87405                   00442f84     GameEngine.obj
 0002:0000bf88       $SG87485                   00442f88     GameEngine.obj
 0002:0000bf98       $SG96191                   00442f98     GameEngine.obj
 0002:0000c08c       $SG96192                   0044308c     GameEngine.obj
 0002:0000c090       $SG96193                   00443090     GameEngine.obj
 0002:0000c0f8       $SG96194                   004430f8     GameEngine.obj
 0002:0000c1c8       $SG96195                   004431c8     GameEngine.obj
 0002:0000c1e8       $SG96196                   004431e8     GameEngine.obj
 0002:0000cd78       $SG84859                   00443d78     GameMainObject.obj
 0002:0000cd90       $SG84860                   00443d90     GameMainObject.obj
 0002:0000cda8       $SG84861                   00443da8     GameMainObject.obj
 0002:0000cdc0       $SG84862                   00443dc0     GameMainObject.obj
 0002:0000cdd8       $SG84863                   00443dd8     GameMainObject.obj
 0002:0000cdf0       $SG84864                   00443df0     GameMainObject.obj
 0002:0000ce0c       $SG84865                   00443e0c     GameMainObject.obj
 0002:0000ce28       $SG84866                   00443e28     GameMainObject.obj
 0002:0000ce44       $SG84867                   00443e44     GameMainObject.obj
 0002:0000ce58       $SG84960                   00443e58     GameMainObject.obj
 0002:0000ce60       $SG84961                   00443e60     GameMainObject.obj
 0002:0000ce64       $SG93251                   00443e64     GameMainObject.obj
 0002:0000ce68       $SG93250                   00443e68     GameMainObject.obj
 0002:0000cf5c       $SG93254                   00443f5c     GameMainObject.obj
 0002:0000cf7c       $SG96498                   00443f7c     GameMainObject.obj
 0002:0000cf90       $SG93252                   00443f90     GameMainObject.obj
 0002:0000cff8       $SG93253                   00443ff8     GameMainObject.obj
 0002:0000d0c8       $SG93255                   004440c8     GameMainObject.obj
 0002:0000d2c4       $SG96499                   004442c4     GameMainObject.obj
 0002:0000d2c8       $SG96500                   004442c8     GameMainObject.obj
 0002:0000d330       $SG96501                   00444330     GameMainObject.obj
 0002:0000d400       $SG96502                   00444400     GameMainObject.obj
 0002:0000d450       $SG96503                   00444450     GameMainObject.obj
 0002:0000d478       $SG96774                   00444478     GameMainObject.obj
 0002:0000d4e0       $SG96935                   004444e0     GameMainObject.obj
 0002:0000d4fc       $SG96936                   004444fc     GameMainObject.obj
 0002:0000d500       $SG96937                   00444500     GameMainObject.obj
 0002:0000d56c       $SG96939                   0044456c     GameMainObject.obj
 0002:0000d598       $SG96938                   00444598     GameMainObject.obj
 0002:0000d66c       $SG96940                   0044466c     GameMainObject.obj
 0002:0000d8e8       $SG84923                   004448e8     AdvancedTileManager.obj
 0002:0000d8fc       $SG84924                   004448fc     AdvancedTileManager.obj
 0002:0000d910       $SG84925                   00444910     AdvancedTileManager.obj
 0002:0000d928       $SG84926                   00444928     AdvancedTileManager.obj
 0002:0000d93c       $SG84927                   0044493c     AdvancedTileManager.obj
 0002:0000d950       $SG84928                   00444950     AdvancedTileManager.obj
 0002:0000d964       $SG84929                   00444964     AdvancedTileManager.obj
 0002:0000d97c       $SG84930                   0044497c     AdvancedTileManager.obj
 0002:0000d994       $SG84931                   00444994     AdvancedTileManager.obj
 0002:0000d9a8       $SG84932                   004449a8     AdvancedTileManager.obj
 0002:0000d9c0       $SG84933                   004449c0     AdvancedTileManager.obj
 0002:0000d9d4       $SG84934                   004449d4     AdvancedTileManager.obj
 0002:0000d9f0       $SG84935                   004449f0     AdvancedTileManager.obj
 0002:0000da08       $SG84936                   00444a08     AdvancedTileManager.obj
 0002:0000da24       $SG84937                   00444a24     AdvancedTileManager.obj
 0002:0000da3c       $SG84938                   00444a3c     AdvancedTileManager.obj
 0002:0000da50       $SG84939                   00444a50     AdvancedTileManager.obj
 0002:0000da64       $SG84970                   00444a64     AdvancedTileManager.obj
 0002:0000da78       $SG93165                   00444a78     AdvancedTileManager.obj
 0002:0000db6c       $SG93166                   00444b6c     AdvancedTileManager.obj
 0002:0000db70       $SG93167                   00444b70     AdvancedTileManager.obj
 0002:0000dbd8       $SG93168                   00444bd8     AdvancedTileManager.obj
 0002:0000dca8       $SG93169                   00444ca8     AdvancedTileManager.obj
 0002:0000dcc8       $SG93170                   00444cc8     AdvancedTileManager.obj
 0002:0000dec4       $SG96405                   00444ec4     AdvancedTileManager.obj
 0002:0000ded8       $SG96406                   00444ed8     AdvancedTileManager.obj
 0002:0000dedc       $SG96842                   00444edc     AdvancedTileManager.obj
 0002:0000def8       $SG96407                   00444ef8     AdvancedTileManager.obj
 0002:0000df60       $SG96408                   00444f60     AdvancedTileManager.obj
 0002:0000e030       $SG96409                   00445030     AdvancedTileManager.obj
 0002:0000e080       $SG96410                   00445080     AdvancedTileManager.obj
 0002:0000e0a8       $SG96681                   004450a8     AdvancedTileManager.obj
 0002:0000e110       $SG96843                   00445110     AdvancedTileManager.obj
 0002:0000e114       $SG96846                   00445114     AdvancedTileManager.obj
 0002:0000e140       $SG96844                   00445140     AdvancedTileManager.obj
 0002:0000e1ac       $SG96847                   004451ac     AdvancedTileManager.obj
 0002:0000e1e8       $SG96845                   004451e8     AdvancedTileManager.obj
 0002:0000e4d8       $SG85044                   004454d8     SelectState.obj
 0002:0000e4e0       $SG85045                   004454e0     SelectState.obj
 0002:0000e4e8       $SG85046                   004454e8     SelectState.obj
 0002:0000e4f4       $SG85047                   004454f4     SelectState.obj
 0002:0000e4fc       $SG93256                   004454fc     SelectState.obj
 0002:0000e500       $SG93255                   00445500     SelectState.obj
 0002:0000e5f4       $SG93259                   004455f4     SelectState.obj
 0002:0000e614       $SG96497                   00445614     SelectState.obj
 0002:0000e628       $SG93257                   00445628     SelectState.obj
 0002:0000e690       $SG93258                   00445690     SelectState.obj
 0002:0000e760       $SG93260                   00445760     SelectState.obj
 0002:0000e95c       $SG96498                   0044595c     SelectState.obj
 0002:0000e960       $SG96499                   00445960     SelectState.obj
 0002:0000e9c8       $SG96500                   004459c8     SelectState.obj
 0002:0000ea98       $SG96501                   00445a98     SelectState.obj
 0002:0000eae8       $SG96502                   00445ae8     SelectState.obj
 0002:0000eb10       $SG96773                   00445b10     SelectState.obj
 0002:0000eb78       $SG96934                   00445b78     SelectState.obj
 0002:0000eb94       $SG96935                   00445b94     SelectState.obj
 0002:0000eb98       $SG96936                   00445b98     SelectState.obj
 0002:0000ec04       $SG96938                   00445c04     SelectState.obj
 0002:0000ec30       $SG96937                   00445c30     SelectState.obj
 0002:0000ed04       $SG96939                   00445d04     SelectState.obj
 0002:0000ef00       $SG92080                   00445f00     SimpleImage.obj
 0002:0000eff4       $SG92081                   00445ff4     SimpleImage.obj
 0002:0000eff8       $SG92082                   00445ff8     SimpleImage.obj
 0002:0000f060       $SG92083                   00446060     SimpleImage.obj
 0002:0000f130       $SG92084                   00446130     SimpleImage.obj
 0002:0000f150       $SG92085                   00446150     SimpleImage.obj
 0002:0000f34c       $SG95475                   0044634c     SimpleImage.obj
 0002:0000f360       $SG95476                   00446360     SimpleImage.obj
 0002:0000f364       $SG96350                   00446364     SimpleImage.obj
 0002:0000f380       $SG95477                   00446380     SimpleImage.obj
 0002:0000f3e8       $SG95478                   004463e8     SimpleImage.obj
 0002:0000f4b8       $SG95479                   004464b8     SimpleImage.obj
 0002:0000f508       $SG95480                   00446508     SimpleImage.obj
 0002:0000f530       $SG95751                   00446530     SimpleImage.obj
 0002:0000f598       $SG96351                   00446598     SimpleImage.obj
 0002:0000f59c       $SG96354                   0044659c     SimpleImage.obj
 0002:0000f5c8       $SG96352                   004465c8     SimpleImage.obj
 0002:0000f634       $SG96355                   00446634     SimpleImage.obj
 0002:0000f670       $SG96353                   00446670     SimpleImage.obj
 0002:0000f8f0       $SG91610                   004468f0     RawImage.obj
 0002:0000f9e4       $SG91611                   004469e4     RawImage.obj
 0002:0000f9e8       $SG91612                   004469e8     RawImage.obj
 0002:0000fa50       $SG91613                   00446a50     RawImage.obj
 0002:0000fb20       $SG91614                   00446b20     RawImage.obj
 0002:0000fb40       $SG91615                   00446b40     RawImage.obj
 0002:0000fd3c       $SG95005                   00446d3c     RawImage.obj
 0002:0000fd50       $SG95006                   00446d50     RawImage.obj
 0002:0000fd54       $SG95880                   00446d54     RawImage.obj
 0002:0000fd70       $SG95007                   00446d70     RawImage.obj
 0002:0000fdd8       $SG95008                   00446dd8     RawImage.obj
 0002:0000fea8       $SG95009                   00446ea8     RawImage.obj
 0002:0000fef8       $SG95010                   00446ef8     RawImage.obj
 0002:0000ff20       $SG95281                   00446f20     RawImage.obj
 0002:0000ff88       $SG95881                   00446f88     RawImage.obj
 0002:0000ff8c       $SG95884                   00446f8c     RawImage.obj
 0002:0000ffb8       $SG95882                   00446fb8     RawImage.obj
 0002:00010024       $SG95885                   00447024     RawImage.obj
 0002:00010060       $SG95883                   00447060     RawImage.obj
 0002:000102e0       $SG84933                   004472e0     StartState.obj
 0002:00010300       $SG84934                   00447300     StartState.obj
 0002:00010320       $SG84935                   00447320     StartState.obj
 0002:00010340       $SG84936                   00447340     StartState.obj
 0002:00010360       $SG84937                   00447360     StartState.obj
 0002:00010380       $SG84938                   00447380     StartState.obj
 0002:000103a0       $SG84939                   004473a0     StartState.obj
 0002:000103c0       $SG84940                   004473c0     StartState.obj
 0002:000103e0       $SG84941                   004473e0     StartState.obj
 0002:00010400       $SG84942                   00447400     StartState.obj
 0002:00010420       $SG84943                   00447420     StartState.obj
 0002:00010440       $SG84944                   00447440     StartState.obj
 0002:00010460       $SG84945                   00447460     StartState.obj
 0002:00010480       $SG84946                   00447480     StartState.obj
 0002:000104a0       $SG84947                   004474a0     StartState.obj
 0002:000104c0       $SG84948                   004474c0     StartState.obj
 0002:000104e0       $SG84949                   004474e0     StartState.obj
 0002:00010500       $SG84950                   00447500     StartState.obj
 0002:00010520       $SG84951                   00447520     StartState.obj
 0002:00010540       $SG84952                   00447540     StartState.obj
 0002:00010560       $SG84960                   00447560     StartState.obj
 0002:00010568       $SG84961                   00447568     StartState.obj
 0002:00010570       $SG84962                   00447570     StartState.obj
 0002:00010578       $SG84963                   00447578     StartState.obj
 0002:00010580       $SG93170                   00447580     StartState.obj
 0002:00010674       $SG93171                   00447674     StartState.obj
 0002:00010678       $SG93172                   00447678     StartState.obj
 0002:000106e0       $SG93173                   004476e0     StartState.obj
 0002:000107b0       $SG93174                   004477b0     StartState.obj
 0002:000107d0       $SG93175                   004477d0     StartState.obj
 0002:000109cc       $SG96412                   004479cc     StartState.obj
 0002:000109e0       $SG96413                   004479e0     StartState.obj
 0002:000109e4       $SG96849                   004479e4     StartState.obj
 0002:00010a00       $SG96414                   00447a00     StartState.obj
 0002:00010a68       $SG96415                   00447a68     StartState.obj
 0002:00010b38       $SG96416                   00447b38     StartState.obj
 0002:00010b88       $SG96417                   00447b88     StartState.obj
 0002:00010bb0       $SG96688                   00447bb0     StartState.obj
 0002:00010c18       $SG96850                   00447c18     StartState.obj
 0002:00010c1c       $SG96853                   00447c1c     StartState.obj
 0002:00010c48       $SG96851                   00447c48     StartState.obj
 0002:00010cb4       $SG96854                   00447cb4     StartState.obj
 0002:00010cf0       $SG96852                   00447cf0     StartState.obj
 0002:00011040       $SG91902                   00448040     TileManager.obj
 0002:00011134       $SG91903                   00448134     TileManager.obj
 0002:00011138       $SG91904                   00448138     TileManager.obj
 0002:000111a0       $SG91905                   004481a0     TileManager.obj
 0002:00011270       $SG91906                   00448270     TileManager.obj
 0002:00011290       $SG91907                   00448290     TileManager.obj
 0002:0001148c       $SG95142                   0044848c     TileManager.obj
 0002:000114a0       $SG95143                   004484a0     TileManager.obj
 0002:000114a4       $SG95579                   004484a4     TileManager.obj
 0002:000114c0       $SG95144                   004484c0     TileManager.obj
 0002:00011528       $SG95145                   00448528     TileManager.obj
 0002:000115f8       $SG95146                   004485f8     TileManager.obj
 0002:00011648       $SG95147                   00448648     TileManager.obj
 0002:00011670       $SG95418                   00448670     TileManager.obj
 0002:000116d8       $SG95580                   004486d8     TileManager.obj
 0002:000116dc       $SG95583                   004486dc     TileManager.obj
 0002:00011708       $SG95581                   00448708     TileManager.obj
 0002:00011774       $SG95584                   00448774     TileManager.obj
 0002:000117b0       $SG95582                   004487b0     TileManager.obj
 0002:00011a76       ?_Fac_tidy_reg@std@@3U_Fac_tidy_reg_t@1@B 00448a76     msvcprtd:locale0_implib.obj
 0002:00011a84       _GS_ExceptionPointers      00448a84     MSVCRTD:gs_report.obj
 0002:000137b8       __unwindtable$??0AutomatedObject@@QAE@PAVGameEngine@@HHHH@Z 0044a7b8     AutomatedObject.obj
 0002:000137c0       __ehfuncinfo$??0AutomatedObject@@QAE@PAVGameEngine@@HHHH@Z 0044a7c0     AutomatedObject.obj
 0002:000137e8       __unwindtable$??0?$basic_string@DU?$char_traits@D@std@@V?$allocator@D@2@@std@@QAE@ABV01@@Z 0044a7e8     Boss.obj
 0002:000137f8       __ehfuncinfo$??0?$basic_string@DU?$char_traits@D@std@@V?$allocator@D@2@@std@@QAE@ABV01@@Z 0044a7f8     Boss.obj
 0002:00013824       __unwindtable$??0?$basic_string@DU?$char_traits@D@std@@V?$allocator@D@2@@std@@QAE@QBD@Z 0044a824     Boss.obj
 0002:00013834       __ehfuncinfo$??0?$basic_string@DU?$char_traits@D@std@@V?$allocator@D@2@@std@@QAE@QBD@Z 0044a834     Boss.obj
 0002:00013860       __ehfuncinfo$??0?$basic_string@DU?$char_traits@D@std@@V?$allocator@D@2@@std@@QAE@$$QAV01@@Z 0044a860     Boss.obj
 0002:00013888       __ehfuncinfo$?_Take_contents@?$basic_string@DU?$char_traits@D@std@@V?$allocator@D@2@@std@@AAEXAAV12@U?$integral_constant@_N$00@2@@Z 0044a888     Boss.obj
 0002:000138b0       __ehfuncinfo$?_Tidy_deallocate@?$basic_string@DU?$char_traits@D@std@@V?$allocator@D@2@@std@@AAEXXZ 0044a8b0     Boss.obj
 0002:000138d8       __catchsym$??$?6U?$char_traits@D@std@@@std@@YAAAV?$basic_ostream@DU?$char_traits@D@std@@@0@AAV10@PBD@Z$3 0044a8d8     Boss.obj
 0002:000138e8       __tryblocktable$??$?6U?$char_traits@D@std@@@std@@YAAAV?$basic_ostream@DU?$char_traits@D@std@@@0@AAV10@PBD@Z 0044a8e8     Boss.obj
 0002:000138fc       __unwindtable$??$?6U?$char_traits@D@std@@@std@@YAAAV?$basic_ostream@DU?$char_traits@D@std@@@0@AAV10@PBD@Z 0044a8fc     Boss.obj
 0002:00013914       __ehfuncinfo$??$?6U?$char_traits@D@std@@@std@@YAAAV?$basic_ostream@DU?$char_traits@D@std@@@0@AAV10@PBD@Z 0044a914     Boss.obj
 0002:00013944       __unwindtable$??0RawImageData@@QAE@V?$basic_string@DU?$char_traits@D@std@@V?$allocator@D@2@@std@@@Z 0044a944     Boss.obj
 0002:0001394c       __ehfuncinfo$??0RawImageData@@QAE@V?$basic_string@DU?$char_traits@D@std@@V?$allocator@D@2@@std@@@Z 0044a94c     Boss.obj
 0002:00013974       __ehfuncinfo$??1RawImageData@@QAE@XZ 0044a974     Boss.obj
 0002:0001399c       __unwindtable$?loadImage@RawImageData@@QAE_NV?$basic_string@DU?$char_traits@D@std@@V?$allocator@D@2@@std@@HHHHH_N@Z 0044a99c     Boss.obj
 0002:000139a4       __ehfuncinfo$?loadImage@RawImageData@@QAE_NV?$basic_string@DU?$char_traits@D@std@@V?$allocator@D@2@@std@@HHHHH_N@Z 0044a9a4     Boss.obj
 0002:000139cc       __unwindtable$??$?0VRawImageData@@$0A@@?$shared_ptr@VRawImageData@@@std@@QAE@PAVRawImageData@@@Z 0044a9cc     Boss.obj
 0002:000139dc       __ehfuncinfo$??$?0VRawImageData@@$0A@@?$shared_ptr@VRawImageData@@@std@@QAE@PAVRawImageData@@@Z 0044a9dc     Boss.obj
 0002:00013a08       __ehfuncinfo$?_Erase_unchecked@?$_Tree@V?$_Tmap_traits@V?$basic_string@DU?$char_traits@D@std@@V?$allocator@D@2@@std@@V?$weak_ptr@VRawImageData@@@2@U?$less@V?$basic_string@DU?$char_traits@D@std@@V?$allocator@D@2@@std@@@2@V?$allocator@U?$pair@$$CBV?$basic_string@DU?$char_traits@D@std@@V?$allocator@D@2@@std@@V?$weak_ptr@VRawImageData@@@2@@std@@@2@$0A@@std@@@std@@AAEPAU?$_Tree_node@U?$pair@$$CBV?$basic_string@DU?$char_traits@D@std@@V?$allocator@D@2@@std@@V?$weak_ptr@VRawImageData@@@2@@std@@PAX@2@V?$_Tree_unchecked_const_iterator@V?$_Tree_val@U?$_Tree_simple_types@U?$pair@$$CBV?$basic_string@DU?$char_traits@D@std@@V?$allocator@D@2@@std@@V?$weak_ptr@VRawImageData@@@2@@std@@@std@@@std@@U_Iterator_base0@2@@2@@Z 0044aa08     Boss.obj
 0002:00013a30       __unwindtable$?_Alloc_sentinel_and_proxy@?$_Tree@V?$_Tmap_traits@V?$basic_string@DU?$char_traits@D@std@@V?$allocator@D@2@@std@@V?$weak_ptr@VRawImageData@@@2@U?$less@V?$basic_string@DU?$char_traits@D@std@@V?$allocator@D@2@@std@@@2@V?$allocator@U?$pair@$$CBV?$basic_string@DU?$char_traits@D@std@@V?$allocator@D@2@@std@@V?$weak_ptr@VRawImageData@@@2@@std@@@2@$0A@@std@@@std@@IAEXXZ 0044aa30     Boss.obj
 0002:00013a38       __ehfuncinfo$?_Alloc_sentinel_and_proxy@?$_Tree@V?$_Tmap_traits@V?$basic_string@DU?$char_traits@D@std@@V?$allocator@D@2@@std@@V?$weak_ptr@VRawImageData@@@2@U?$less@V?$basic_string@DU?$char_traits@D@std@@V?$allocator@D@2@@std@@@2@V?$allocator@U?$pair@$$CBV?$basic_string@DU?$char_traits@D@std@@V?$allocator@D@2@@std@@V?$weak_ptr@VRawImageData@@@2@@std@@@2@$0A@@std@@@std@@IAEXXZ 0044aa38     Boss.obj
 0002:00013a60       __ehfuncinfo$?_Extract@?$_Tree_val@U?$_Tree_simple_types@U?$pair@$$CBV?$basic_string@DU?$char_traits@D@std@@V?$allocator@D@2@@std@@V?$weak_ptr@VRawImageData@@@2@@std@@@std@@@std@@QAEPAU?$_Tree_node@U?$pair@$$CBV?$basic_string@DU?$char_traits@D@std@@V?$allocator@D@2@@std@@V?$weak_ptr@VRawImageData@@@2@@std@@PAX@2@V?$_Tree_unchecked_const_iterator@V?$_Tree_val@U?$_Tree_simple_types@U?$pair@$$CBV?$basic_string@DU?$char_traits@D@std@@V?$allocator@D@2@@std@@V?$weak_ptr@VRawImageData@@@2@@std@@@std@@@std@@U_Iterator_base0@2@@2@@Z 0044aa60     Boss.obj
 0002:00013a88       __unwindtable$?_Alloc_sentinel_and_proxy@?$_Tree@V?$_Tmap_traits@V?$basic_string@DU?$char_traits@D@std@@V?$allocator@D@2@@std@@V?$shared_ptr@VRawImageData@@@2@U?$less@V?$basic_string@DU?$char_traits@D@std@@V?$allocator@D@2@@std@@@2@V?$allocator@U?$pair@$$CBV?$basic_string@DU?$char_traits@D@std@@V?$allocator@D@2@@std@@V?$shared_ptr@VRawImageData@@@2@@std@@@2@$0A@@std@@@std@@IAEXXZ 0044aa88     Boss.obj
 0002:00013a90       __ehfuncinfo$?_Alloc_sentinel_and_proxy@?$_Tree@V?$_Tmap_traits@V?$basic_string@DU?$char_traits@D@std@@V?$allocator@D@2@@std@@V?$shared_ptr@VRawImageData@@@2@U?$less@V?$basic_string@DU?$char_traits@D@std@@V?$allocator@D@2@@std@@@2@V?$allocator@U?$pair@$$CBV?$basic_string@DU?$char_traits@D@std@@V?$allocator@D@2@@std@@V?$shared_ptr@VRawImageData@@@2@@std@@@2@$0A@@std@@@std@@IAEXXZ 0044aa90     Boss.obj
 0002:00013ab8       __unwindtable$?get@ImageManager@@SAPAV1@XZ 0044aab8     Boss.obj
 0002:00013ac0       __ehfuncinfo$?get@ImageManager@@SAPAV1@XZ 0044aac0     Boss.obj
 0002:00013ae8       __unwindtable$?loadImage@ImageManager@@SA?AVSimpleImage@@V?$basic_string@DU?$char_traits@D@std@@V?$allocator@D@2@@std@@_N@Z 0044aae8     Boss.obj
 0002:00013af8       __ehfuncinfo$?loadImage@ImageManager@@SA?AVSimpleImage@@V?$basic_string@DU?$char_traits@D@std@@V?$allocator@D@2@@std@@_N@Z 0044aaf8     Boss.obj
 0002:00013b24       __unwindtable$??0ImageManager@@QAE@XZ 0044ab24     Boss.obj
 0002:00013b34       __ehfuncinfo$??0ImageManager@@QAE@XZ 0044ab34     Boss.obj
 0002:00013b60       __ehfuncinfo$?getImagePtrbyURL@ImageManager@@QAE?AV?$shared_ptr@VRawImageData@@@std@@V?$basic_string@DU?$char_traits@D@std@@V?$allocator@D@2@@3@_N1@Z 0044ab60     Boss.obj
 0002:00013b84       __unwindtable$?getImagePtrbyURL@ImageManager@@QAE?AV?$shared_ptr@VRawImageData@@@std@@V?$basic_string@DU?$char_traits@D@std@@V?$allocator@D@2@@3@_N1@Z 0044ab84     Boss.obj
 0002:00013bc8       __unwindtable$?getImagebyURL@ImageManager@@QAE?AVSimpleImage@@V?$basic_string@DU?$char_traits@D@std@@V?$allocator@D@2@@std@@_N1@Z 0044abc8     Boss.obj
 0002:00013bd0       __ehfuncinfo$?getImagebyURL@ImageManager@@QAE?AVSimpleImage@@V?$basic_string@DU?$char_traits@D@std@@V?$allocator@D@2@@std@@_N1@Z 0044abd0     Boss.obj
 0002:00013bf8       __unwindtable$?loadAsNew@ImageManager@@QAE?AV?$shared_ptr@VRawImageData@@@std@@V?$basic_string@DU?$char_traits@D@std@@V?$allocator@D@2@@3@@Z 0044abf8     Boss.obj
 0002:00013c08       __ehfuncinfo$?loadAsNew@ImageManager@@QAE?AV?$shared_ptr@VRawImageData@@@std@@V?$basic_string@DU?$char_traits@D@std@@V?$allocator@D@2@@3@@Z 0044ac08     Boss.obj
 0002:00013c34       __ehfuncinfo$??$erase@V?$_Tree_iterator@V?$_Tree_val@U?$_Tree_simple_types@U?$pair@$$CBV?$basic_string@DU?$char_traits@D@std@@V?$allocator@D@2@@std@@V?$weak_ptr@VRawImageData@@@2@@std@@@std@@@std@@@std@@$0A@@?$_Tree@V?$_Tmap_traits@V?$basic_string@DU?$char_traits@D@std@@V?$allocator@D@2@@std@@V?$weak_ptr@VRawImageData@@@2@U?$less@V?$basic_string@DU?$char_traits@D@std@@V?$allocator@D@2@@std@@@2@V?$allocator@U?$pair@$$CBV?$basic_string@DU?$char_traits@D@std@@V?$allocator@D@2@@std@@V?$weak_ptr@VRawImageData@@@2@@std@@@2@$0A@@std@@@std@@QAE?AV?$_Tree_iterator@V?$_Tree_val@U?$_Tree_simple_types@U?$pair@$$CBV?$basic_string@DU?$char_traits@D@std@@V?$allocator@D@2@@std@@V?$weak_ptr@VRawImageData@@@2@@std@@@std@@@std@@@1@V21@@Z 0044ac34     Boss.obj
 0002:00013c5c       __unwindtable$?virtDoUpdate@Boss@@UAEXH@Z 0044ac5c     Boss.obj
 0002:00013c64       __unwindtable$?bfs@Boss@@QAEXAAUPoint@1@U21@AAV?$vector@UPoint@Boss@@V?$allocator@UPoint@Boss@@@std@@@std@@@Z 0044ac64     Boss.obj
 0002:00013c74       __ehfuncinfo$?bfs@Boss@@QAEXAAUPoint@1@U21@AAV?$vector@UPoint@Boss@@V?$allocator@UPoint@Boss@@@std@@@std@@@Z 0044ac74     Boss.obj
 0002:00013c98       __ehfuncinfo$?virtDoUpdate@Boss@@UAEXH@Z 0044ac98     Boss.obj
 0002:00013cbc       __ehfuncinfo$??0Boss@@QAE@PAVGameEngine@@PAVAdvancedTileManager@@HHH@Z 0044acbc     Boss.obj
 0002:00013ce0       __unwindtable$??0Boss@@QAE@PAVGameEngine@@PAVAdvancedTileManager@@HHH@Z 0044ace0     Boss.obj
 0002:00013d50       __ehfuncinfo$??0?$vector@UPoint@Boss@@V?$allocator@UPoint@Boss@@@std@@@std@@QAE@XZ 0044ad50     Boss.obj
 0002:00013d78       __ehfuncinfo$?pop_back@?$vector@UPoint@Boss@@V?$allocator@UPoint@Boss@@@std@@@std@@QAEXXZ 0044ad78     Boss.obj
 0002:00013da0       __ehfuncinfo$?clear@?$vector@UPoint@Boss@@V?$allocator@UPoint@Boss@@@std@@@std@@QAEXXZ 0044ada0     Boss.obj
 0002:00013dc8       __ehfuncinfo$?_Tidy@?$vector@UPoint@Boss@@V?$allocator@UPoint@Boss@@@std@@@std@@AAEXXZ 0044adc8     Boss.obj
 0002:00013df0       __ehfuncinfo$?front@?$deque@UPoint@Boss@@V?$allocator@UPoint@Boss@@@std@@@std@@QAEAAUPoint@Boss@@XZ 0044adf0     Boss.obj
 0002:00013e18       __ehfuncinfo$?pop_front@?$deque@UPoint@Boss@@V?$allocator@UPoint@Boss@@@std@@@std@@QAEXXZ 0044ae18     Boss.obj
 0002:00013e40       __ehfuncinfo$?pop_back@?$deque@UPoint@Boss@@V?$allocator@UPoint@Boss@@@std@@@std@@QAEXXZ 0044ae40     Boss.obj
 0002:00013e68       __ehfuncinfo$?_Tidy@?$deque@UPoint@Boss@@V?$allocator@UPoint@Boss@@@std@@@std@@AAEXXZ 0044ae68     Boss.obj
 0002:00013e90       __ehfuncinfo$??0?$queue@UPoint@Boss@@V?$deque@UPoint@Boss@@V?$allocator@UPoint@Boss@@@std@@@std@@@std@@QAE@XZ 0044ae90     Boss.obj
 0002:00013eb8       __catchsym$??$_Emplace_reallocate@ABUPoint@Boss@@@?$vector@UPoint@Boss@@V?$allocator@UPoint@Boss@@@std@@@std@@QAEPAUPoint@Boss@@QAU23@ABU23@@Z$2 0044aeb8     Boss.obj
 0002:00013ec8       __unwindtable$??$_Emplace_reallocate@ABUPoint@Boss@@@?$vector@UPoint@Boss@@V?$allocator@UPoint@Boss@@@std@@@std@@QAEPAUPoint@Boss@@QAU23@ABU23@@Z 0044aec8     Boss.obj
 0002:00013ed8       __tryblocktable$??$_Emplace_reallocate@ABUPoint@Boss@@@?$vector@UPoint@Boss@@V?$allocator@UPoint@Boss@@@std@@@std@@QAEPAUPoint@Boss@@QAU23@ABU23@@Z 0044aed8     Boss.obj
 0002:00013eec       __ehfuncinfo$??$_Emplace_reallocate@ABUPoint@Boss@@@?$vector@UPoint@Boss@@V?$allocator@UPoint@Boss@@@std@@@std@@QAEPAUPoint@Boss@@QAU23@ABU23@@Z 0044aeec     Boss.obj
 0002:00013f18       __ehfuncinfo$??$_Deallocate@$07$0A@@std@@YAXPAXI@Z 0044af18     Boss.obj
 0002:00013f40       __ehfuncinfo$??1_Sentry_base@?$basic_ostream@DU?$char_traits@D@std@@@std@@QAE@XZ 0044af40     Boss.obj
 0002:00013f68       __unwindtable$??0sentry@?$basic_ostream@DU?$char_traits@D@std@@@std@@QAE@AAV12@@Z 0044af68     Boss.obj
 0002:00013f70       __ehfuncinfo$??0sentry@?$basic_ostream@DU?$char_traits@D@std@@@std@@QAE@AAV12@@Z 0044af70     Boss.obj
 0002:00013f98       __ehfuncinfo$??1sentry@?$basic_ostream@DU?$char_traits@D@std@@@std@@QAE@XZ 0044af98     Boss.obj
 0002:00013fc0       __catchsym$??$_Insert_string@DU?$char_traits@D@std@@I@std@@YAAAV?$basic_ostream@DU?$char_traits@D@std@@@0@AAV10@QBDI@Z$3 0044afc0     Boss.obj
 0002:00013fd0       __tryblocktable$??$_Insert_string@DU?$char_traits@D@std@@I@std@@YAAAV?$basic_ostream@DU?$char_traits@D@std@@@0@AAV10@QBDI@Z 0044afd0     Boss.obj
 0002:00013fe4       __unwindtable$??$_Insert_string@DU?$char_traits@D@std@@I@std@@YAAAV?$basic_ostream@DU?$char_traits@D@std@@@0@AAV10@QBDI@Z 0044afe4     Boss.obj
 0002:00013ffc       __ehfuncinfo$??$_Insert_string@DU?$char_traits@D@std@@I@std@@YAAAV?$basic_ostream@DU?$char_traits@D@std@@@0@AAV10@QBDI@Z 0044affc     Boss.obj
 0002:0001402c       __ehfuncinfo$??$_Deallocate_plain@V?$allocator@U_Container_proxy@std@@@std@@@std@@YAXAAV?$allocator@U_Container_proxy@std@@@0@QAU_Container_proxy@0@@Z 0044b02c     Boss.obj
 0002:00014054       __ehfuncinfo$??$_Freenode0@V?$allocator@U?$_Tree_node@U?$pair@$$CBV?$basic_string@DU?$char_traits@D@std@@V?$allocator@D@2@@std@@V?$shared_ptr@VRawImageData@@@2@@std@@PAX@std@@@std@@@?$_Tree_node@U?$pair@$$CBV?$basic_string@DU?$char_traits@D@std@@V?$allocator@D@2@@std@@V?$shared_ptr@VRawImageData@@@2@@std@@PAX@std@@SAXAAV?$allocator@U?$_Tree_node@U?$pair@$$CBV?$basic_string@DU?$char_traits@D@std@@V?$allocator@D@2@@std@@V?$shared_ptr@VRawImageData@@@2@@std@@PAX@std@@@1@PAU01@@Z 0044b054     Boss.obj
 0002:0001407c       __ehfuncinfo$??$_Freenode0@V?$allocator@U?$_Tree_node@U?$pair@$$CBV?$basic_string@DU?$char_traits@D@std@@V?$allocator@D@2@@std@@V?$weak_ptr@VRawImageData@@@2@@std@@PAX@std@@@std@@@?$_Tree_node@U?$pair@$$CBV?$basic_string@DU?$char_traits@D@std@@V?$allocator@D@2@@std@@V?$weak_ptr@VRawImageData@@@2@@std@@PAX@std@@SAXAAV?$allocator@U?$_Tree_node@U?$pair@$$CBV?$basic_string@DU?$char_traits@D@std@@V?$allocator@D@2@@std@@V?$weak_ptr@VRawImageData@@@2@@std@@PAX@std@@@1@PAU01@@Z 0044b07c     Boss.obj
 0002:000140a4       __unwindtable$??$_Uninitialized_move@PAUPoint@Boss@@V?$allocator@UPoint@Boss@@@std@@@std@@YAPAUPoint@Boss@@QAU12@0PAU12@AAV?$allocator@UPoint@Boss@@@0@@Z 0044b0a4     Boss.obj
 0002:000140ac       __ehfuncinfo$??$_Uninitialized_move@PAUPoint@Boss@@V?$allocator@UPoint@Boss@@@std@@@std@@YAPAUPoint@Boss@@QAU12@0PAU12@AAV?$allocator@UPoint@Boss@@@0@@Z 0044b0ac     Boss.obj
 0002:000140d4       __ehfuncinfo$??$_Freenode@V?$allocator@U?$_Tree_node@U?$pair@$$CBV?$basic_string@DU?$char_traits@D@std@@V?$allocator@D@2@@std@@V?$shared_ptr@VRawImageData@@@2@@std@@PAX@std@@@std@@@?$_Tree_node@U?$pair@$$CBV?$basic_string@DU?$char_traits@D@std@@V?$allocator@D@2@@std@@V?$shared_ptr@VRawImageData@@@2@@std@@PAX@std@@SAXAAV?$allocator@U?$_Tree_node@U?$pair@$$CBV?$basic_string@DU?$char_traits@D@std@@V?$allocator@D@2@@std@@V?$shared_ptr@VRawImageData@@@2@@std@@PAX@std@@@1@PAU01@@Z 0044b0d4     Boss.obj
 0002:000140fc       __ehfuncinfo$??$_Freenode@V?$allocator@U?$_Tree_node@U?$pair@$$CBV?$basic_string@DU?$char_traits@D@std@@V?$allocator@D@2@@std@@V?$weak_ptr@VRawImageData@@@2@@std@@PAX@std@@@std@@@?$_Tree_node@U?$pair@$$CBV?$basic_string@DU?$char_traits@D@std@@V?$allocator@D@2@@std@@V?$weak_ptr@VRawImageData@@@2@@std@@PAX@std@@SAXAAV?$allocator@U?$_Tree_node@U?$pair@$$CBV?$basic_string@DU?$char_traits@D@std@@V?$allocator@D@2@@std@@V?$weak_ptr@VRawImageData@@@2@@std@@PAX@std@@@1@PAU01@@Z 0044b0fc     Boss.obj
 0002:00014124       __ehfuncinfo$??1?$_Alloc_construct_ptr@V?$allocator@U?$_Tree_node@U?$pair@$$CBV?$basic_string@DU?$char_traits@D@std@@V?$allocator@D@2@@std@@V?$weak_ptr@VRawImageData@@@2@@std@@PAX@std@@@std@@@std@@QAE@XZ 0044b124     Boss.obj
 0002:0001414c       __unwindtable$??0?$_Tree_temp_node_alloc@V?$allocator@U?$_Tree_node@U?$pair@$$CBV?$basic_string@DU?$char_traits@D@std@@V?$allocator@D@2@@std@@V?$weak_ptr@VRawImageData@@@2@@std@@PAX@std@@@std@@@std@@QAE@AAV?$allocator@U?$_Tree_node@U?$pair@$$CBV?$basic_string@DU?$char_traits@D@std@@V?$allocator@D@2@@std@@V?$weak_ptr@VRawImageData@@@2@@std@@PAX@std@@@1@@Z 0044b14c     Boss.obj
 0002:00014154       __ehfuncinfo$??0?$_Tree_temp_node_alloc@V?$allocator@U?$_Tree_node@U?$pair@$$CBV?$basic_string@DU?$char_traits@D@std@@V?$allocator@D@2@@std@@V?$weak_ptr@VRawImageData@@@2@@std@@PAX@std@@@std@@@std@@QAE@AAV?$allocator@U?$_Tree_node@U?$pair@$$CBV?$basic_string@DU?$char_traits@D@std@@V?$allocator@D@2@@std@@V?$weak_ptr@VRawImageData@@@2@@std@@PAX@std@@@1@@Z 0044b154     Boss.obj
 0002:0001417c       __ehfuncinfo$??1?$_Tree_temp_node@V?$allocator@U?$_Tree_node@U?$pair@$$CBV?$basic_string@DU?$char_traits@D@std@@V?$allocator@D@2@@std@@V?$weak_ptr@VRawImageData@@@2@@std@@PAX@std@@@std@@@std@@QAE@XZ 0044b17c     Boss.obj
 0002:000141a4       __unwindtable$??$?0U?$pair@V?$basic_string@DU?$char_traits@D@std@@V?$allocator@D@2@@std@@V?$weak_ptr@VRawImageData@@@2@@std@@@?$_Tree_temp_node@V?$allocator@U?$_Tree_node@U?$pair@$$CBV?$basic_string@DU?$char_traits@D@std@@V?$allocator@D@2@@std@@V?$weak_ptr@VRawImageData@@@2@@std@@PAX@std@@@std@@@std@@QAE@AAV?$allocator@U?$_Tree_node@U?$pair@$$CBV?$basic_string@DU?$char_traits@D@std@@V?$allocator@D@2@@std@@V?$weak_ptr@VRawImageData@@@2@@std@@PAX@std@@@1@PAU?$_Tree_node@U?$pair@$$CBV?$basic_string@DU?$char_traits@D@std@@V?$allocator@D@2@@std@@V?$weak_ptr@VRawImageData@@@2@@std@@PAX@1@$$QAU?$pair@V?$basic_string@DU?$char_traits@D@std@@V?$allocator@D@2@@std@@V?$weak_ptr@VRawImageData@@@2@@1@@Z 0044b1a4     Boss.obj
 0002:000141ac       __ehfuncinfo$??$?0U?$pair@V?$basic_string@DU?$char_traits@D@std@@V?$allocator@D@2@@std@@V?$weak_ptr@VRawImageData@@@2@@std@@@?$_Tree_temp_node@V?$allocator@U?$_Tree_node@U?$pair@$$CBV?$basic_string@DU?$char_traits@D@std@@V?$allocator@D@2@@std@@V?$weak_ptr@VRawImageData@@@2@@std@@PAX@std@@@std@@@std@@QAE@AAV?$allocator@U?$_Tree_node@U?$pair@$$CBV?$basic_string@DU?$char_traits@D@std@@V?$allocator@D@2@@std@@V?$weak_ptr@VRawImageData@@@2@@std@@PAX@std@@@1@PAU?$_Tree_node@U?$pair@$$CBV?$basic_string@DU?$char_traits@D@std@@V?$allocator@D@2@@std@@V?$weak_ptr@VRawImageData@@@2@@std@@PAX@1@$$QAU?$pair@V?$basic_string@DU?$char_traits@D@std@@V?$allocator@D@2@@std@@V?$weak_ptr@VRawImageData@@@2@@1@@Z 0044b1ac     Boss.obj
 0002:000141d4       __ehfuncinfo$??1?$_Alloc_construct_ptr@V?$allocator@U?$_Tree_node@U?$pair@$$CBV?$basic_string@DU?$char_traits@D@std@@V?$allocator@D@2@@std@@V?$shared_ptr@VRawImageData@@@2@@std@@PAX@std@@@std@@@std@@QAE@XZ 0044b1d4     Boss.obj
 0002:000141fc       __unwindtable$??0?$_Tree_temp_node_alloc@V?$allocator@U?$_Tree_node@U?$pair@$$CBV?$basic_string@DU?$char_traits@D@std@@V?$allocator@D@2@@std@@V?$shared_ptr@VRawImageData@@@2@@std@@PAX@std@@@std@@@std@@QAE@AAV?$allocator@U?$_Tree_node@U?$pair@$$CBV?$basic_string@DU?$char_traits@D@std@@V?$allocator@D@2@@std@@V?$shared_ptr@VRawImageData@@@2@@std@@PAX@std@@@1@@Z 0044b1fc     Boss.obj
 0002:00014204       __ehfuncinfo$??0?$_Tree_temp_node_alloc@V?$allocator@U?$_Tree_node@U?$pair@$$CBV?$basic_string@DU?$char_traits@D@std@@V?$allocator@D@2@@std@@V?$shared_ptr@VRawImageData@@@2@@std@@PAX@std@@@std@@@std@@QAE@AAV?$allocator@U?$_Tree_node@U?$pair@$$CBV?$basic_string@DU?$char_traits@D@std@@V?$allocator@D@2@@std@@V?$shared_ptr@VRawImageData@@@2@@std@@PAX@std@@@1@@Z 0044b204     Boss.obj
 0002:0001422c       __ehfuncinfo$??1?$_Tree_temp_node@V?$allocator@U?$_Tree_node@U?$pair@$$CBV?$basic_string@DU?$char_traits@D@std@@V?$allocator@D@2@@std@@V?$shared_ptr@VRawImageData@@@2@@std@@PAX@std@@@std@@@std@@QAE@XZ 0044b22c     Boss.obj
 0002:00014254       __unwindtable$??$?0U?$pair@V?$basic_string@DU?$char_traits@D@std@@V?$allocator@D@2@@std@@V?$shared_ptr@VRawImageData@@@2@@std@@@?$_Tree_temp_node@V?$allocator@U?$_Tree_node@U?$pair@$$CBV?$basic_string@DU?$char_traits@D@std@@V?$allocator@D@2@@std@@V?$shared_ptr@VRawImageData@@@2@@std@@PAX@std@@@std@@@std@@QAE@AAV?$allocator@U?$_Tree_node@U?$pair@$$CBV?$basic_string@DU?$char_traits@D@std@@V?$allocator@D@2@@std@@V?$shared_ptr@VRawImageData@@@2@@std@@PAX@std@@@1@PAU?$_Tree_node@U?$pair@$$CBV?$basic_string@DU?$char_traits@D@std@@V?$allocator@D@2@@std@@V?$shared_ptr@VRawImageData@@@2@@std@@PAX@1@$$QAU?$pair@V?$basic_string@DU?$char_traits@D@std@@V?$allocator@D@2@@std@@V?$shared_ptr@VRawImageData@@@2@@1@@Z 0044b254     Boss.obj
 0002:0001425c       __ehfuncinfo$??$?0U?$pair@V?$basic_string@DU?$char_traits@D@std@@V?$allocator@D@2@@std@@V?$shared_ptr@VRawImageData@@@2@@std@@@?$_Tree_temp_node@V?$allocator@U?$_Tree_node@U?$pair@$$CBV?$basic_string@DU?$char_traits@D@std@@V?$allocator@D@2@@std@@V?$shared_ptr@VRawImageData@@@2@@std@@PAX@std@@@std@@@std@@QAE@AAV?$allocator@U?$_Tree_node@U?$pair@$$CBV?$basic_string@DU?$char_traits@D@std@@V?$allocator@D@2@@std@@V?$shared_ptr@VRawImageData@@@2@@std@@PAX@std@@@1@PAU?$_Tree_node@U?$pair@$$CBV?$basic_string@DU?$char_traits@D@std@@V?$allocator@D@2@@std@@V?$shared_ptr@VRawImageData@@@2@@std@@PAX@1@$$QAU?$pair@V?$basic_string@DU?$char_traits@D@std@@V?$allocator@D@2@@std@@V?$shared_ptr@VRawImageData@@@2@@1@@Z 0044b25c     Boss.obj
 0002:00014284       __unwindtable$??$_Uninitialized_copy@PAUPoint@Boss@@V?$allocator@UPoint@Boss@@@std@@@std@@YAPAUPoint@Boss@@QAU12@0PAU12@AAV?$allocator@UPoint@Boss@@@0@@Z 0044b284     Boss.obj
 0002:0001428c       __ehfuncinfo$??$_Uninitialized_copy@PAUPoint@Boss@@V?$allocator@UPoint@Boss@@@std@@@std@@YAPAUPoint@Boss@@QAU12@0PAU12@AAV?$allocator@UPoint@Boss@@@0@@Z 0044b28c     Boss.obj
 0002:0001433c       __unwindtable$??0Bullet@@QAE@PAVGameEngine@@PAVAdvancedTileManager@@HHH@Z 0044b33c     Bullet.obj
 0002:00014344       __ehfuncinfo$??0Bullet@@QAE@PAVGameEngine@@PAVAdvancedTileManager@@HHH@Z 0044b344     Bullet.obj
 0002:0001436c       __unwindtable$??0?$basic_string@DU?$char_traits@D@std@@V?$allocator@D@2@@std@@QAE@ABV01@IIABV?$allocator@D@1@@Z 0044b36c     EndState.obj
 0002:0001437c       __ehfuncinfo$??0?$basic_string@DU?$char_traits@D@std@@V?$allocator@D@2@@std@@QAE@ABV01@IIABV?$allocator@D@1@@Z 0044b37c     EndState.obj
 0002:000143a8       __ehfuncinfo$??0Guard@@QAE@PAVGameEngine@@HHHHHHHHHH@Z 0044b3a8     Guard.obj
 0002:000143cc       __unwindtable$??0Guard@@QAE@PAVGameEngine@@HHHHHHHHHH@Z 0044b3cc     Guard.obj
 0002:00014428       __unwindtable$?doProgram@@YAHHQAPAD@Z 0044b428     mainfunction.obj
 0002:00014430       __ehfuncinfo$?doProgram@@YAHHQAPAD@Z 0044b430     mainfunction.obj
 0002:00014458       __ehfuncinfo$??1DisplayableObjectContainer@@UAE@XZ 0044b458     BaseEngine.obj
 0002:00014480       __ehfuncinfo$?_Tidy@?$vector@PAVDisplayableObject@@V?$allocator@PAVDisplayableObject@@@std@@@std@@AAEXXZ 0044b480     BaseEngine.obj
 0002:000144a8       __unwindtable$??E?$_Vector_iterator@V?$_Vector_val@U?$_Simple_types@PAVDisplayableObject@@@std@@@std@@@std@@QAE?AV01@H@Z 0044b4a8     BaseEngine.obj
 0002:000144b0       __ehfuncinfo$??E?$_Vector_iterator@V?$_Vector_val@U?$_Simple_types@PAVDisplayableObject@@@std@@@std@@@std@@QAE?AV01@H@Z 0044b4b0     BaseEngine.obj
 0002:000144d8       __unwindtable$??0BaseEngine@@QAE@XZ 0044b4d8     BaseEngine.obj
 0002:000144f0       __unwindtable$?updateAllObjects@BaseEngine@@UAEXH@Z 0044b4f0     BaseEngine.obj
 0002:00014510       __unwindtable$?drawAllObjects@BaseEngine@@UAEXXZ 0044b510     BaseEngine.obj
 0002:00014530       __ehfuncinfo$?updateAllObjects@BaseEngine@@UAEXH@Z 0044b530     BaseEngine.obj
 0002:00014554       __ehfuncinfo$?drawAllObjects@BaseEngine@@UAEXXZ 0044b554     BaseEngine.obj
 0002:00014578       __ehfuncinfo$??0BaseEngine@@QAE@XZ 0044b578     BaseEngine.obj
 0002:000145b0       __unwindtable$??$for_each@V?$_Vector_iterator@V?$_Vector_val@U?$_Simple_types@PAVDisplayableObject@@@std@@@std@@@std@@V<lambda_7e9f32a5da7c3beed7c2ce913dec1468>@@@std@@YA?AV<lambda_7e9f32a5da7c3beed7c2ce913dec1468>@@V?$_Vector_iterator@V?$_Vector_val@U?$_Simple_types@PAVDisplayableObject@@@std@@@std@@@0@0V1@@Z 0044b5b0     BaseEngine.obj
 0002:000145c0       __ehfuncinfo$??$for_each@V?$_Vector_iterator@V?$_Vector_val@U?$_Simple_types@PAVDisplayableObject@@@std@@@std@@@std@@V<lambda_7e9f32a5da7c3beed7c2ce913dec1468>@@@std@@YA?AV<lambda_7e9f32a5da7c3beed7c2ce913dec1468>@@V?$_Vector_iterator@V?$_Vector_val@U?$_Simple_types@PAVDisplayableObject@@@std@@@std@@@0@0V1@@Z 0044b5c0     BaseEngine.obj
 0002:000145ec       __unwindtable$??$for_each@V?$_Vector_iterator@V?$_Vector_val@U?$_Simple_types@PAVDisplayableObject@@@std@@@std@@@std@@V<lambda_3bf13a20ebaf36ed7ec66e97340dd9ba>@@@std@@YA?AV<lambda_3bf13a20ebaf36ed7ec66e97340dd9ba>@@V?$_Vector_iterator@V?$_Vector_val@U?$_Simple_types@PAVDisplayableObject@@@std@@@std@@@0@0V1@@Z 0044b5ec     BaseEngine.obj
 0002:000145fc       __ehfuncinfo$??$for_each@V?$_Vector_iterator@V?$_Vector_val@U?$_Simple_types@PAVDisplayableObject@@@std@@@std@@@std@@V<lambda_3bf13a20ebaf36ed7ec66e97340dd9ba>@@@std@@YA?AV<lambda_3bf13a20ebaf36ed7ec66e97340dd9ba>@@V?$_Vector_iterator@V?$_Vector_val@U?$_Simple_types@PAVDisplayableObject@@@std@@@std@@@0@0V1@@Z 0044b5fc     BaseEngine.obj
 0002:00014628       __unwindtable$??$for_each@V?$_Vector_iterator@V?$_Vector_val@U?$_Simple_types@PAVDisplayableObject@@@std@@@std@@@std@@V<lambda_c25f24c7a8fdeae876666db68ecaf488>@@@std@@YA?AV<lambda_c25f24c7a8fdeae876666db68ecaf488>@@V?$_Vector_iterator@V?$_Vector_val@U?$_Simple_types@PAVDisplayableObject@@@std@@@std@@@0@0V1@@Z 0044b628     BaseEngine.obj
 0002:00014638       __ehfuncinfo$??$for_each@V?$_Vector_iterator@V?$_Vector_val@U?$_Simple_types@PAVDisplayableObject@@@std@@@std@@@std@@V<lambda_c25f24c7a8fdeae876666db68ecaf488>@@@std@@YA?AV<lambda_c25f24c7a8fdeae876666db68ecaf488>@@V?$_Vector_iterator@V?$_Vector_val@U?$_Simple_types@PAVDisplayableObject@@@std@@@std@@@0@0V1@@Z 0044b638     BaseEngine.obj
 0002:00014664       __unwindtable$??$for_each@V?$_Vector_iterator@V?$_Vector_val@U?$_Simple_types@PAVDisplayableObject@@@std@@@std@@@std@@V<lambda_4814087fedc56a938eeabe39b7d4bf7e>@@@std@@YA?AV<lambda_4814087fedc56a938eeabe39b7d4bf7e>@@V?$_Vector_iterator@V?$_Vector_val@U?$_Simple_types@PAVDisplayableObject@@@std@@@std@@@0@0V1@@Z 0044b664     BaseEngine.obj
 0002:00014674       __ehfuncinfo$??$for_each@V?$_Vector_iterator@V?$_Vector_val@U?$_Simple_types@PAVDisplayableObject@@@std@@@std@@@std@@V<lambda_4814087fedc56a938eeabe39b7d4bf7e>@@@std@@YA?AV<lambda_4814087fedc56a938eeabe39b7d4bf7e>@@V?$_Vector_iterator@V?$_Vector_val@U?$_Simple_types@PAVDisplayableObject@@@std@@@std@@@0@0V1@@Z 0044b674     BaseEngine.obj
 0002:000146a0       __unwindtable$??$for_each@V?$_Vector_iterator@V?$_Vector_val@U?$_Simple_types@PAVDisplayableObject@@@std@@@std@@@std@@V<lambda_2d496414b0c7d43f4e487792af6f686a>@@@std@@YA?AV<lambda_2d496414b0c7d43f4e487792af6f686a>@@V?$_Vector_iterator@V?$_Vector_val@U?$_Simple_types@PAVDisplayableObject@@@std@@@std@@@0@0V1@@Z 0044b6a0     BaseEngine.obj
 0002:000146b0       __ehfuncinfo$??$for_each@V?$_Vector_iterator@V?$_Vector_val@U?$_Simple_types@PAVDisplayableObject@@@std@@@std@@@std@@V<lambda_2d496414b0c7d43f4e487792af6f686a>@@@std@@YA?AV<lambda_2d496414b0c7d43f4e487792af6f686a>@@V?$_Vector_iterator@V?$_Vector_val@U?$_Simple_types@PAVDisplayableObject@@@std@@@std@@@0@0V1@@Z 0044b6b0     BaseEngine.obj
 0002:000146dc       __unwindtable$??$_Construct_n_copies_of_ty@U_Value_init_tag@std@@@?$vector@PAVDisplayableObject@@V?$allocator@PAVDisplayableObject@@@std@@@std@@AAEXIABU_Value_init_tag@1@@Z 0044b6dc     BaseEngine.obj
 0002:000146ec       __ehfuncinfo$??$_Construct_n_copies_of_ty@U_Value_init_tag@std@@@?$vector@PAVDisplayableObject@@V?$allocator@PAVDisplayableObject@@@std@@@std@@AAEXIABU_Value_init_tag@1@@Z 0044b6ec     BaseEngine.obj
 0002:00014718       __unwindtable$?getFont@FontManager@@QAEPAVFont@@PBDH@Z 0044b718     FontManager.obj
 0002:00014720       __ehfuncinfo$?getFont@FontManager@@QAEPAVFont@@PBDH@Z 0044b720     FontManager.obj
 0002:00014748       __unwindtable$?virtDrawLabelText@RunningState@@UAEXAAVGameEngine@@@Z 0044b748     RunningState.obj
 0002:00014750       __ehfuncinfo$?virtDrawLabelText@RunningState@@UAEXAAVGameEngine@@@Z 0044b750     RunningState.obj
 0002:00014778       __unwindtable$?setAllObjectsVisible@DisplayableObjectContainer@@QBEX_N@Z 0044b778     RunningState.obj
 0002:00014788       __ehfuncinfo$?setAllObjectsVisible@DisplayableObjectContainer@@QBEX_N@Z 0044b788     RunningState.obj
 0002:000147b4       __unwindtable$??E?$_Vector_const_iterator@V?$_Vector_val@U?$_Simple_types@PAVDisplayableObject@@@std@@@std@@@std@@QAE?AV01@H@Z 0044b7b4     RunningState.obj
 0002:000147bc       __ehfuncinfo$??E?$_Vector_const_iterator@V?$_Vector_val@U?$_Simple_types@PAVDisplayableObject@@@std@@@std@@@std@@QAE?AV01@H@Z 0044b7bc     RunningState.obj
 0002:000147e4       __ehfuncinfo$??0?$basic_string@DU?$char_traits@D@std@@V?$allocator@D@2@@std@@QAE@XZ 0044b7e4     GameEngine.obj
 0002:0001480c       __unwindtable$??$use_facet@V?$ctype@D@std@@@std@@YAABV?$ctype@D@0@ABVlocale@0@@Z 0044b80c     GameEngine.obj
 0002:0001481c       __ehfuncinfo$??$use_facet@V?$ctype@D@std@@@std@@YAABV?$ctype@D@0@ABVlocale@0@@Z 0044b81c     GameEngine.obj
 0002:00014848       __unwindtable$?removeDisplayableObject@DisplayableObjectContainer@@QAE_NPAVDisplayableObject@@@Z 0044b848     GameEngine.obj
 0002:00014858       __ehfuncinfo$?removeDisplayableObject@DisplayableObjectContainer@@QAE_NPAVDisplayableObject@@@Z 0044b858     GameEngine.obj
 0002:00014884       __ehfuncinfo$?erase@?$vector@PAVDisplayableObject@@V?$allocator@PAVDisplayableObject@@@std@@@std@@QAE?AV?$_Vector_iterator@V?$_Vector_val@U?$_Simple_types@PAVDisplayableObject@@@std@@@std@@@2@V?$_Vector_const_iterator@V?$_Vector_val@U?$_Simple_types@PAVDisplayableObject@@@std@@@std@@@2@@Z 0044b884     GameEngine.obj
 0002:000148ac       __unwindtable$??$find@V?$_Vector_iterator@V?$_Vector_val@U?$_Simple_types@PAVDisplayableObject@@@std@@@std@@@std@@PAVDisplayableObject@@@std@@YA?AV?$_Vector_iterator@V?$_Vector_val@U?$_Simple_types@PAVDisplayableObject@@@std@@@std@@@0@V10@V10@ABQAVDisplayableObject@@@Z 0044b8ac     GameEngine.obj
 0002:000148bc       __ehfuncinfo$??$find@V?$_Vector_iterator@V?$_Vector_val@U?$_Simple_types@PAVDisplayableObject@@@std@@@std@@@std@@PAVDisplayableObject@@@std@@YA?AV?$_Vector_iterator@V?$_Vector_val@U?$_Simple_types@PAVDisplayableObject@@@std@@@std@@@0@V10@V10@ABQAVDisplayableObject@@@Z 0044b8bc     GameEngine.obj
 0002:000148e8       __unwindtable$?addBossObject@GameEngine@@QAEXHHH@Z 0044b8e8     GameEngine.obj
 0002:000148f0       __unwindtable$?updateScoreFile@GameEngine@@QAEXXZ 0044b8f0     GameEngine.obj
 0002:000148f8       __unwindtable$?save@GameEngine@@QAEXXZ 0044b8f8     GameEngine.obj
 0002:00014900       __unwindtable$?virtInitialiseObjects@GameEngine@@UAEHXZ 0044b900     GameEngine.obj
 0002:00014908       __unwindtable$?readScoreFile@GameEngine@@QAEXXZ 0044b908     GameEngine.obj
 0002:00014918       __unwindtable$?addBullet@GameEngine@@QAEXHHH@Z 0044b918     GameEngine.obj
 0002:00014938       __ehfuncinfo$?initialiseDifficultObjects@GameEngine@@QAEXXZ 0044b938     GameEngine.obj
 0002:0001495c       __ehfuncinfo$?initialiseMediumObjects@GameEngine@@QAEXXZ 0044b95c     GameEngine.obj
 0002:00014980       __ehfuncinfo$?initialiseEasyObjects@GameEngine@@QAEXXZ 0044b980     GameEngine.obj
 0002:000149a4       __ehfuncinfo$?addBullet@GameEngine@@QAEXHHH@Z 0044b9a4     GameEngine.obj
 0002:000149c8       __ehfuncinfo$?addBossObject@GameEngine@@QAEXHHH@Z 0044b9c8     GameEngine.obj
 0002:000149ec       __ehfuncinfo$?updateScoreFile@GameEngine@@QAEXXZ 0044b9ec     GameEngine.obj
 0002:00014a10       __ehfuncinfo$?readScoreFile@GameEngine@@QAEXXZ 0044ba10     GameEngine.obj
 0002:00014a34       __ehfuncinfo$?save@GameEngine@@QAEXXZ 0044ba34     GameEngine.obj
 0002:00014a58       __ehfuncinfo$??5@YAAAV?$basic_istream@DU?$char_traits@D@std@@@std@@AAV01@AAVGameEngine@@@Z 0044ba58     GameEngine.obj
 0002:00014a7c       __ehfuncinfo$?virtInitialiseObjects@GameEngine@@UAEHXZ 0044ba7c     GameEngine.obj
 0002:00014aa0       __ehfuncinfo$??0GameEngine@@QAE@XZ 0044baa0     GameEngine.obj
 0002:00014ac4       __unwindtable$?initialiseEasyObjects@GameEngine@@QAEXXZ 0044bac4     GameEngine.obj
 0002:00014aec       __unwindtable$??5@YAAAV?$basic_istream@DU?$char_traits@D@std@@@std@@AAV01@AAVGameEngine@@@Z 0044baec     GameEngine.obj
 0002:00014b14       __unwindtable$?initialiseMediumObjects@GameEngine@@QAEXXZ 0044bb14     GameEngine.obj
 0002:00014b4c       __unwindtable$?initialiseDifficultObjects@GameEngine@@QAEXXZ 0044bb4c     GameEngine.obj
 0002:00014b8c       __unwindtable$??0GameEngine@@QAE@XZ 0044bb8c     GameEngine.obj
 0002:00014ca4       __unwindtable$??0DragableImageObject@@QAE@HHPAVBaseEngine@@V?$basic_string@DU?$char_traits@D@std@@V?$allocator@D@2@@std@@_N2@Z 0044bca4     GameEngine.obj
 0002:00014cc4       __ehfuncinfo$??0DragableImageObject@@QAE@HHPAVBaseEngine@@V?$basic_string@DU?$char_traits@D@std@@V?$allocator@D@2@@std@@_N2@Z 0044bcc4     GameEngine.obj
 0002:00014cf0       __unwindtable$??0MappableImageObject@@QAE@PAVCoordinateMapping@@HHPAVBaseEngine@@V?$basic_string@DU?$char_traits@D@std@@V?$allocator@D@2@@std@@_N3@Z 0044bcf0     GameEngine.obj
 0002:00014cf8       __ehfuncinfo$??0MappableImageObject@@QAE@PAVCoordinateMapping@@HHPAVBaseEngine@@V?$basic_string@DU?$char_traits@D@std@@V?$allocator@D@2@@std@@_N3@Z 0044bcf8     GameEngine.obj
 0002:00014d20       __unwindtable$??0?$basic_fstream@DU?$char_traits@D@std@@@std@@QAE@XZ 0044bd20     GameEngine.obj
 0002:00014d30       __ehfuncinfo$??0?$basic_fstream@DU?$char_traits@D@std@@@std@@QAE@XZ 0044bd30     GameEngine.obj
 0002:00014d5c       __unwindtable$??0?$basic_filebuf@DU?$char_traits@D@std@@@std@@QAE@XZ 0044bd5c     GameEngine.obj
 0002:00014d64       __ehfuncinfo$??0?$basic_filebuf@DU?$char_traits@D@std@@@std@@QAE@XZ 0044bd64     GameEngine.obj
 0002:00014d8c       __ehfuncinfo$??1?$basic_filebuf@DU?$char_traits@D@std@@@std@@UAE@XZ 0044bd8c     GameEngine.obj
 0002:00014db4       __unwindtable$?open@?$basic_filebuf@DU?$char_traits@D@std@@@std@@QAEPAV12@PBDHH@Z 0044bdb4     GameEngine.obj
 0002:00014dbc       __ehfuncinfo$?open@?$basic_filebuf@DU?$char_traits@D@std@@@std@@QAEPAV12@PBDHH@Z 0044bdbc     GameEngine.obj
 0002:00014de4       __unwindtable$?uflow@?$basic_filebuf@DU?$char_traits@D@std@@@std@@MAEHXZ 0044bde4     GameEngine.obj
 0002:00014dec       __ehfuncinfo$?uflow@?$basic_filebuf@DU?$char_traits@D@std@@@std@@MAEHXZ 0044bdec     GameEngine.obj
 0002:00014e14       __catchsym$??$?5DU?$char_traits@D@std@@V?$allocator@D@1@@std@@YAAAV?$basic_istream@DU?$char_traits@D@std@@@0@$$QAV10@AAV?$basic_string@DU?$char_traits@D@std@@V?$allocator@D@2@@0@@Z$4 0044be14     GameEngine.obj
 0002:00014e24       __tryblocktable$??$?5DU?$char_traits@D@std@@V?$allocator@D@1@@std@@YAAAV?$basic_istream@DU?$char_traits@D@std@@@0@$$QAV10@AAV?$basic_string@DU?$char_traits@D@std@@V?$allocator@D@2@@0@@Z 0044be24     GameEngine.obj
 0002:00014e38       __unwindtable$??$?5DU?$char_traits@D@std@@V?$allocator@D@1@@std@@YAAAV?$basic_istream@DU?$char_traits@D@std@@@0@$$QAV10@AAV?$basic_string@DU?$char_traits@D@std@@V?$allocator@D@2@@0@@Z 0044be38     GameEngine.obj
 0002:00014e58       __ehfuncinfo$??$?5DU?$char_traits@D@std@@V?$allocator@D@1@@std@@YAAAV?$basic_istream@DU?$char_traits@D@std@@@0@$$QAV10@AAV?$basic_string@DU?$char_traits@D@std@@V?$allocator@D@2@@0@@Z 0044be58     GameEngine.obj
 0002:00014e88       __unwindtable$??$use_facet@V?$codecvt@DDU_Mbstatet@@@std@@@std@@YAABV?$codecvt@DDU_Mbstatet@@@0@ABVlocale@0@@Z 0044be88     GameEngine.obj
 0002:00014e98       __ehfuncinfo$??$use_facet@V?$codecvt@DDU_Mbstatet@@@std@@@std@@YAABV?$codecvt@DDU_Mbstatet@@@0@ABVlocale@0@@Z 0044be98     GameEngine.obj
 0002:00014ec4       __catchsym$??$_Emplace_reallocate@ABQAVDisplayableObject@@@?$vector@PAVDisplayableObject@@V?$allocator@PAVDisplayableObject@@@std@@@std@@QAEPAPAVDisplayableObject@@QAPAV2@ABQAV2@@Z$2 0044bec4     GameEngine.obj
 0002:00014ed4       __unwindtable$??$_Emplace_reallocate@ABQAVDisplayableObject@@@?$vector@PAVDisplayableObject@@V?$allocator@PAVDisplayableObject@@@std@@@std@@QAEPAPAVDisplayableObject@@QAPAV2@ABQAV2@@Z 0044bed4     GameEngine.obj
 0002:00014ee4       __tryblocktable$??$_Emplace_reallocate@ABQAVDisplayableObject@@@?$vector@PAVDisplayableObject@@V?$allocator@PAVDisplayableObject@@@std@@@std@@QAEPAPAVDisplayableObject@@QAPAV2@ABQAV2@@Z 0044bee4     GameEngine.obj
 0002:00014ef8       __ehfuncinfo$??$_Emplace_reallocate@ABQAVDisplayableObject@@@?$vector@PAVDisplayableObject@@V?$allocator@PAVDisplayableObject@@@std@@@std@@QAEPAPAVDisplayableObject@@QAPAV2@ABQAV2@@Z 0044bef8     GameEngine.obj
 0002:00014f24       __catchsym$??$getline@DU?$char_traits@D@std@@V?$allocator@D@2@@std@@YAAAV?$basic_istream@DU?$char_traits@D@std@@@0@$$QAV10@AAV?$basic_string@DU?$char_traits@D@std@@V?$allocator@D@2@@0@D@Z$3 0044bf24     GameEngine.obj
 0002:00014f34       __tryblocktable$??$getline@DU?$char_traits@D@std@@V?$allocator@D@2@@std@@YAAAV?$basic_istream@DU?$char_traits@D@std@@@0@$$QAV10@AAV?$basic_string@DU?$char_traits@D@std@@V?$allocator@D@2@@0@D@Z 0044bf34     GameEngine.obj
 0002:00014f48       __unwindtable$??$getline@DU?$char_traits@D@std@@V?$allocator@D@2@@std@@YAAAV?$basic_istream@DU?$char_traits@D@std@@@0@$$QAV10@AAV?$basic_string@DU?$char_traits@D@std@@V?$allocator@D@2@@0@D@Z 0044bf48     GameEngine.obj
 0002:00014f60       __ehfuncinfo$??$getline@DU?$char_traits@D@std@@V?$allocator@D@2@@std@@YAAAV?$basic_istream@DU?$char_traits@D@std@@@0@$$QAV10@AAV?$basic_string@DU?$char_traits@D@std@@V?$allocator@D@2@@0@D@Z 0044bf60     GameEngine.obj
 0002:00014f90       __ehfuncinfo$??1_Sentry_base@?$basic_istream@DU?$char_traits@D@std@@@std@@QAE@XZ 0044bf90     GameEngine.obj
 0002:00014fb8       __unwindtable$??0sentry@?$basic_istream@DU?$char_traits@D@std@@@std@@QAE@AAV12@_N@Z 0044bfb8     GameEngine.obj
 0002:00014fc0       __ehfuncinfo$??0sentry@?$basic_istream@DU?$char_traits@D@std@@@std@@QAE@AAV12@_N@Z 0044bfc0     GameEngine.obj
 0002:0001502c       __ehfuncinfo$??0GameMainObject@@QAE@PAVGameEngine@@PAVAdvancedTileManager@@HHHH@Z 0044c02c     GameMainObject.obj
 0002:00015050       __unwindtable$??0GameMainObject@@QAE@PAVGameEngine@@PAVAdvancedTileManager@@HHHH@Z 0044c050     GameMainObject.obj
 0002:000150ac       __ehfuncinfo$??0AdvancedTileManager@@QAE@XZ 0044c0ac     AdvancedTileManager.obj
 0002:000150d0       __unwindtable$??0AdvancedTileManager@@QAE@XZ 0044c0d0     AdvancedTileManager.obj
 0002:0001516c       __unwindtable$??0RawImageData@@QAE@HHABV?$shared_ptr@VRawImageData@@@std@@@Z 0044c16c     RawImage.obj
 0002:00015174       __unwindtable$??0RawImageData@@QAE@ABV?$shared_ptr@VRawImageData@@@std@@H@Z 0044c174     RawImage.obj
 0002:0001517c       __ehfuncinfo$??0RawImageData@@QAE@HHABV?$shared_ptr@VRawImageData@@@std@@@Z 0044c17c     RawImage.obj
 0002:000151a0       __ehfuncinfo$??0RawImageData@@QAE@ABV?$shared_ptr@VRawImageData@@@std@@H@Z 0044c1a0     RawImage.obj
 0002:000151cc       __unwindtable$?_Facet_Register@std@@YAXPAV_Facet_base@1@@Z 0044c1cc     msvcprtd:locale0_implib.obj
 0002:000151d4       __ehfuncinfo$?_Facet_Register@std@@YAXPAV_Facet_base@1@@Z 0044c1d4     msvcprtd:locale0_implib.obj
 0002:00015200       __sehtable$?__scrt_common_main_seh@@YAHXZ 0044c200     MSVCRTD:exe_main.obj
 0002:00015220       __sehtable$___scrt_is_nonwritable_in_current_image 0044c220     MSVCRTD:utility.obj
 0003:00000000       ?firstClick@?1??handleEvent@BaseEngine@@QAE_NPATSDL_Event@@@Z@4_NA 0044d000     BaseEngine.obj
 0003:00000004       ?nullMapping@@3VCroppedCoordinateMapping@@A 0044d004     SimpleImage.obj
 0003:0000095c       ?_Fac_head@std@@3PAU_Fac_node@1@A 0044d95c     msvcprtd:locale0_implib.obj
 0003:00000968       ?is_initialized_as_dll@@3_NA 0044d968     MSVCRTD:utility.obj
 0003:00000969       ?module_local_atexit_table_initialized@@3_NA 0044d969     MSVCRTD:utility.obj
 0003:0000096c       ?module_local_atexit_table@@3U_onexit_table_t@@A 0044d96c     MSVCRTD:utility.obj
 0003:00000978       ?module_local_at_quick_exit_table@@3U_onexit_table_t@@A 0044d978     MSVCRTD:utility.obj
 0003:000009b0       _GS_ExceptionRecord        0044d9b0     MSVCRTD:gs_report.obj
 0003:00000a00       _GS_ContextRecord          0044da00     MSVCRTD:gs_report.obj
 0004:00000c8e       .idata$6                   0044ec8e     SDL2:SDL2.dll
 0004:00000ca4       .idata$6                   0044eca4     SDL2_image:SDL2_image.dll
 0004:00000d04       .idata$6                   0044ed04     SDL2_ttf:SDL2_ttf.dll
 0004:00001c9c       .idata$6                   0044fc9c     msvcprtd:MSVCP140D.dll
 0004:00001dd6       .idata$6                   0044fdd6     vcruntimed:VCRUNTIME140D.dll
 0004:000021a8       .idata$6                   004501a8     ucrtd:ucrtbased.dll
 0004:0000232a       .idata$6                   0045032a     kernel32:KERNEL32.dll
 0006:00000170       $R000000                   00452170     * linker generated manifest res *
